
Debug/bin\Scaner.elf:     file format elf32-littlearm


Disassembly of section .text:

08000000 <g_pfnVectors>:
 8000000:	44 25 00 20 59 1c 00 08 c1 1c 00 08 c1 1c 00 08     D%. Y...........
 8000010:	c1 1c 00 08 c1 1c 00 08 c1 1c 00 08 00 00 00 00     ................
	...
 800002c:	c1 1c 00 08 c1 1c 00 08 00 00 00 00 c1 1c 00 08     ................
 800003c:	c1 1c 00 08 c1 1c 00 08 c1 1c 00 08 c1 1c 00 08     ................
 800004c:	c1 1c 00 08 c1 1c 00 08 c1 1c 00 08 85 4a 00 08     .............J..
 800005c:	c1 1c 00 08 c1 1c 00 08 c1 1c 00 08 c1 1c 00 08     ................
 800006c:	c1 1c 00 08 c1 1c 00 08 c1 1c 00 08 c1 1c 00 08     ................
 800007c:	c1 1c 00 08 c1 1c 00 08 c1 1c 00 08 c1 1c 00 08     ................
 800008c:	c1 1c 00 08 c1 1c 00 08 c1 1c 00 08 c1 1c 00 08     ................
 800009c:	c1 1c 00 08 c1 1c 00 08 c1 1c 00 08 c1 1c 00 08     ................
 80000ac:	c1 1c 00 08 5d 4c 00 08 b1 4b 00 08 c1 1c 00 08     ....]L...K......
 80000bc:	c1 1c 00 08 c1 1c 00 08 c1 1c 00 08 c1 1c 00 08     ................
 80000cc:	c1 1c 00 08 c1 1c 00 08 91 25 00 08 a1 41 00 08     .........%...A..
 80000dc:	c1 1c 00 08 c1 1c 00 08 c1 1c 00 08 c1 1c 00 08     ................
 80000ec:	c1 1c 00 08 c1 1c 00 08 c1 1c 00 08 c1 1c 00 08     ................
 80000fc:	c1 1c 00 08 c1 1c 00 08 c1 1c 00 08 c1 1c 00 08     ................
 800010c:	c1 1c 00 08 c1 1c 00 08 c1 1c 00 08 f5 13 00 08     ................
 800011c:	c1 1c 00 08 c1 1c 00 08 c1 1c 00 08 c1 1c 00 08     ................
 800012c:	c1 1c 00 08 5f f8 08 f1                             ...._...

08000134 <hist_erase_older>:
 8000134:	b480      	push	{r7}
 8000136:	b085      	sub	sp, #20
 8000138:	af00      	add	r7, sp, #0
 800013a:	6078      	str	r0, [r7, #4]
 800013c:	687b      	ldr	r3, [r7, #4]
 800013e:	6a1a      	ldr	r2, [r3, #32]
 8000140:	687b      	ldr	r3, [r7, #4]
 8000142:	6a1b      	ldr	r3, [r3, #32]
 8000144:	6879      	ldr	r1, [r7, #4]
 8000146:	5ccb      	ldrb	r3, [r1, r3]
 8000148:	18d3      	adds	r3, r2, r3
 800014a:	f103 0301 	add.w	r3, r3, #1
 800014e:	60fb      	str	r3, [r7, #12]
 8000150:	68fb      	ldr	r3, [r7, #12]
 8000152:	2b1f      	cmp	r3, #31
 8000154:	dd03      	ble.n	800015e <hist_erase_older+0x2a>
 8000156:	68fb      	ldr	r3, [r7, #12]
 8000158:	f1a3 0320 	sub.w	r3, r3, #32
 800015c:	60fb      	str	r3, [r7, #12]
 800015e:	687b      	ldr	r3, [r7, #4]
 8000160:	68fa      	ldr	r2, [r7, #12]
 8000162:	621a      	str	r2, [r3, #32]
 8000164:	f107 0714 	add.w	r7, r7, #20
 8000168:	46bd      	mov	sp, r7
 800016a:	bc80      	pop	{r7}
 800016c:	4770      	bx	lr
 800016e:	bf00      	nop

08000170 <hist_is_space_for_new>:
 8000170:	b480      	push	{r7}
 8000172:	b083      	sub	sp, #12
 8000174:	af00      	add	r7, sp, #0
 8000176:	6078      	str	r0, [r7, #4]
 8000178:	6039      	str	r1, [r7, #0]
 800017a:	687b      	ldr	r3, [r7, #4]
 800017c:	6a1b      	ldr	r3, [r3, #32]
 800017e:	687a      	ldr	r2, [r7, #4]
 8000180:	5cd3      	ldrb	r3, [r2, r3]
 8000182:	2b00      	cmp	r3, #0
 8000184:	d102      	bne.n	800018c <hist_is_space_for_new+0x1c>
 8000186:	f04f 0301 	mov.w	r3, #1
 800018a:	e023      	b.n	80001d4 <hist_is_space_for_new+0x64>
 800018c:	687b      	ldr	r3, [r7, #4]
 800018e:	6a5a      	ldr	r2, [r3, #36]	; 0x24
 8000190:	687b      	ldr	r3, [r7, #4]
 8000192:	6a1b      	ldr	r3, [r3, #32]
 8000194:	429a      	cmp	r2, r3
 8000196:	db0e      	blt.n	80001b6 <hist_is_space_for_new+0x46>
 8000198:	687b      	ldr	r3, [r7, #4]
 800019a:	6a5b      	ldr	r3, [r3, #36]	; 0x24
 800019c:	f1c3 0220 	rsb	r2, r3, #32
 80001a0:	687b      	ldr	r3, [r7, #4]
 80001a2:	6a1b      	ldr	r3, [r3, #32]
 80001a4:	18d3      	adds	r3, r2, r3
 80001a6:	f103 32ff 	add.w	r2, r3, #4294967295
 80001aa:	683b      	ldr	r3, [r7, #0]
 80001ac:	429a      	cmp	r2, r3
 80001ae:	dd0f      	ble.n	80001d0 <hist_is_space_for_new+0x60>
 80001b0:	f04f 0301 	mov.w	r3, #1
 80001b4:	e00e      	b.n	80001d4 <hist_is_space_for_new+0x64>
 80001b6:	687b      	ldr	r3, [r7, #4]
 80001b8:	6a1a      	ldr	r2, [r3, #32]
 80001ba:	687b      	ldr	r3, [r7, #4]
 80001bc:	6a5b      	ldr	r3, [r3, #36]	; 0x24
 80001be:	1ad3      	subs	r3, r2, r3
 80001c0:	f103 32ff 	add.w	r2, r3, #4294967295
 80001c4:	683b      	ldr	r3, [r7, #0]
 80001c6:	429a      	cmp	r2, r3
 80001c8:	dd02      	ble.n	80001d0 <hist_is_space_for_new+0x60>
 80001ca:	f04f 0301 	mov.w	r3, #1
 80001ce:	e001      	b.n	80001d4 <hist_is_space_for_new+0x64>
 80001d0:	f04f 0300 	mov.w	r3, #0
 80001d4:	4618      	mov	r0, r3
 80001d6:	f107 070c 	add.w	r7, r7, #12
 80001da:	46bd      	mov	sp, r7
 80001dc:	bc80      	pop	{r7}
 80001de:	4770      	bx	lr

080001e0 <hist_save_line>:
 80001e0:	b580      	push	{r7, lr}
 80001e2:	b086      	sub	sp, #24
 80001e4:	af00      	add	r7, sp, #0
 80001e6:	60f8      	str	r0, [r7, #12]
 80001e8:	60b9      	str	r1, [r7, #8]
 80001ea:	607a      	str	r2, [r7, #4]
 80001ec:	687b      	ldr	r3, [r7, #4]
 80001ee:	2b1e      	cmp	r3, #30
 80001f0:	dd04      	ble.n	80001fc <hist_save_line+0x1c>
 80001f2:	e06a      	b.n	80002ca <hist_save_line+0xea>
 80001f4:	68f8      	ldr	r0, [r7, #12]
 80001f6:	f7ff ff9d 	bl	8000134 <hist_erase_older>
 80001fa:	e000      	b.n	80001fe <hist_save_line+0x1e>
 80001fc:	bf00      	nop
 80001fe:	68f8      	ldr	r0, [r7, #12]
 8000200:	6879      	ldr	r1, [r7, #4]
 8000202:	f7ff ffb5 	bl	8000170 <hist_is_space_for_new>
 8000206:	4603      	mov	r3, r0
 8000208:	2b00      	cmp	r3, #0
 800020a:	d0f3      	beq.n	80001f4 <hist_save_line+0x14>
 800020c:	68fb      	ldr	r3, [r7, #12]
 800020e:	6a1b      	ldr	r3, [r3, #32]
 8000210:	68fa      	ldr	r2, [r7, #12]
 8000212:	5cd3      	ldrb	r3, [r2, r3]
 8000214:	2b00      	cmp	r3, #0
 8000216:	d105      	bne.n	8000224 <hist_save_line+0x44>
 8000218:	68fb      	ldr	r3, [r7, #12]
 800021a:	6a1b      	ldr	r3, [r3, #32]
 800021c:	687a      	ldr	r2, [r7, #4]
 800021e:	b2d1      	uxtb	r1, r2
 8000220:	68fa      	ldr	r2, [r7, #12]
 8000222:	54d1      	strb	r1, [r2, r3]
 8000224:	68fb      	ldr	r3, [r7, #12]
 8000226:	6a5b      	ldr	r3, [r3, #36]	; 0x24
 8000228:	f1c3 021f 	rsb	r2, r3, #31
 800022c:	687b      	ldr	r3, [r7, #4]
 800022e:	429a      	cmp	r2, r3
 8000230:	dd0c      	ble.n	800024c <hist_save_line+0x6c>
 8000232:	68fa      	ldr	r2, [r7, #12]
 8000234:	68fb      	ldr	r3, [r7, #12]
 8000236:	6a5b      	ldr	r3, [r3, #36]	; 0x24
 8000238:	f103 0301 	add.w	r3, r3, #1
 800023c:	18d2      	adds	r2, r2, r3
 800023e:	687b      	ldr	r3, [r7, #4]
 8000240:	4610      	mov	r0, r2
 8000242:	68b9      	ldr	r1, [r7, #8]
 8000244:	461a      	mov	r2, r3
 8000246:	f005 fb01 	bl	800584c <memcpy>
 800024a:	e01c      	b.n	8000286 <hist_save_line+0xa6>
 800024c:	68fb      	ldr	r3, [r7, #12]
 800024e:	6a5b      	ldr	r3, [r3, #36]	; 0x24
 8000250:	f1c3 031f 	rsb	r3, r3, #31
 8000254:	617b      	str	r3, [r7, #20]
 8000256:	68fa      	ldr	r2, [r7, #12]
 8000258:	68fb      	ldr	r3, [r7, #12]
 800025a:	6a5b      	ldr	r3, [r3, #36]	; 0x24
 800025c:	f103 0301 	add.w	r3, r3, #1
 8000260:	18d2      	adds	r2, r2, r3
 8000262:	697b      	ldr	r3, [r7, #20]
 8000264:	4610      	mov	r0, r2
 8000266:	68b9      	ldr	r1, [r7, #8]
 8000268:	461a      	mov	r2, r3
 800026a:	f005 faef 	bl	800584c <memcpy>
 800026e:	68f9      	ldr	r1, [r7, #12]
 8000270:	697b      	ldr	r3, [r7, #20]
 8000272:	68ba      	ldr	r2, [r7, #8]
 8000274:	18d2      	adds	r2, r2, r3
 8000276:	6878      	ldr	r0, [r7, #4]
 8000278:	697b      	ldr	r3, [r7, #20]
 800027a:	1ac3      	subs	r3, r0, r3
 800027c:	4608      	mov	r0, r1
 800027e:	4611      	mov	r1, r2
 8000280:	461a      	mov	r2, r3
 8000282:	f005 fae3 	bl	800584c <memcpy>
 8000286:	68fb      	ldr	r3, [r7, #12]
 8000288:	6a5b      	ldr	r3, [r3, #36]	; 0x24
 800028a:	687a      	ldr	r2, [r7, #4]
 800028c:	b2d1      	uxtb	r1, r2
 800028e:	68fa      	ldr	r2, [r7, #12]
 8000290:	54d1      	strb	r1, [r2, r3]
 8000292:	68fb      	ldr	r3, [r7, #12]
 8000294:	6a5a      	ldr	r2, [r3, #36]	; 0x24
 8000296:	687b      	ldr	r3, [r7, #4]
 8000298:	18d3      	adds	r3, r2, r3
 800029a:	f103 0201 	add.w	r2, r3, #1
 800029e:	68fb      	ldr	r3, [r7, #12]
 80002a0:	625a      	str	r2, [r3, #36]	; 0x24
 80002a2:	68fb      	ldr	r3, [r7, #12]
 80002a4:	6a5b      	ldr	r3, [r3, #36]	; 0x24
 80002a6:	2b1f      	cmp	r3, #31
 80002a8:	dd05      	ble.n	80002b6 <hist_save_line+0xd6>
 80002aa:	68fb      	ldr	r3, [r7, #12]
 80002ac:	6a5b      	ldr	r3, [r3, #36]	; 0x24
 80002ae:	f1a3 0220 	sub.w	r2, r3, #32
 80002b2:	68fb      	ldr	r3, [r7, #12]
 80002b4:	625a      	str	r2, [r3, #36]	; 0x24
 80002b6:	68fb      	ldr	r3, [r7, #12]
 80002b8:	6a5b      	ldr	r3, [r3, #36]	; 0x24
 80002ba:	68fa      	ldr	r2, [r7, #12]
 80002bc:	f04f 0100 	mov.w	r1, #0
 80002c0:	54d1      	strb	r1, [r2, r3]
 80002c2:	68fb      	ldr	r3, [r7, #12]
 80002c4:	f04f 0200 	mov.w	r2, #0
 80002c8:	629a      	str	r2, [r3, #40]	; 0x28
 80002ca:	f107 0718 	add.w	r7, r7, #24
 80002ce:	46bd      	mov	sp, r7
 80002d0:	bd80      	pop	{r7, pc}
 80002d2:	bf00      	nop

080002d4 <hist_restore_line>:
 80002d4:	b580      	push	{r7, lr}
 80002d6:	b08c      	sub	sp, #48	; 0x30
 80002d8:	af00      	add	r7, sp, #0
 80002da:	60f8      	str	r0, [r7, #12]
 80002dc:	60b9      	str	r1, [r7, #8]
 80002de:	607a      	str	r2, [r7, #4]
 80002e0:	f04f 0300 	mov.w	r3, #0
 80002e4:	62fb      	str	r3, [r7, #44]	; 0x2c
 80002e6:	68fb      	ldr	r3, [r7, #12]
 80002e8:	6a1b      	ldr	r3, [r3, #32]
 80002ea:	62bb      	str	r3, [r7, #40]	; 0x28
 80002ec:	e013      	b.n	8000316 <hist_restore_line+0x42>
 80002ee:	68fa      	ldr	r2, [r7, #12]
 80002f0:	6abb      	ldr	r3, [r7, #40]	; 0x28
 80002f2:	18d3      	adds	r3, r2, r3
 80002f4:	781b      	ldrb	r3, [r3, #0]
 80002f6:	f103 0301 	add.w	r3, r3, #1
 80002fa:	6aba      	ldr	r2, [r7, #40]	; 0x28
 80002fc:	18d3      	adds	r3, r2, r3
 80002fe:	62bb      	str	r3, [r7, #40]	; 0x28
 8000300:	6abb      	ldr	r3, [r7, #40]	; 0x28
 8000302:	2b1f      	cmp	r3, #31
 8000304:	dd03      	ble.n	800030e <hist_restore_line+0x3a>
 8000306:	6abb      	ldr	r3, [r7, #40]	; 0x28
 8000308:	f1a3 0320 	sub.w	r3, r3, #32
 800030c:	62bb      	str	r3, [r7, #40]	; 0x28
 800030e:	6afb      	ldr	r3, [r7, #44]	; 0x2c
 8000310:	f103 0301 	add.w	r3, r3, #1
 8000314:	62fb      	str	r3, [r7, #44]	; 0x2c
 8000316:	68fa      	ldr	r2, [r7, #12]
 8000318:	6abb      	ldr	r3, [r7, #40]	; 0x28
 800031a:	18d3      	adds	r3, r2, r3
 800031c:	781b      	ldrb	r3, [r3, #0]
 800031e:	2b00      	cmp	r3, #0
 8000320:	d1e5      	bne.n	80002ee <hist_restore_line+0x1a>
 8000322:	687b      	ldr	r3, [r7, #4]
 8000324:	2b00      	cmp	r3, #0
 8000326:	d178      	bne.n	800041a <hist_restore_line+0x146>
 8000328:	68fb      	ldr	r3, [r7, #12]
 800032a:	6a9a      	ldr	r2, [r3, #40]	; 0x28
 800032c:	6afb      	ldr	r3, [r7, #44]	; 0x2c
 800032e:	429a      	cmp	r2, r3
 8000330:	f300 80e1 	bgt.w	80004f6 <hist_restore_line+0x222>
 8000334:	68fb      	ldr	r3, [r7, #12]
 8000336:	6a1b      	ldr	r3, [r3, #32]
 8000338:	627b      	str	r3, [r7, #36]	; 0x24
 800033a:	f04f 0300 	mov.w	r3, #0
 800033e:	623b      	str	r3, [r7, #32]
 8000340:	e013      	b.n	800036a <hist_restore_line+0x96>
 8000342:	68fa      	ldr	r2, [r7, #12]
 8000344:	6a7b      	ldr	r3, [r7, #36]	; 0x24
 8000346:	18d3      	adds	r3, r2, r3
 8000348:	781b      	ldrb	r3, [r3, #0]
 800034a:	f103 0301 	add.w	r3, r3, #1
 800034e:	6a7a      	ldr	r2, [r7, #36]	; 0x24
 8000350:	18d3      	adds	r3, r2, r3
 8000352:	627b      	str	r3, [r7, #36]	; 0x24
 8000354:	6a7b      	ldr	r3, [r7, #36]	; 0x24
 8000356:	2b1f      	cmp	r3, #31
 8000358:	dd03      	ble.n	8000362 <hist_restore_line+0x8e>
 800035a:	6a7b      	ldr	r3, [r7, #36]	; 0x24
 800035c:	f1a3 0320 	sub.w	r3, r3, #32
 8000360:	627b      	str	r3, [r7, #36]	; 0x24
 8000362:	6a3b      	ldr	r3, [r7, #32]
 8000364:	f103 0301 	add.w	r3, r3, #1
 8000368:	623b      	str	r3, [r7, #32]
 800036a:	68fa      	ldr	r2, [r7, #12]
 800036c:	6a7b      	ldr	r3, [r7, #36]	; 0x24
 800036e:	18d3      	adds	r3, r2, r3
 8000370:	781b      	ldrb	r3, [r3, #0]
 8000372:	2b00      	cmp	r3, #0
 8000374:	d008      	beq.n	8000388 <hist_restore_line+0xb4>
 8000376:	6afa      	ldr	r2, [r7, #44]	; 0x2c
 8000378:	6a3b      	ldr	r3, [r7, #32]
 800037a:	1ad3      	subs	r3, r2, r3
 800037c:	f103 32ff 	add.w	r2, r3, #4294967295
 8000380:	68fb      	ldr	r3, [r7, #12]
 8000382:	6a9b      	ldr	r3, [r3, #40]	; 0x28
 8000384:	429a      	cmp	r2, r3
 8000386:	d1dc      	bne.n	8000342 <hist_restore_line+0x6e>
 8000388:	68fa      	ldr	r2, [r7, #12]
 800038a:	6a7b      	ldr	r3, [r7, #36]	; 0x24
 800038c:	18d3      	adds	r3, r2, r3
 800038e:	781b      	ldrb	r3, [r3, #0]
 8000390:	2b00      	cmp	r3, #0
 8000392:	f000 80b0 	beq.w	80004f6 <hist_restore_line+0x222>
 8000396:	68fb      	ldr	r3, [r7, #12]
 8000398:	6a9b      	ldr	r3, [r3, #40]	; 0x28
 800039a:	f103 0201 	add.w	r2, r3, #1
 800039e:	68fb      	ldr	r3, [r7, #12]
 80003a0:	629a      	str	r2, [r3, #40]	; 0x28
 80003a2:	68fa      	ldr	r2, [r7, #12]
 80003a4:	6a7b      	ldr	r3, [r7, #36]	; 0x24
 80003a6:	18d3      	adds	r3, r2, r3
 80003a8:	781b      	ldrb	r3, [r3, #0]
 80003aa:	461a      	mov	r2, r3
 80003ac:	6a7b      	ldr	r3, [r7, #36]	; 0x24
 80003ae:	18d3      	adds	r3, r2, r3
 80003b0:	2b1f      	cmp	r3, #31
 80003b2:	dc0e      	bgt.n	80003d2 <hist_restore_line+0xfe>
 80003b4:	68fa      	ldr	r2, [r7, #12]
 80003b6:	6a7b      	ldr	r3, [r7, #36]	; 0x24
 80003b8:	f103 0301 	add.w	r3, r3, #1
 80003bc:	18d2      	adds	r2, r2, r3
 80003be:	68f9      	ldr	r1, [r7, #12]
 80003c0:	6a7b      	ldr	r3, [r7, #36]	; 0x24
 80003c2:	18cb      	adds	r3, r1, r3
 80003c4:	781b      	ldrb	r3, [r3, #0]
 80003c6:	68b8      	ldr	r0, [r7, #8]
 80003c8:	4611      	mov	r1, r2
 80003ca:	461a      	mov	r2, r3
 80003cc:	f005 fa3e 	bl	800584c <memcpy>
 80003d0:	e01e      	b.n	8000410 <hist_restore_line+0x13c>
 80003d2:	6a7b      	ldr	r3, [r7, #36]	; 0x24
 80003d4:	f1c3 031f 	rsb	r3, r3, #31
 80003d8:	617b      	str	r3, [r7, #20]
 80003da:	68fa      	ldr	r2, [r7, #12]
 80003dc:	6a7b      	ldr	r3, [r7, #36]	; 0x24
 80003de:	f103 0301 	add.w	r3, r3, #1
 80003e2:	18d2      	adds	r2, r2, r3
 80003e4:	697b      	ldr	r3, [r7, #20]
 80003e6:	68b8      	ldr	r0, [r7, #8]
 80003e8:	4611      	mov	r1, r2
 80003ea:	461a      	mov	r2, r3
 80003ec:	f005 fa2e 	bl	800584c <memcpy>
 80003f0:	697b      	ldr	r3, [r7, #20]
 80003f2:	68ba      	ldr	r2, [r7, #8]
 80003f4:	18d1      	adds	r1, r2, r3
 80003f6:	68fa      	ldr	r2, [r7, #12]
 80003f8:	68f8      	ldr	r0, [r7, #12]
 80003fa:	6a7b      	ldr	r3, [r7, #36]	; 0x24
 80003fc:	18c3      	adds	r3, r0, r3
 80003fe:	781b      	ldrb	r3, [r3, #0]
 8000400:	4618      	mov	r0, r3
 8000402:	697b      	ldr	r3, [r7, #20]
 8000404:	1ac3      	subs	r3, r0, r3
 8000406:	4608      	mov	r0, r1
 8000408:	4611      	mov	r1, r2
 800040a:	461a      	mov	r2, r3
 800040c:	f005 fa1e 	bl	800584c <memcpy>
 8000410:	68fa      	ldr	r2, [r7, #12]
 8000412:	6a7b      	ldr	r3, [r7, #36]	; 0x24
 8000414:	18d3      	adds	r3, r2, r3
 8000416:	781b      	ldrb	r3, [r3, #0]
 8000418:	e06f      	b.n	80004fa <hist_restore_line+0x226>
 800041a:	68fb      	ldr	r3, [r7, #12]
 800041c:	6a9b      	ldr	r3, [r3, #40]	; 0x28
 800041e:	2b00      	cmp	r3, #0
 8000420:	dd69      	ble.n	80004f6 <hist_restore_line+0x222>
 8000422:	68fb      	ldr	r3, [r7, #12]
 8000424:	6a9b      	ldr	r3, [r3, #40]	; 0x28
 8000426:	f103 32ff 	add.w	r2, r3, #4294967295
 800042a:	68fb      	ldr	r3, [r7, #12]
 800042c:	629a      	str	r2, [r3, #40]	; 0x28
 800042e:	68fb      	ldr	r3, [r7, #12]
 8000430:	6a1b      	ldr	r3, [r3, #32]
 8000432:	61fb      	str	r3, [r7, #28]
 8000434:	f04f 0300 	mov.w	r3, #0
 8000438:	61bb      	str	r3, [r7, #24]
 800043a:	e013      	b.n	8000464 <hist_restore_line+0x190>
 800043c:	68fa      	ldr	r2, [r7, #12]
 800043e:	69fb      	ldr	r3, [r7, #28]
 8000440:	18d3      	adds	r3, r2, r3
 8000442:	781b      	ldrb	r3, [r3, #0]
 8000444:	f103 0301 	add.w	r3, r3, #1
 8000448:	69fa      	ldr	r2, [r7, #28]
 800044a:	18d3      	adds	r3, r2, r3
 800044c:	61fb      	str	r3, [r7, #28]
 800044e:	69fb      	ldr	r3, [r7, #28]
 8000450:	2b1f      	cmp	r3, #31
 8000452:	dd03      	ble.n	800045c <hist_restore_line+0x188>
 8000454:	69fb      	ldr	r3, [r7, #28]
 8000456:	f1a3 0320 	sub.w	r3, r3, #32
 800045a:	61fb      	str	r3, [r7, #28]
 800045c:	69bb      	ldr	r3, [r7, #24]
 800045e:	f103 0301 	add.w	r3, r3, #1
 8000462:	61bb      	str	r3, [r7, #24]
 8000464:	68fa      	ldr	r2, [r7, #12]
 8000466:	69fb      	ldr	r3, [r7, #28]
 8000468:	18d3      	adds	r3, r2, r3
 800046a:	781b      	ldrb	r3, [r3, #0]
 800046c:	2b00      	cmp	r3, #0
 800046e:	d006      	beq.n	800047e <hist_restore_line+0x1aa>
 8000470:	6afa      	ldr	r2, [r7, #44]	; 0x2c
 8000472:	69bb      	ldr	r3, [r7, #24]
 8000474:	1ad2      	subs	r2, r2, r3
 8000476:	68fb      	ldr	r3, [r7, #12]
 8000478:	6a9b      	ldr	r3, [r3, #40]	; 0x28
 800047a:	429a      	cmp	r2, r3
 800047c:	d1de      	bne.n	800043c <hist_restore_line+0x168>
 800047e:	68fa      	ldr	r2, [r7, #12]
 8000480:	69fb      	ldr	r3, [r7, #28]
 8000482:	18d3      	adds	r3, r2, r3
 8000484:	781b      	ldrb	r3, [r3, #0]
 8000486:	461a      	mov	r2, r3
 8000488:	69fb      	ldr	r3, [r7, #28]
 800048a:	18d3      	adds	r3, r2, r3
 800048c:	2b1f      	cmp	r3, #31
 800048e:	dc0e      	bgt.n	80004ae <hist_restore_line+0x1da>
 8000490:	68fa      	ldr	r2, [r7, #12]
 8000492:	69fb      	ldr	r3, [r7, #28]
 8000494:	f103 0301 	add.w	r3, r3, #1
 8000498:	18d2      	adds	r2, r2, r3
 800049a:	68f9      	ldr	r1, [r7, #12]
 800049c:	69fb      	ldr	r3, [r7, #28]
 800049e:	18cb      	adds	r3, r1, r3
 80004a0:	781b      	ldrb	r3, [r3, #0]
 80004a2:	68b8      	ldr	r0, [r7, #8]
 80004a4:	4611      	mov	r1, r2
 80004a6:	461a      	mov	r2, r3
 80004a8:	f005 f9d0 	bl	800584c <memcpy>
 80004ac:	e01e      	b.n	80004ec <hist_restore_line+0x218>
 80004ae:	69fb      	ldr	r3, [r7, #28]
 80004b0:	f1c3 031f 	rsb	r3, r3, #31
 80004b4:	613b      	str	r3, [r7, #16]
 80004b6:	68fa      	ldr	r2, [r7, #12]
 80004b8:	69fb      	ldr	r3, [r7, #28]
 80004ba:	f103 0301 	add.w	r3, r3, #1
 80004be:	18d2      	adds	r2, r2, r3
 80004c0:	693b      	ldr	r3, [r7, #16]
 80004c2:	68b8      	ldr	r0, [r7, #8]
 80004c4:	4611      	mov	r1, r2
 80004c6:	461a      	mov	r2, r3
 80004c8:	f005 f9c0 	bl	800584c <memcpy>
 80004cc:	693b      	ldr	r3, [r7, #16]
 80004ce:	68ba      	ldr	r2, [r7, #8]
 80004d0:	18d1      	adds	r1, r2, r3
 80004d2:	68fa      	ldr	r2, [r7, #12]
 80004d4:	68f8      	ldr	r0, [r7, #12]
 80004d6:	69fb      	ldr	r3, [r7, #28]
 80004d8:	18c3      	adds	r3, r0, r3
 80004da:	781b      	ldrb	r3, [r3, #0]
 80004dc:	4618      	mov	r0, r3
 80004de:	693b      	ldr	r3, [r7, #16]
 80004e0:	1ac3      	subs	r3, r0, r3
 80004e2:	4608      	mov	r0, r1
 80004e4:	4611      	mov	r1, r2
 80004e6:	461a      	mov	r2, r3
 80004e8:	f005 f9b0 	bl	800584c <memcpy>
 80004ec:	68fa      	ldr	r2, [r7, #12]
 80004ee:	69fb      	ldr	r3, [r7, #28]
 80004f0:	18d3      	adds	r3, r2, r3
 80004f2:	781b      	ldrb	r3, [r3, #0]
 80004f4:	e001      	b.n	80004fa <hist_restore_line+0x226>
 80004f6:	f04f 0300 	mov.w	r3, #0
 80004fa:	4618      	mov	r0, r3
 80004fc:	f107 0730 	add.w	r7, r7, #48	; 0x30
 8000500:	46bd      	mov	sp, r7
 8000502:	bd80      	pop	{r7, pc}

08000504 <split>:
 8000504:	b480      	push	{r7}
 8000506:	b085      	sub	sp, #20
 8000508:	af00      	add	r7, sp, #0
 800050a:	6078      	str	r0, [r7, #4]
 800050c:	6039      	str	r1, [r7, #0]
 800050e:	f04f 0300 	mov.w	r3, #0
 8000512:	60fb      	str	r3, [r7, #12]
 8000514:	f04f 0300 	mov.w	r3, #0
 8000518:	60bb      	str	r3, [r7, #8]
 800051a:	e003      	b.n	8000524 <split+0x20>
 800051c:	68bb      	ldr	r3, [r7, #8]
 800051e:	f103 0301 	add.w	r3, r3, #1
 8000522:	60bb      	str	r3, [r7, #8]
 8000524:	687a      	ldr	r2, [r7, #4]
 8000526:	68bb      	ldr	r3, [r7, #8]
 8000528:	18d3      	adds	r3, r2, r3
 800052a:	f103 0330 	add.w	r3, r3, #48	; 0x30
 800052e:	781b      	ldrb	r3, [r3, #0]
 8000530:	2b00      	cmp	r3, #0
 8000532:	d103      	bne.n	800053c <split+0x38>
 8000534:	68ba      	ldr	r2, [r7, #8]
 8000536:	683b      	ldr	r3, [r7, #0]
 8000538:	429a      	cmp	r2, r3
 800053a:	dbef      	blt.n	800051c <split+0x18>
 800053c:	68ba      	ldr	r2, [r7, #8]
 800053e:	683b      	ldr	r3, [r7, #0]
 8000540:	429a      	cmp	r2, r3
 8000542:	db01      	blt.n	8000548 <split+0x44>
 8000544:	68fb      	ldr	r3, [r7, #12]
 8000546:	e02e      	b.n	80005a6 <split+0xa2>
 8000548:	687b      	ldr	r3, [r7, #4]
 800054a:	f103 0230 	add.w	r2, r3, #48	; 0x30
 800054e:	68bb      	ldr	r3, [r7, #8]
 8000550:	18d1      	adds	r1, r2, r3
 8000552:	687b      	ldr	r3, [r7, #4]
 8000554:	68fa      	ldr	r2, [r7, #12]
 8000556:	f102 0228 	add.w	r2, r2, #40	; 0x28
 800055a:	f843 1022 	str.w	r1, [r3, r2, lsl #2]
 800055e:	68fb      	ldr	r3, [r7, #12]
 8000560:	f103 0301 	add.w	r3, r3, #1
 8000564:	60fb      	str	r3, [r7, #12]
 8000566:	68fb      	ldr	r3, [r7, #12]
 8000568:	2b07      	cmp	r3, #7
 800056a:	dd07      	ble.n	800057c <split+0x78>
 800056c:	f04f 33ff 	mov.w	r3, #4294967295
 8000570:	e019      	b.n	80005a6 <split+0xa2>
 8000572:	68bb      	ldr	r3, [r7, #8]
 8000574:	f103 0301 	add.w	r3, r3, #1
 8000578:	60bb      	str	r3, [r7, #8]
 800057a:	e000      	b.n	800057e <split+0x7a>
 800057c:	bf00      	nop
 800057e:	687a      	ldr	r2, [r7, #4]
 8000580:	68bb      	ldr	r3, [r7, #8]
 8000582:	18d3      	adds	r3, r2, r3
 8000584:	f103 0330 	add.w	r3, r3, #48	; 0x30
 8000588:	781b      	ldrb	r3, [r3, #0]
 800058a:	2b00      	cmp	r3, #0
 800058c:	d003      	beq.n	8000596 <split+0x92>
 800058e:	68ba      	ldr	r2, [r7, #8]
 8000590:	683b      	ldr	r3, [r7, #0]
 8000592:	429a      	cmp	r2, r3
 8000594:	dbed      	blt.n	8000572 <split+0x6e>
 8000596:	68ba      	ldr	r2, [r7, #8]
 8000598:	683b      	ldr	r3, [r7, #0]
 800059a:	429a      	cmp	r2, r3
 800059c:	db01      	blt.n	80005a2 <split+0x9e>
 800059e:	68fb      	ldr	r3, [r7, #12]
 80005a0:	e001      	b.n	80005a6 <split+0xa2>
 80005a2:	bf00      	nop
 80005a4:	e7be      	b.n	8000524 <split+0x20>
 80005a6:	4618      	mov	r0, r3
 80005a8:	f107 0714 	add.w	r7, r7, #20
 80005ac:	46bd      	mov	sp, r7
 80005ae:	bc80      	pop	{r7}
 80005b0:	4770      	bx	lr
 80005b2:	bf00      	nop

080005b4 <print_prompt>:
 80005b4:	b580      	push	{r7, lr}
 80005b6:	b082      	sub	sp, #8
 80005b8:	af00      	add	r7, sp, #0
 80005ba:	6078      	str	r0, [r7, #4]
 80005bc:	687b      	ldr	r3, [r7, #4]
 80005be:	f8d3 30c8 	ldr.w	r3, [r3, #200]	; 0xc8
 80005c2:	687a      	ldr	r2, [r7, #4]
 80005c4:	6ad2      	ldr	r2, [r2, #44]	; 0x2c
 80005c6:	4610      	mov	r0, r2
 80005c8:	4798      	blx	r3
 80005ca:	f107 0708 	add.w	r7, r7, #8
 80005ce:	46bd      	mov	sp, r7
 80005d0:	bd80      	pop	{r7, pc}
 80005d2:	bf00      	nop

080005d4 <terminal_backspace>:
 80005d4:	b580      	push	{r7, lr}
 80005d6:	b082      	sub	sp, #8
 80005d8:	af00      	add	r7, sp, #0
 80005da:	6078      	str	r0, [r7, #4]
 80005dc:	687b      	ldr	r3, [r7, #4]
 80005de:	f8d3 30c8 	ldr.w	r3, [r3, #200]	; 0xc8
 80005e2:	4803      	ldr	r0, [pc, #12]	; (80005f0 <terminal_backspace+0x1c>)
 80005e4:	4798      	blx	r3
 80005e6:	f107 0708 	add.w	r7, r7, #8
 80005ea:	46bd      	mov	sp, r7
 80005ec:	bd80      	pop	{r7, pc}
 80005ee:	bf00      	nop
 80005f0:	08006ac0 	.word	0x08006ac0

080005f4 <terminal_newline>:
 80005f4:	b580      	push	{r7, lr}
 80005f6:	b082      	sub	sp, #8
 80005f8:	af00      	add	r7, sp, #0
 80005fa:	6078      	str	r0, [r7, #4]
 80005fc:	687b      	ldr	r3, [r7, #4]
 80005fe:	f8d3 30c8 	ldr.w	r3, [r3, #200]	; 0xc8
 8000602:	4803      	ldr	r0, [pc, #12]	; (8000610 <terminal_newline+0x1c>)
 8000604:	4798      	blx	r3
 8000606:	f107 0708 	add.w	r7, r7, #8
 800060a:	46bd      	mov	sp, r7
 800060c:	bd80      	pop	{r7, pc}
 800060e:	bf00      	nop
 8000610:	08006ac8 	.word	0x08006ac8

08000614 <terminal_move_cursor>:
 8000614:	b580      	push	{r7, lr}
 8000616:	b086      	sub	sp, #24
 8000618:	af00      	add	r7, sp, #0
 800061a:	6078      	str	r0, [r7, #4]
 800061c:	6039      	str	r1, [r7, #0]
 800061e:	f107 0308 	add.w	r3, r7, #8
 8000622:	f04f 0200 	mov.w	r2, #0
 8000626:	601a      	str	r2, [r3, #0]
 8000628:	f103 0304 	add.w	r3, r3, #4
 800062c:	f04f 0200 	mov.w	r2, #0
 8000630:	601a      	str	r2, [r3, #0]
 8000632:	f103 0304 	add.w	r3, r3, #4
 8000636:	f04f 0200 	mov.w	r2, #0
 800063a:	601a      	str	r2, [r3, #0]
 800063c:	f103 0304 	add.w	r3, r3, #4
 8000640:	f04f 0200 	mov.w	r2, #0
 8000644:	601a      	str	r2, [r3, #0]
 8000646:	f103 0304 	add.w	r3, r3, #4
 800064a:	683b      	ldr	r3, [r7, #0]
 800064c:	2b00      	cmp	r3, #0
 800064e:	dd09      	ble.n	8000664 <terminal_move_cursor+0x50>
 8000650:	f107 0308 	add.w	r3, r7, #8
 8000654:	4618      	mov	r0, r3
 8000656:	f04f 0110 	mov.w	r1, #16
 800065a:	4a0f      	ldr	r2, [pc, #60]	; (8000698 <terminal_move_cursor+0x84>)
 800065c:	683b      	ldr	r3, [r7, #0]
 800065e:	f002 fecb 	bl	80033f8 <snprintf>
 8000662:	e00d      	b.n	8000680 <terminal_move_cursor+0x6c>
 8000664:	683b      	ldr	r3, [r7, #0]
 8000666:	2b00      	cmp	r3, #0
 8000668:	da0a      	bge.n	8000680 <terminal_move_cursor+0x6c>
 800066a:	683b      	ldr	r3, [r7, #0]
 800066c:	f1c3 0300 	rsb	r3, r3, #0
 8000670:	f107 0208 	add.w	r2, r7, #8
 8000674:	4610      	mov	r0, r2
 8000676:	f04f 0110 	mov.w	r1, #16
 800067a:	4a08      	ldr	r2, [pc, #32]	; (800069c <terminal_move_cursor+0x88>)
 800067c:	f002 febc 	bl	80033f8 <snprintf>
 8000680:	687b      	ldr	r3, [r7, #4]
 8000682:	f8d3 30c8 	ldr.w	r3, [r3, #200]	; 0xc8
 8000686:	f107 0208 	add.w	r2, r7, #8
 800068a:	4610      	mov	r0, r2
 800068c:	4798      	blx	r3
 800068e:	f107 0718 	add.w	r7, r7, #24
 8000692:	46bd      	mov	sp, r7
 8000694:	bd80      	pop	{r7, pc}
 8000696:	bf00      	nop
 8000698:	08006acc 	.word	0x08006acc
 800069c:	08006ad4 	.word	0x08006ad4

080006a0 <terminal_reset_cursor>:
 80006a0:	b580      	push	{r7, lr}
 80006a2:	b088      	sub	sp, #32
 80006a4:	af02      	add	r7, sp, #8
 80006a6:	6078      	str	r0, [r7, #4]
 80006a8:	f107 0308 	add.w	r3, r7, #8
 80006ac:	f04f 0207 	mov.w	r2, #7
 80006b0:	9200      	str	r2, [sp, #0]
 80006b2:	4618      	mov	r0, r3
 80006b4:	f04f 0110 	mov.w	r1, #16
 80006b8:	4a07      	ldr	r2, [pc, #28]	; (80006d8 <terminal_reset_cursor+0x38>)
 80006ba:	f04f 036e 	mov.w	r3, #110	; 0x6e
 80006be:	f002 fe9b 	bl	80033f8 <snprintf>
 80006c2:	687b      	ldr	r3, [r7, #4]
 80006c4:	f8d3 30c8 	ldr.w	r3, [r3, #200]	; 0xc8
 80006c8:	f107 0208 	add.w	r2, r7, #8
 80006cc:	4610      	mov	r0, r2
 80006ce:	4798      	blx	r3
 80006d0:	f107 0718 	add.w	r7, r7, #24
 80006d4:	46bd      	mov	sp, r7
 80006d6:	bd80      	pop	{r7, pc}
 80006d8:	08006adc 	.word	0x08006adc

080006dc <terminal_print_line>:
 80006dc:	b580      	push	{r7, lr}
 80006de:	b086      	sub	sp, #24
 80006e0:	af00      	add	r7, sp, #0
 80006e2:	60f8      	str	r0, [r7, #12]
 80006e4:	60b9      	str	r1, [r7, #8]
 80006e6:	607a      	str	r2, [r7, #4]
 80006e8:	68fb      	ldr	r3, [r7, #12]
 80006ea:	f8d3 30c8 	ldr.w	r3, [r3, #200]	; 0xc8
 80006ee:	481a      	ldr	r0, [pc, #104]	; (8000758 <terminal_print_line+0x7c>)
 80006f0:	4798      	blx	r3
 80006f2:	f04f 0300 	mov.w	r3, #0
 80006f6:	743b      	strb	r3, [r7, #16]
 80006f8:	f04f 0300 	mov.w	r3, #0
 80006fc:	747b      	strb	r3, [r7, #17]
 80006fe:	68bb      	ldr	r3, [r7, #8]
 8000700:	617b      	str	r3, [r7, #20]
 8000702:	e017      	b.n	8000734 <terminal_print_line+0x58>
 8000704:	68fa      	ldr	r2, [r7, #12]
 8000706:	697b      	ldr	r3, [r7, #20]
 8000708:	18d3      	adds	r3, r2, r3
 800070a:	f103 0330 	add.w	r3, r3, #48	; 0x30
 800070e:	781b      	ldrb	r3, [r3, #0]
 8000710:	743b      	strb	r3, [r7, #16]
 8000712:	7c3b      	ldrb	r3, [r7, #16]
 8000714:	2b00      	cmp	r3, #0
 8000716:	d102      	bne.n	800071e <terminal_print_line+0x42>
 8000718:	f04f 0320 	mov.w	r3, #32
 800071c:	743b      	strb	r3, [r7, #16]
 800071e:	68fb      	ldr	r3, [r7, #12]
 8000720:	f8d3 30c8 	ldr.w	r3, [r3, #200]	; 0xc8
 8000724:	f107 0210 	add.w	r2, r7, #16
 8000728:	4610      	mov	r0, r2
 800072a:	4798      	blx	r3
 800072c:	697b      	ldr	r3, [r7, #20]
 800072e:	f103 0301 	add.w	r3, r3, #1
 8000732:	617b      	str	r3, [r7, #20]
 8000734:	68fb      	ldr	r3, [r7, #12]
 8000736:	f8d3 2098 	ldr.w	r2, [r3, #152]	; 0x98
 800073a:	697b      	ldr	r3, [r7, #20]
 800073c:	429a      	cmp	r2, r3
 800073e:	dce1      	bgt.n	8000704 <terminal_print_line+0x28>
 8000740:	68f8      	ldr	r0, [r7, #12]
 8000742:	f7ff ffad 	bl	80006a0 <terminal_reset_cursor>
 8000746:	68f8      	ldr	r0, [r7, #12]
 8000748:	6879      	ldr	r1, [r7, #4]
 800074a:	f7ff ff63 	bl	8000614 <terminal_move_cursor>
 800074e:	f107 0718 	add.w	r7, r7, #24
 8000752:	46bd      	mov	sp, r7
 8000754:	bd80      	pop	{r7, pc}
 8000756:	bf00      	nop
 8000758:	08006ae8 	.word	0x08006ae8

0800075c <microrl_init>:
 800075c:	b580      	push	{r7, lr}
 800075e:	b082      	sub	sp, #8
 8000760:	af00      	add	r7, sp, #0
 8000762:	6078      	str	r0, [r7, #4]
 8000764:	6039      	str	r1, [r7, #0]
 8000766:	687b      	ldr	r3, [r7, #4]
 8000768:	f103 0330 	add.w	r3, r3, #48	; 0x30
 800076c:	4618      	mov	r0, r3
 800076e:	f04f 0100 	mov.w	r1, #0
 8000772:	f04f 0265 	mov.w	r2, #101	; 0x65
 8000776:	f005 f96b 	bl	8005a50 <memset>
 800077a:	687b      	ldr	r3, [r7, #4]
 800077c:	4618      	mov	r0, r3
 800077e:	f04f 0100 	mov.w	r1, #0
 8000782:	f04f 0220 	mov.w	r2, #32
 8000786:	f005 f963 	bl	8005a50 <memset>
 800078a:	687b      	ldr	r3, [r7, #4]
 800078c:	f04f 0200 	mov.w	r2, #0
 8000790:	621a      	str	r2, [r3, #32]
 8000792:	687b      	ldr	r3, [r7, #4]
 8000794:	f04f 0200 	mov.w	r2, #0
 8000798:	625a      	str	r2, [r3, #36]	; 0x24
 800079a:	687b      	ldr	r3, [r7, #4]
 800079c:	f04f 0200 	mov.w	r2, #0
 80007a0:	629a      	str	r2, [r3, #40]	; 0x28
 80007a2:	687b      	ldr	r3, [r7, #4]
 80007a4:	f04f 0200 	mov.w	r2, #0
 80007a8:	f8c3 2098 	str.w	r2, [r3, #152]	; 0x98
 80007ac:	687b      	ldr	r3, [r7, #4]
 80007ae:	f04f 0200 	mov.w	r2, #0
 80007b2:	f8c3 209c 	str.w	r2, [r3, #156]	; 0x9c
 80007b6:	687b      	ldr	r3, [r7, #4]
 80007b8:	f04f 0200 	mov.w	r2, #0
 80007bc:	f8c3 20c0 	str.w	r2, [r3, #192]	; 0xc0
 80007c0:	687b      	ldr	r3, [r7, #4]
 80007c2:	f04f 0200 	mov.w	r2, #0
 80007c6:	f8c3 20c4 	str.w	r2, [r3, #196]	; 0xc4
 80007ca:	687b      	ldr	r3, [r7, #4]
 80007cc:	f04f 0200 	mov.w	r2, #0
 80007d0:	f8c3 20cc 	str.w	r2, [r3, #204]	; 0xcc
 80007d4:	4b05      	ldr	r3, [pc, #20]	; (80007ec <microrl_init+0x90>)
 80007d6:	681a      	ldr	r2, [r3, #0]
 80007d8:	687b      	ldr	r3, [r7, #4]
 80007da:	62da      	str	r2, [r3, #44]	; 0x2c
 80007dc:	687b      	ldr	r3, [r7, #4]
 80007de:	683a      	ldr	r2, [r7, #0]
 80007e0:	f8c3 20c8 	str.w	r2, [r3, #200]	; 0xc8
 80007e4:	f107 0708 	add.w	r7, r7, #8
 80007e8:	46bd      	mov	sp, r7
 80007ea:	bd80      	pop	{r7, pc}
 80007ec:	20000000 	.word	0x20000000

080007f0 <microrl_set_complite_callback>:
 80007f0:	b480      	push	{r7}
 80007f2:	b083      	sub	sp, #12
 80007f4:	af00      	add	r7, sp, #0
 80007f6:	6078      	str	r0, [r7, #4]
 80007f8:	6039      	str	r1, [r7, #0]
 80007fa:	687b      	ldr	r3, [r7, #4]
 80007fc:	683a      	ldr	r2, [r7, #0]
 80007fe:	f8c3 20c4 	str.w	r2, [r3, #196]	; 0xc4
 8000802:	f107 070c 	add.w	r7, r7, #12
 8000806:	46bd      	mov	sp, r7
 8000808:	bc80      	pop	{r7}
 800080a:	4770      	bx	lr

0800080c <microrl_set_execute_callback>:
 800080c:	b480      	push	{r7}
 800080e:	b083      	sub	sp, #12
 8000810:	af00      	add	r7, sp, #0
 8000812:	6078      	str	r0, [r7, #4]
 8000814:	6039      	str	r1, [r7, #0]
 8000816:	687b      	ldr	r3, [r7, #4]
 8000818:	683a      	ldr	r2, [r7, #0]
 800081a:	f8c3 20c0 	str.w	r2, [r3, #192]	; 0xc0
 800081e:	f107 070c 	add.w	r7, r7, #12
 8000822:	46bd      	mov	sp, r7
 8000824:	bc80      	pop	{r7}
 8000826:	4770      	bx	lr

08000828 <microrl_set_sigint_callback>:
 8000828:	b480      	push	{r7}
 800082a:	b083      	sub	sp, #12
 800082c:	af00      	add	r7, sp, #0
 800082e:	6078      	str	r0, [r7, #4]
 8000830:	6039      	str	r1, [r7, #0]
 8000832:	687b      	ldr	r3, [r7, #4]
 8000834:	683a      	ldr	r2, [r7, #0]
 8000836:	f8c3 20cc 	str.w	r2, [r3, #204]	; 0xcc
 800083a:	f107 070c 	add.w	r7, r7, #12
 800083e:	46bd      	mov	sp, r7
 8000840:	bc80      	pop	{r7}
 8000842:	4770      	bx	lr

08000844 <hist_search>:
 8000844:	b580      	push	{r7, lr}
 8000846:	b084      	sub	sp, #16
 8000848:	af00      	add	r7, sp, #0
 800084a:	6078      	str	r0, [r7, #4]
 800084c:	6039      	str	r1, [r7, #0]
 800084e:	687a      	ldr	r2, [r7, #4]
 8000850:	687b      	ldr	r3, [r7, #4]
 8000852:	f103 0330 	add.w	r3, r3, #48	; 0x30
 8000856:	4610      	mov	r0, r2
 8000858:	4619      	mov	r1, r3
 800085a:	683a      	ldr	r2, [r7, #0]
 800085c:	f7ff fd3a 	bl	80002d4 <hist_restore_line>
 8000860:	60f8      	str	r0, [r7, #12]
 8000862:	68fb      	ldr	r3, [r7, #12]
 8000864:	2b00      	cmp	r3, #0
 8000866:	d015      	beq.n	8000894 <hist_search+0x50>
 8000868:	687b      	ldr	r3, [r7, #4]
 800086a:	68fa      	ldr	r2, [r7, #12]
 800086c:	f8c3 2098 	str.w	r2, [r3, #152]	; 0x98
 8000870:	687b      	ldr	r3, [r7, #4]
 8000872:	f8d3 2098 	ldr.w	r2, [r3, #152]	; 0x98
 8000876:	687b      	ldr	r3, [r7, #4]
 8000878:	f8c3 209c 	str.w	r2, [r3, #156]	; 0x9c
 800087c:	6878      	ldr	r0, [r7, #4]
 800087e:	f7ff ff0f 	bl	80006a0 <terminal_reset_cursor>
 8000882:	687b      	ldr	r3, [r7, #4]
 8000884:	f8d3 309c 	ldr.w	r3, [r3, #156]	; 0x9c
 8000888:	6878      	ldr	r0, [r7, #4]
 800088a:	f04f 0100 	mov.w	r1, #0
 800088e:	461a      	mov	r2, r3
 8000890:	f7ff ff24 	bl	80006dc <terminal_print_line>
 8000894:	f107 0710 	add.w	r7, r7, #16
 8000898:	46bd      	mov	sp, r7
 800089a:	bd80      	pop	{r7, pc}

0800089c <escape_process>:
 800089c:	b580      	push	{r7, lr}
 800089e:	b082      	sub	sp, #8
 80008a0:	af00      	add	r7, sp, #0
 80008a2:	6078      	str	r0, [r7, #4]
 80008a4:	460b      	mov	r3, r1
 80008a6:	70fb      	strb	r3, [r7, #3]
 80008a8:	78fb      	ldrb	r3, [r7, #3]
 80008aa:	2b5b      	cmp	r3, #91	; 0x5b
 80008ac:	d104      	bne.n	80008b8 <escape_process+0x1c>
 80008ae:	4b4b      	ldr	r3, [pc, #300]	; (80009dc <escape_process+0x140>)
 80008b0:	f04f 0201 	mov.w	r2, #1
 80008b4:	601a      	str	r2, [r3, #0]
 80008b6:	e08a      	b.n	80009ce <escape_process+0x132>
 80008b8:	4b48      	ldr	r3, [pc, #288]	; (80009dc <escape_process+0x140>)
 80008ba:	681b      	ldr	r3, [r3, #0]
 80008bc:	2b01      	cmp	r3, #1
 80008be:	d15c      	bne.n	800097a <escape_process+0xde>
 80008c0:	78fb      	ldrb	r3, [r7, #3]
 80008c2:	2b41      	cmp	r3, #65	; 0x41
 80008c4:	d107      	bne.n	80008d6 <escape_process+0x3a>
 80008c6:	6878      	ldr	r0, [r7, #4]
 80008c8:	f04f 0100 	mov.w	r1, #0
 80008cc:	f7ff ffba 	bl	8000844 <hist_search>
 80008d0:	f04f 0301 	mov.w	r3, #1
 80008d4:	e07d      	b.n	80009d2 <escape_process+0x136>
 80008d6:	78fb      	ldrb	r3, [r7, #3]
 80008d8:	2b42      	cmp	r3, #66	; 0x42
 80008da:	d107      	bne.n	80008ec <escape_process+0x50>
 80008dc:	6878      	ldr	r0, [r7, #4]
 80008de:	f04f 0101 	mov.w	r1, #1
 80008e2:	f7ff ffaf 	bl	8000844 <hist_search>
 80008e6:	f04f 0301 	mov.w	r3, #1
 80008ea:	e072      	b.n	80009d2 <escape_process+0x136>
 80008ec:	78fb      	ldrb	r3, [r7, #3]
 80008ee:	2b43      	cmp	r3, #67	; 0x43
 80008f0:	d117      	bne.n	8000922 <escape_process+0x86>
 80008f2:	687b      	ldr	r3, [r7, #4]
 80008f4:	f8d3 209c 	ldr.w	r2, [r3, #156]	; 0x9c
 80008f8:	687b      	ldr	r3, [r7, #4]
 80008fa:	f8d3 3098 	ldr.w	r3, [r3, #152]	; 0x98
 80008fe:	429a      	cmp	r2, r3
 8000900:	da0c      	bge.n	800091c <escape_process+0x80>
 8000902:	6878      	ldr	r0, [r7, #4]
 8000904:	f04f 0101 	mov.w	r1, #1
 8000908:	f7ff fe84 	bl	8000614 <terminal_move_cursor>
 800090c:	687b      	ldr	r3, [r7, #4]
 800090e:	f8d3 309c 	ldr.w	r3, [r3, #156]	; 0x9c
 8000912:	f103 0201 	add.w	r2, r3, #1
 8000916:	687b      	ldr	r3, [r7, #4]
 8000918:	f8c3 209c 	str.w	r2, [r3, #156]	; 0x9c
 800091c:	f04f 0301 	mov.w	r3, #1
 8000920:	e057      	b.n	80009d2 <escape_process+0x136>
 8000922:	78fb      	ldrb	r3, [r7, #3]
 8000924:	2b44      	cmp	r3, #68	; 0x44
 8000926:	d114      	bne.n	8000952 <escape_process+0xb6>
 8000928:	687b      	ldr	r3, [r7, #4]
 800092a:	f8d3 309c 	ldr.w	r3, [r3, #156]	; 0x9c
 800092e:	2b00      	cmp	r3, #0
 8000930:	dd0c      	ble.n	800094c <escape_process+0xb0>
 8000932:	6878      	ldr	r0, [r7, #4]
 8000934:	f04f 31ff 	mov.w	r1, #4294967295
 8000938:	f7ff fe6c 	bl	8000614 <terminal_move_cursor>
 800093c:	687b      	ldr	r3, [r7, #4]
 800093e:	f8d3 309c 	ldr.w	r3, [r3, #156]	; 0x9c
 8000942:	f103 32ff 	add.w	r2, r3, #4294967295
 8000946:	687b      	ldr	r3, [r7, #4]
 8000948:	f8c3 209c 	str.w	r2, [r3, #156]	; 0x9c
 800094c:	f04f 0301 	mov.w	r3, #1
 8000950:	e03f      	b.n	80009d2 <escape_process+0x136>
 8000952:	78fb      	ldrb	r3, [r7, #3]
 8000954:	2b37      	cmp	r3, #55	; 0x37
 8000956:	d106      	bne.n	8000966 <escape_process+0xca>
 8000958:	4b20      	ldr	r3, [pc, #128]	; (80009dc <escape_process+0x140>)
 800095a:	f04f 0202 	mov.w	r2, #2
 800095e:	601a      	str	r2, [r3, #0]
 8000960:	f04f 0300 	mov.w	r3, #0
 8000964:	e035      	b.n	80009d2 <escape_process+0x136>
 8000966:	78fb      	ldrb	r3, [r7, #3]
 8000968:	2b38      	cmp	r3, #56	; 0x38
 800096a:	d130      	bne.n	80009ce <escape_process+0x132>
 800096c:	4b1b      	ldr	r3, [pc, #108]	; (80009dc <escape_process+0x140>)
 800096e:	f04f 0203 	mov.w	r2, #3
 8000972:	601a      	str	r2, [r3, #0]
 8000974:	f04f 0300 	mov.w	r3, #0
 8000978:	e02b      	b.n	80009d2 <escape_process+0x136>
 800097a:	78fb      	ldrb	r3, [r7, #3]
 800097c:	2b7e      	cmp	r3, #126	; 0x7e
 800097e:	d126      	bne.n	80009ce <escape_process+0x132>
 8000980:	4b16      	ldr	r3, [pc, #88]	; (80009dc <escape_process+0x140>)
 8000982:	681b      	ldr	r3, [r3, #0]
 8000984:	2b02      	cmp	r3, #2
 8000986:	d10a      	bne.n	800099e <escape_process+0x102>
 8000988:	6878      	ldr	r0, [r7, #4]
 800098a:	f7ff fe89 	bl	80006a0 <terminal_reset_cursor>
 800098e:	687b      	ldr	r3, [r7, #4]
 8000990:	f04f 0200 	mov.w	r2, #0
 8000994:	f8c3 209c 	str.w	r2, [r3, #156]	; 0x9c
 8000998:	f04f 0301 	mov.w	r3, #1
 800099c:	e019      	b.n	80009d2 <escape_process+0x136>
 800099e:	4b0f      	ldr	r3, [pc, #60]	; (80009dc <escape_process+0x140>)
 80009a0:	681b      	ldr	r3, [r3, #0]
 80009a2:	2b03      	cmp	r3, #3
 80009a4:	d113      	bne.n	80009ce <escape_process+0x132>
 80009a6:	687b      	ldr	r3, [r7, #4]
 80009a8:	f8d3 2098 	ldr.w	r2, [r3, #152]	; 0x98
 80009ac:	687b      	ldr	r3, [r7, #4]
 80009ae:	f8d3 309c 	ldr.w	r3, [r3, #156]	; 0x9c
 80009b2:	1ad3      	subs	r3, r2, r3
 80009b4:	6878      	ldr	r0, [r7, #4]
 80009b6:	4619      	mov	r1, r3
 80009b8:	f7ff fe2c 	bl	8000614 <terminal_move_cursor>
 80009bc:	687b      	ldr	r3, [r7, #4]
 80009be:	f8d3 2098 	ldr.w	r2, [r3, #152]	; 0x98
 80009c2:	687b      	ldr	r3, [r7, #4]
 80009c4:	f8c3 209c 	str.w	r2, [r3, #156]	; 0x9c
 80009c8:	f04f 0301 	mov.w	r3, #1
 80009cc:	e001      	b.n	80009d2 <escape_process+0x136>
 80009ce:	f04f 0300 	mov.w	r3, #0
 80009d2:	4618      	mov	r0, r3
 80009d4:	f107 0708 	add.w	r7, r7, #8
 80009d8:	46bd      	mov	sp, r7
 80009da:	bd80      	pop	{r7, pc}
 80009dc:	2000056c 	.word	0x2000056c

080009e0 <microrl_insert_text>:
 80009e0:	b580      	push	{r7, lr}
 80009e2:	b086      	sub	sp, #24
 80009e4:	af00      	add	r7, sp, #0
 80009e6:	60f8      	str	r0, [r7, #12]
 80009e8:	60b9      	str	r1, [r7, #8]
 80009ea:	607a      	str	r2, [r7, #4]
 80009ec:	68fb      	ldr	r3, [r7, #12]
 80009ee:	f8d3 2098 	ldr.w	r2, [r3, #152]	; 0x98
 80009f2:	687b      	ldr	r3, [r7, #4]
 80009f4:	18d3      	adds	r3, r2, r3
 80009f6:	2b64      	cmp	r3, #100	; 0x64
 80009f8:	dc67      	bgt.n	8000aca <microrl_insert_text+0xea>
 80009fa:	68fb      	ldr	r3, [r7, #12]
 80009fc:	f103 0230 	add.w	r2, r3, #48	; 0x30
 8000a00:	68fb      	ldr	r3, [r7, #12]
 8000a02:	f8d3 309c 	ldr.w	r3, [r3, #156]	; 0x9c
 8000a06:	4619      	mov	r1, r3
 8000a08:	687b      	ldr	r3, [r7, #4]
 8000a0a:	18cb      	adds	r3, r1, r3
 8000a0c:	18d1      	adds	r1, r2, r3
 8000a0e:	68fb      	ldr	r3, [r7, #12]
 8000a10:	f103 0230 	add.w	r2, r3, #48	; 0x30
 8000a14:	68fb      	ldr	r3, [r7, #12]
 8000a16:	f8d3 309c 	ldr.w	r3, [r3, #156]	; 0x9c
 8000a1a:	18d2      	adds	r2, r2, r3
 8000a1c:	68fb      	ldr	r3, [r7, #12]
 8000a1e:	f8d3 0098 	ldr.w	r0, [r3, #152]	; 0x98
 8000a22:	68fb      	ldr	r3, [r7, #12]
 8000a24:	f8d3 309c 	ldr.w	r3, [r3, #156]	; 0x9c
 8000a28:	1ac3      	subs	r3, r0, r3
 8000a2a:	4608      	mov	r0, r1
 8000a2c:	4611      	mov	r1, r2
 8000a2e:	461a      	mov	r2, r3
 8000a30:	f004 ffb4 	bl	800599c <memmove>
 8000a34:	f04f 0300 	mov.w	r3, #0
 8000a38:	617b      	str	r3, [r7, #20]
 8000a3a:	e026      	b.n	8000a8a <microrl_insert_text+0xaa>
 8000a3c:	68fb      	ldr	r3, [r7, #12]
 8000a3e:	f8d3 209c 	ldr.w	r2, [r3, #156]	; 0x9c
 8000a42:	697b      	ldr	r3, [r7, #20]
 8000a44:	18d3      	adds	r3, r2, r3
 8000a46:	697a      	ldr	r2, [r7, #20]
 8000a48:	68b9      	ldr	r1, [r7, #8]
 8000a4a:	188a      	adds	r2, r1, r2
 8000a4c:	7812      	ldrb	r2, [r2, #0]
 8000a4e:	68f9      	ldr	r1, [r7, #12]
 8000a50:	18cb      	adds	r3, r1, r3
 8000a52:	f883 2030 	strb.w	r2, [r3, #48]	; 0x30
 8000a56:	68fb      	ldr	r3, [r7, #12]
 8000a58:	f8d3 209c 	ldr.w	r2, [r3, #156]	; 0x9c
 8000a5c:	697b      	ldr	r3, [r7, #20]
 8000a5e:	18d3      	adds	r3, r2, r3
 8000a60:	68fa      	ldr	r2, [r7, #12]
 8000a62:	18d3      	adds	r3, r2, r3
 8000a64:	f893 3030 	ldrb.w	r3, [r3, #48]	; 0x30
 8000a68:	2b20      	cmp	r3, #32
 8000a6a:	d10a      	bne.n	8000a82 <microrl_insert_text+0xa2>
 8000a6c:	68fb      	ldr	r3, [r7, #12]
 8000a6e:	f8d3 209c 	ldr.w	r2, [r3, #156]	; 0x9c
 8000a72:	697b      	ldr	r3, [r7, #20]
 8000a74:	18d3      	adds	r3, r2, r3
 8000a76:	68fa      	ldr	r2, [r7, #12]
 8000a78:	18d3      	adds	r3, r2, r3
 8000a7a:	f04f 0200 	mov.w	r2, #0
 8000a7e:	f883 2030 	strb.w	r2, [r3, #48]	; 0x30
 8000a82:	697b      	ldr	r3, [r7, #20]
 8000a84:	f103 0301 	add.w	r3, r3, #1
 8000a88:	617b      	str	r3, [r7, #20]
 8000a8a:	697a      	ldr	r2, [r7, #20]
 8000a8c:	687b      	ldr	r3, [r7, #4]
 8000a8e:	429a      	cmp	r2, r3
 8000a90:	dbd4      	blt.n	8000a3c <microrl_insert_text+0x5c>
 8000a92:	68fb      	ldr	r3, [r7, #12]
 8000a94:	f8d3 209c 	ldr.w	r2, [r3, #156]	; 0x9c
 8000a98:	687b      	ldr	r3, [r7, #4]
 8000a9a:	18d2      	adds	r2, r2, r3
 8000a9c:	68fb      	ldr	r3, [r7, #12]
 8000a9e:	f8c3 209c 	str.w	r2, [r3, #156]	; 0x9c
 8000aa2:	68fb      	ldr	r3, [r7, #12]
 8000aa4:	f8d3 2098 	ldr.w	r2, [r3, #152]	; 0x98
 8000aa8:	687b      	ldr	r3, [r7, #4]
 8000aaa:	18d2      	adds	r2, r2, r3
 8000aac:	68fb      	ldr	r3, [r7, #12]
 8000aae:	f8c3 2098 	str.w	r2, [r3, #152]	; 0x98
 8000ab2:	68fb      	ldr	r3, [r7, #12]
 8000ab4:	f8d3 3098 	ldr.w	r3, [r3, #152]	; 0x98
 8000ab8:	68fa      	ldr	r2, [r7, #12]
 8000aba:	18d3      	adds	r3, r2, r3
 8000abc:	f04f 0200 	mov.w	r2, #0
 8000ac0:	f883 2030 	strb.w	r2, [r3, #48]	; 0x30
 8000ac4:	f04f 0301 	mov.w	r3, #1
 8000ac8:	e001      	b.n	8000ace <microrl_insert_text+0xee>
 8000aca:	f04f 0300 	mov.w	r3, #0
 8000ace:	4618      	mov	r0, r3
 8000ad0:	f107 0718 	add.w	r7, r7, #24
 8000ad4:	46bd      	mov	sp, r7
 8000ad6:	bd80      	pop	{r7, pc}

08000ad8 <microrl_backspace>:
 8000ad8:	b580      	push	{r7, lr}
 8000ada:	b082      	sub	sp, #8
 8000adc:	af00      	add	r7, sp, #0
 8000ade:	6078      	str	r0, [r7, #4]
 8000ae0:	687b      	ldr	r3, [r7, #4]
 8000ae2:	f8d3 309c 	ldr.w	r3, [r3, #156]	; 0x9c
 8000ae6:	2b00      	cmp	r3, #0
 8000ae8:	dd39      	ble.n	8000b5e <microrl_backspace+0x86>
 8000aea:	6878      	ldr	r0, [r7, #4]
 8000aec:	f7ff fd72 	bl	80005d4 <terminal_backspace>
 8000af0:	687b      	ldr	r3, [r7, #4]
 8000af2:	f103 0230 	add.w	r2, r3, #48	; 0x30
 8000af6:	687b      	ldr	r3, [r7, #4]
 8000af8:	f8d3 309c 	ldr.w	r3, [r3, #156]	; 0x9c
 8000afc:	f103 33ff 	add.w	r3, r3, #4294967295
 8000b00:	18d1      	adds	r1, r2, r3
 8000b02:	687b      	ldr	r3, [r7, #4]
 8000b04:	f103 0230 	add.w	r2, r3, #48	; 0x30
 8000b08:	687b      	ldr	r3, [r7, #4]
 8000b0a:	f8d3 309c 	ldr.w	r3, [r3, #156]	; 0x9c
 8000b0e:	18d2      	adds	r2, r2, r3
 8000b10:	687b      	ldr	r3, [r7, #4]
 8000b12:	f8d3 0098 	ldr.w	r0, [r3, #152]	; 0x98
 8000b16:	687b      	ldr	r3, [r7, #4]
 8000b18:	f8d3 309c 	ldr.w	r3, [r3, #156]	; 0x9c
 8000b1c:	1ac3      	subs	r3, r0, r3
 8000b1e:	f103 0301 	add.w	r3, r3, #1
 8000b22:	4608      	mov	r0, r1
 8000b24:	4611      	mov	r1, r2
 8000b26:	461a      	mov	r2, r3
 8000b28:	f004 ff38 	bl	800599c <memmove>
 8000b2c:	687b      	ldr	r3, [r7, #4]
 8000b2e:	f8d3 309c 	ldr.w	r3, [r3, #156]	; 0x9c
 8000b32:	f103 32ff 	add.w	r2, r3, #4294967295
 8000b36:	687b      	ldr	r3, [r7, #4]
 8000b38:	f8c3 209c 	str.w	r2, [r3, #156]	; 0x9c
 8000b3c:	687b      	ldr	r3, [r7, #4]
 8000b3e:	f8d3 3098 	ldr.w	r3, [r3, #152]	; 0x98
 8000b42:	687a      	ldr	r2, [r7, #4]
 8000b44:	18d3      	adds	r3, r2, r3
 8000b46:	f04f 0200 	mov.w	r2, #0
 8000b4a:	f883 2030 	strb.w	r2, [r3, #48]	; 0x30
 8000b4e:	687b      	ldr	r3, [r7, #4]
 8000b50:	f8d3 3098 	ldr.w	r3, [r3, #152]	; 0x98
 8000b54:	f103 32ff 	add.w	r2, r3, #4294967295
 8000b58:	687b      	ldr	r3, [r7, #4]
 8000b5a:	f8c3 2098 	str.w	r2, [r3, #152]	; 0x98
 8000b5e:	f107 0708 	add.w	r7, r7, #8
 8000b62:	46bd      	mov	sp, r7
 8000b64:	bd80      	pop	{r7, pc}
 8000b66:	bf00      	nop

08000b68 <common_len>:
 8000b68:	b480      	push	{r7}
 8000b6a:	b085      	sub	sp, #20
 8000b6c:	af00      	add	r7, sp, #0
 8000b6e:	6078      	str	r0, [r7, #4]
 8000b70:	f04f 0300 	mov.w	r3, #0
 8000b74:	60fb      	str	r3, [r7, #12]
 8000b76:	f04f 0301 	mov.w	r3, #1
 8000b7a:	60bb      	str	r3, [r7, #8]
 8000b7c:	e038      	b.n	8000bf0 <common_len+0x88>
 8000b7e:	68bb      	ldr	r3, [r7, #8]
 8000b80:	ea4f 0383 	mov.w	r3, r3, lsl #2
 8000b84:	687a      	ldr	r2, [r7, #4]
 8000b86:	18d3      	adds	r3, r2, r3
 8000b88:	681a      	ldr	r2, [r3, #0]
 8000b8a:	68fb      	ldr	r3, [r7, #12]
 8000b8c:	18d3      	adds	r3, r2, r3
 8000b8e:	781a      	ldrb	r2, [r3, #0]
 8000b90:	68bb      	ldr	r3, [r7, #8]
 8000b92:	f103 33ff 	add.w	r3, r3, #4294967295
 8000b96:	ea4f 0383 	mov.w	r3, r3, lsl #2
 8000b9a:	6879      	ldr	r1, [r7, #4]
 8000b9c:	18cb      	adds	r3, r1, r3
 8000b9e:	6819      	ldr	r1, [r3, #0]
 8000ba0:	68fb      	ldr	r3, [r7, #12]
 8000ba2:	18cb      	adds	r3, r1, r3
 8000ba4:	781b      	ldrb	r3, [r3, #0]
 8000ba6:	429a      	cmp	r2, r3
 8000ba8:	d117      	bne.n	8000bda <common_len+0x72>
 8000baa:	68bb      	ldr	r3, [r7, #8]
 8000bac:	ea4f 0383 	mov.w	r3, r3, lsl #2
 8000bb0:	687a      	ldr	r2, [r7, #4]
 8000bb2:	18d3      	adds	r3, r2, r3
 8000bb4:	681a      	ldr	r2, [r3, #0]
 8000bb6:	68fb      	ldr	r3, [r7, #12]
 8000bb8:	18d3      	adds	r3, r2, r3
 8000bba:	781b      	ldrb	r3, [r3, #0]
 8000bbc:	2b00      	cmp	r3, #0
 8000bbe:	d00c      	beq.n	8000bda <common_len+0x72>
 8000bc0:	68bb      	ldr	r3, [r7, #8]
 8000bc2:	f103 33ff 	add.w	r3, r3, #4294967295
 8000bc6:	ea4f 0383 	mov.w	r3, r3, lsl #2
 8000bca:	687a      	ldr	r2, [r7, #4]
 8000bcc:	18d3      	adds	r3, r2, r3
 8000bce:	681a      	ldr	r2, [r3, #0]
 8000bd0:	68fb      	ldr	r3, [r7, #12]
 8000bd2:	18d3      	adds	r3, r2, r3
 8000bd4:	781b      	ldrb	r3, [r3, #0]
 8000bd6:	2b00      	cmp	r3, #0
 8000bd8:	d106      	bne.n	8000be8 <common_len+0x80>
 8000bda:	68fb      	ldr	r3, [r7, #12]
 8000bdc:	4618      	mov	r0, r3
 8000bde:	f107 0714 	add.w	r7, r7, #20
 8000be2:	46bd      	mov	sp, r7
 8000be4:	bc80      	pop	{r7}
 8000be6:	4770      	bx	lr
 8000be8:	68fb      	ldr	r3, [r7, #12]
 8000bea:	f103 0301 	add.w	r3, r3, #1
 8000bee:	60fb      	str	r3, [r7, #12]
 8000bf0:	68bb      	ldr	r3, [r7, #8]
 8000bf2:	ea4f 0383 	mov.w	r3, r3, lsl #2
 8000bf6:	687a      	ldr	r2, [r7, #4]
 8000bf8:	18d3      	adds	r3, r2, r3
 8000bfa:	681b      	ldr	r3, [r3, #0]
 8000bfc:	2b00      	cmp	r3, #0
 8000bfe:	d1be      	bne.n	8000b7e <common_len+0x16>
 8000c00:	68bb      	ldr	r3, [r7, #8]
 8000c02:	f103 0301 	add.w	r3, r3, #1
 8000c06:	60bb      	str	r3, [r7, #8]
 8000c08:	bf00      	nop
 8000c0a:	e7f1      	b.n	8000bf0 <common_len+0x88>

08000c0c <microrl_get_complite>:
 8000c0c:	b5b0      	push	{r4, r5, r7, lr}
 8000c0e:	b086      	sub	sp, #24
 8000c10:	af00      	add	r7, sp, #0
 8000c12:	6078      	str	r0, [r7, #4]
 8000c14:	687b      	ldr	r3, [r7, #4]
 8000c16:	f8d3 30c4 	ldr.w	r3, [r3, #196]	; 0xc4
 8000c1a:	2b00      	cmp	r3, #0
 8000c1c:	f000 80a5 	beq.w	8000d6a <microrl_get_complite+0x15e>
 8000c20:	687b      	ldr	r3, [r7, #4]
 8000c22:	f8d3 309c 	ldr.w	r3, [r3, #156]	; 0x9c
 8000c26:	6878      	ldr	r0, [r7, #4]
 8000c28:	4619      	mov	r1, r3
 8000c2a:	f7ff fc6b 	bl	8000504 <split>
 8000c2e:	6178      	str	r0, [r7, #20]
 8000c30:	687b      	ldr	r3, [r7, #4]
 8000c32:	f8d3 309c 	ldr.w	r3, [r3, #156]	; 0x9c
 8000c36:	f103 33ff 	add.w	r3, r3, #4294967295
 8000c3a:	687a      	ldr	r2, [r7, #4]
 8000c3c:	18d3      	adds	r3, r2, r3
 8000c3e:	f893 3030 	ldrb.w	r3, [r3, #48]	; 0x30
 8000c42:	2b00      	cmp	r3, #0
 8000c44:	d10a      	bne.n	8000c5c <microrl_get_complite+0x50>
 8000c46:	687b      	ldr	r3, [r7, #4]
 8000c48:	697a      	ldr	r2, [r7, #20]
 8000c4a:	f102 0228 	add.w	r2, r2, #40	; 0x28
 8000c4e:	4949      	ldr	r1, [pc, #292]	; (8000d74 <microrl_get_complite+0x168>)
 8000c50:	f843 1022 	str.w	r1, [r3, r2, lsl #2]
 8000c54:	697b      	ldr	r3, [r7, #20]
 8000c56:	f103 0301 	add.w	r3, r3, #1
 8000c5a:	617b      	str	r3, [r7, #20]
 8000c5c:	687b      	ldr	r3, [r7, #4]
 8000c5e:	f8d3 30c4 	ldr.w	r3, [r3, #196]	; 0xc4
 8000c62:	687a      	ldr	r2, [r7, #4]
 8000c64:	f102 02a0 	add.w	r2, r2, #160	; 0xa0
 8000c68:	6978      	ldr	r0, [r7, #20]
 8000c6a:	4611      	mov	r1, r2
 8000c6c:	4798      	blx	r3
 8000c6e:	60b8      	str	r0, [r7, #8]
 8000c70:	68bb      	ldr	r3, [r7, #8]
 8000c72:	681b      	ldr	r3, [r3, #0]
 8000c74:	2b00      	cmp	r3, #0
 8000c76:	d079      	beq.n	8000d6c <microrl_get_complite+0x160>
 8000c78:	f04f 0300 	mov.w	r3, #0
 8000c7c:	613b      	str	r3, [r7, #16]
 8000c7e:	68bb      	ldr	r3, [r7, #8]
 8000c80:	f103 0304 	add.w	r3, r3, #4
 8000c84:	681b      	ldr	r3, [r3, #0]
 8000c86:	2b00      	cmp	r3, #0
 8000c88:	d107      	bne.n	8000c9a <microrl_get_complite+0x8e>
 8000c8a:	68bb      	ldr	r3, [r7, #8]
 8000c8c:	681b      	ldr	r3, [r3, #0]
 8000c8e:	4618      	mov	r0, r3
 8000c90:	f005 f83e 	bl	8005d10 <strlen>
 8000c94:	4603      	mov	r3, r0
 8000c96:	60fb      	str	r3, [r7, #12]
 8000c98:	e029      	b.n	8000cee <microrl_get_complite+0xe2>
 8000c9a:	68b8      	ldr	r0, [r7, #8]
 8000c9c:	f7ff ff64 	bl	8000b68 <common_len>
 8000ca0:	60f8      	str	r0, [r7, #12]
 8000ca2:	6878      	ldr	r0, [r7, #4]
 8000ca4:	f7ff fca6 	bl	80005f4 <terminal_newline>
 8000ca8:	e013      	b.n	8000cd2 <microrl_get_complite+0xc6>
 8000caa:	687b      	ldr	r3, [r7, #4]
 8000cac:	f8d3 30c8 	ldr.w	r3, [r3, #200]	; 0xc8
 8000cb0:	693a      	ldr	r2, [r7, #16]
 8000cb2:	ea4f 0282 	mov.w	r2, r2, lsl #2
 8000cb6:	68b9      	ldr	r1, [r7, #8]
 8000cb8:	188a      	adds	r2, r1, r2
 8000cba:	6812      	ldr	r2, [r2, #0]
 8000cbc:	4610      	mov	r0, r2
 8000cbe:	4798      	blx	r3
 8000cc0:	687b      	ldr	r3, [r7, #4]
 8000cc2:	f8d3 30c8 	ldr.w	r3, [r3, #200]	; 0xc8
 8000cc6:	482c      	ldr	r0, [pc, #176]	; (8000d78 <microrl_get_complite+0x16c>)
 8000cc8:	4798      	blx	r3
 8000cca:	693b      	ldr	r3, [r7, #16]
 8000ccc:	f103 0301 	add.w	r3, r3, #1
 8000cd0:	613b      	str	r3, [r7, #16]
 8000cd2:	693b      	ldr	r3, [r7, #16]
 8000cd4:	ea4f 0383 	mov.w	r3, r3, lsl #2
 8000cd8:	68ba      	ldr	r2, [r7, #8]
 8000cda:	18d3      	adds	r3, r2, r3
 8000cdc:	681b      	ldr	r3, [r3, #0]
 8000cde:	2b00      	cmp	r3, #0
 8000ce0:	d1e3      	bne.n	8000caa <microrl_get_complite+0x9e>
 8000ce2:	6878      	ldr	r0, [r7, #4]
 8000ce4:	f7ff fc86 	bl	80005f4 <terminal_newline>
 8000ce8:	6878      	ldr	r0, [r7, #4]
 8000cea:	f7ff fc63 	bl	80005b4 <print_prompt>
 8000cee:	68fb      	ldr	r3, [r7, #12]
 8000cf0:	2b00      	cmp	r3, #0
 8000cf2:	d02d      	beq.n	8000d50 <microrl_get_complite+0x144>
 8000cf4:	68bb      	ldr	r3, [r7, #8]
 8000cf6:	681c      	ldr	r4, [r3, #0]
 8000cf8:	697b      	ldr	r3, [r7, #20]
 8000cfa:	f103 32ff 	add.w	r2, r3, #4294967295
 8000cfe:	687b      	ldr	r3, [r7, #4]
 8000d00:	f102 0228 	add.w	r2, r2, #40	; 0x28
 8000d04:	f853 3022 	ldr.w	r3, [r3, r2, lsl #2]
 8000d08:	4618      	mov	r0, r3
 8000d0a:	f005 f801 	bl	8005d10 <strlen>
 8000d0e:	4603      	mov	r3, r0
 8000d10:	18e4      	adds	r4, r4, r3
 8000d12:	68fd      	ldr	r5, [r7, #12]
 8000d14:	697b      	ldr	r3, [r7, #20]
 8000d16:	f103 32ff 	add.w	r2, r3, #4294967295
 8000d1a:	687b      	ldr	r3, [r7, #4]
 8000d1c:	f102 0228 	add.w	r2, r2, #40	; 0x28
 8000d20:	f853 3022 	ldr.w	r3, [r3, r2, lsl #2]
 8000d24:	4618      	mov	r0, r3
 8000d26:	f004 fff3 	bl	8005d10 <strlen>
 8000d2a:	4603      	mov	r3, r0
 8000d2c:	1aeb      	subs	r3, r5, r3
 8000d2e:	6878      	ldr	r0, [r7, #4]
 8000d30:	4621      	mov	r1, r4
 8000d32:	461a      	mov	r2, r3
 8000d34:	f7ff fe54 	bl	80009e0 <microrl_insert_text>
 8000d38:	68bb      	ldr	r3, [r7, #8]
 8000d3a:	f103 0304 	add.w	r3, r3, #4
 8000d3e:	681b      	ldr	r3, [r3, #0]
 8000d40:	2b00      	cmp	r3, #0
 8000d42:	d105      	bne.n	8000d50 <microrl_get_complite+0x144>
 8000d44:	6878      	ldr	r0, [r7, #4]
 8000d46:	490c      	ldr	r1, [pc, #48]	; (8000d78 <microrl_get_complite+0x16c>)
 8000d48:	f04f 0201 	mov.w	r2, #1
 8000d4c:	f7ff fe48 	bl	80009e0 <microrl_insert_text>
 8000d50:	6878      	ldr	r0, [r7, #4]
 8000d52:	f7ff fca5 	bl	80006a0 <terminal_reset_cursor>
 8000d56:	687b      	ldr	r3, [r7, #4]
 8000d58:	f8d3 309c 	ldr.w	r3, [r3, #156]	; 0x9c
 8000d5c:	6878      	ldr	r0, [r7, #4]
 8000d5e:	f04f 0100 	mov.w	r1, #0
 8000d62:	461a      	mov	r2, r3
 8000d64:	f7ff fcba 	bl	80006dc <terminal_print_line>
 8000d68:	e000      	b.n	8000d6c <microrl_get_complite+0x160>
 8000d6a:	bf00      	nop
 8000d6c:	f107 0718 	add.w	r7, r7, #24
 8000d70:	46bd      	mov	sp, r7
 8000d72:	bdb0      	pop	{r4, r5, r7, pc}
 8000d74:	08006aec 	.word	0x08006aec
 8000d78:	08006af0 	.word	0x08006af0

08000d7c <microrl_insert_char>:
 8000d7c:	b580      	push	{r7, lr}
 8000d7e:	b084      	sub	sp, #16
 8000d80:	af00      	add	r7, sp, #0
 8000d82:	6078      	str	r0, [r7, #4]
 8000d84:	6039      	str	r1, [r7, #0]
 8000d86:	4bcb      	ldr	r3, [pc, #812]	; (80010b4 <microrl_insert_char+0x338>)
 8000d88:	681b      	ldr	r3, [r3, #0]
 8000d8a:	2b00      	cmp	r3, #0
 8000d8c:	d00e      	beq.n	8000dac <microrl_insert_char+0x30>
 8000d8e:	683b      	ldr	r3, [r7, #0]
 8000d90:	b2db      	uxtb	r3, r3
 8000d92:	6878      	ldr	r0, [r7, #4]
 8000d94:	4619      	mov	r1, r3
 8000d96:	f7ff fd81 	bl	800089c <escape_process>
 8000d9a:	4603      	mov	r3, r0
 8000d9c:	2b00      	cmp	r3, #0
 8000d9e:	f000 8221 	beq.w	80011e4 <microrl_insert_char+0x468>
 8000da2:	4bc4      	ldr	r3, [pc, #784]	; (80010b4 <microrl_insert_char+0x338>)
 8000da4:	f04f 0200 	mov.w	r2, #0
 8000da8:	601a      	str	r2, [r3, #0]
 8000daa:	e21b      	b.n	80011e4 <microrl_insert_char+0x468>
 8000dac:	683b      	ldr	r3, [r7, #0]
 8000dae:	f103 33ff 	add.w	r3, r3, #4294967295
 8000db2:	2b7e      	cmp	r3, #126	; 0x7e
 8000db4:	f200 81ed 	bhi.w	8001192 <microrl_insert_char+0x416>
 8000db8:	a201      	add	r2, pc, #4	; (adr r2, 8000dc0 <microrl_insert_char+0x44>)
 8000dba:	f852 f023 	ldr.w	pc, [r2, r3, lsl #2]
 8000dbe:	bf00      	nop
 8000dc0:	080010e5 	.word	0x080010e5
 8000dc4:	08001123 	.word	0x08001123
 8000dc8:	0800117f 	.word	0x0800117f
 8000dcc:	08001193 	.word	0x08001193
 8000dd0:	080010c1 	.word	0x080010c1
 8000dd4:	080010f7 	.word	0x080010f7
 8000dd8:	08001193 	.word	0x08001193
 8000ddc:	08001161 	.word	0x08001161
 8000de0:	08001061 	.word	0x08001061
 8000de4:	08000fbd 	.word	0x08000fbd
 8000de8:	0800109b 	.word	0x0800109b
 8000dec:	08001193 	.word	0x08001193
 8000df0:	08000fbd 	.word	0x08000fbd
 8000df4:	08001155 	.word	0x08001155
 8000df8:	08001193 	.word	0x08001193
 8000dfc:	08001149 	.word	0x08001149
 8000e00:	08001193 	.word	0x08001193
 8000e04:	08001193 	.word	0x08001193
 8000e08:	08001193 	.word	0x08001193
 8000e0c:	08001193 	.word	0x08001193
 8000e10:	0800107b 	.word	0x0800107b
 8000e14:	08001193 	.word	0x08001193
 8000e18:	08001193 	.word	0x08001193
 8000e1c:	08001193 	.word	0x08001193
 8000e20:	08001193 	.word	0x08001193
 8000e24:	08001193 	.word	0x08001193
 8000e28:	08001069 	.word	0x08001069
 8000e2c:	08001193 	.word	0x08001193
 8000e30:	08001193 	.word	0x08001193
 8000e34:	08001193 	.word	0x08001193
 8000e38:	08001193 	.word	0x08001193
 8000e3c:	08001193 	.word	0x08001193
 8000e40:	08001193 	.word	0x08001193
 8000e44:	08001193 	.word	0x08001193
 8000e48:	08001193 	.word	0x08001193
 8000e4c:	08001193 	.word	0x08001193
 8000e50:	08001193 	.word	0x08001193
 8000e54:	08001193 	.word	0x08001193
 8000e58:	08001193 	.word	0x08001193
 8000e5c:	08001193 	.word	0x08001193
 8000e60:	08001193 	.word	0x08001193
 8000e64:	08001193 	.word	0x08001193
 8000e68:	08001193 	.word	0x08001193
 8000e6c:	08001193 	.word	0x08001193
 8000e70:	08001193 	.word	0x08001193
 8000e74:	08001193 	.word	0x08001193
 8000e78:	08001193 	.word	0x08001193
 8000e7c:	08001193 	.word	0x08001193
 8000e80:	08001193 	.word	0x08001193
 8000e84:	08001193 	.word	0x08001193
 8000e88:	08001193 	.word	0x08001193
 8000e8c:	08001193 	.word	0x08001193
 8000e90:	08001193 	.word	0x08001193
 8000e94:	08001193 	.word	0x08001193
 8000e98:	08001193 	.word	0x08001193
 8000e9c:	08001193 	.word	0x08001193
 8000ea0:	08001193 	.word	0x08001193
 8000ea4:	08001193 	.word	0x08001193
 8000ea8:	08001193 	.word	0x08001193
 8000eac:	08001193 	.word	0x08001193
 8000eb0:	08001193 	.word	0x08001193
 8000eb4:	08001193 	.word	0x08001193
 8000eb8:	08001193 	.word	0x08001193
 8000ebc:	08001193 	.word	0x08001193
 8000ec0:	08001193 	.word	0x08001193
 8000ec4:	08001193 	.word	0x08001193
 8000ec8:	08001193 	.word	0x08001193
 8000ecc:	08001193 	.word	0x08001193
 8000ed0:	08001193 	.word	0x08001193
 8000ed4:	08001193 	.word	0x08001193
 8000ed8:	08001193 	.word	0x08001193
 8000edc:	08001193 	.word	0x08001193
 8000ee0:	08001193 	.word	0x08001193
 8000ee4:	08001193 	.word	0x08001193
 8000ee8:	08001193 	.word	0x08001193
 8000eec:	08001193 	.word	0x08001193
 8000ef0:	08001193 	.word	0x08001193
 8000ef4:	08001193 	.word	0x08001193
 8000ef8:	08001193 	.word	0x08001193
 8000efc:	08001193 	.word	0x08001193
 8000f00:	08001193 	.word	0x08001193
 8000f04:	08001193 	.word	0x08001193
 8000f08:	08001193 	.word	0x08001193
 8000f0c:	08001193 	.word	0x08001193
 8000f10:	08001193 	.word	0x08001193
 8000f14:	08001193 	.word	0x08001193
 8000f18:	08001193 	.word	0x08001193
 8000f1c:	08001193 	.word	0x08001193
 8000f20:	08001193 	.word	0x08001193
 8000f24:	08001193 	.word	0x08001193
 8000f28:	08001193 	.word	0x08001193
 8000f2c:	08001193 	.word	0x08001193
 8000f30:	08001193 	.word	0x08001193
 8000f34:	08001193 	.word	0x08001193
 8000f38:	08001193 	.word	0x08001193
 8000f3c:	08001193 	.word	0x08001193
 8000f40:	08001193 	.word	0x08001193
 8000f44:	08001193 	.word	0x08001193
 8000f48:	08001193 	.word	0x08001193
 8000f4c:	08001193 	.word	0x08001193
 8000f50:	08001193 	.word	0x08001193
 8000f54:	08001193 	.word	0x08001193
 8000f58:	08001193 	.word	0x08001193
 8000f5c:	08001193 	.word	0x08001193
 8000f60:	08001193 	.word	0x08001193
 8000f64:	08001193 	.word	0x08001193
 8000f68:	08001193 	.word	0x08001193
 8000f6c:	08001193 	.word	0x08001193
 8000f70:	08001193 	.word	0x08001193
 8000f74:	08001193 	.word	0x08001193
 8000f78:	08001193 	.word	0x08001193
 8000f7c:	08001193 	.word	0x08001193
 8000f80:	08001193 	.word	0x08001193
 8000f84:	08001193 	.word	0x08001193
 8000f88:	08001193 	.word	0x08001193
 8000f8c:	08001193 	.word	0x08001193
 8000f90:	08001193 	.word	0x08001193
 8000f94:	08001193 	.word	0x08001193
 8000f98:	08001193 	.word	0x08001193
 8000f9c:	08001193 	.word	0x08001193
 8000fa0:	08001193 	.word	0x08001193
 8000fa4:	08001193 	.word	0x08001193
 8000fa8:	08001193 	.word	0x08001193
 8000fac:	08001193 	.word	0x08001193
 8000fb0:	08001193 	.word	0x08001193
 8000fb4:	08001193 	.word	0x08001193
 8000fb8:	08001161 	.word	0x08001161
 8000fbc:	6878      	ldr	r0, [r7, #4]
 8000fbe:	f7ff fb19 	bl	80005f4 <terminal_newline>
 8000fc2:	687b      	ldr	r3, [r7, #4]
 8000fc4:	f8d3 3098 	ldr.w	r3, [r3, #152]	; 0x98
 8000fc8:	2b00      	cmp	r3, #0
 8000fca:	dd0b      	ble.n	8000fe4 <microrl_insert_char+0x268>
 8000fcc:	6879      	ldr	r1, [r7, #4]
 8000fce:	687b      	ldr	r3, [r7, #4]
 8000fd0:	f103 0230 	add.w	r2, r3, #48	; 0x30
 8000fd4:	687b      	ldr	r3, [r7, #4]
 8000fd6:	f8d3 3098 	ldr.w	r3, [r3, #152]	; 0x98
 8000fda:	4608      	mov	r0, r1
 8000fdc:	4611      	mov	r1, r2
 8000fde:	461a      	mov	r2, r3
 8000fe0:	f7ff f8fe 	bl	80001e0 <hist_save_line>
 8000fe4:	687b      	ldr	r3, [r7, #4]
 8000fe6:	f8d3 3098 	ldr.w	r3, [r3, #152]	; 0x98
 8000fea:	6878      	ldr	r0, [r7, #4]
 8000fec:	4619      	mov	r1, r3
 8000fee:	f7ff fa89 	bl	8000504 <split>
 8000ff2:	60f8      	str	r0, [r7, #12]
 8000ff4:	68fb      	ldr	r3, [r7, #12]
 8000ff6:	f1b3 3fff 	cmp.w	r3, #4294967295
 8000ffa:	d104      	bne.n	8001006 <microrl_insert_char+0x28a>
 8000ffc:	687b      	ldr	r3, [r7, #4]
 8000ffe:	f8d3 30c8 	ldr.w	r3, [r3, #200]	; 0xc8
 8001002:	482d      	ldr	r0, [pc, #180]	; (80010b8 <microrl_insert_char+0x33c>)
 8001004:	4798      	blx	r3
 8001006:	68fb      	ldr	r3, [r7, #12]
 8001008:	2b00      	cmp	r3, #0
 800100a:	dd0d      	ble.n	8001028 <microrl_insert_char+0x2ac>
 800100c:	687b      	ldr	r3, [r7, #4]
 800100e:	f8d3 30c0 	ldr.w	r3, [r3, #192]	; 0xc0
 8001012:	2b00      	cmp	r3, #0
 8001014:	d008      	beq.n	8001028 <microrl_insert_char+0x2ac>
 8001016:	687b      	ldr	r3, [r7, #4]
 8001018:	f8d3 30c0 	ldr.w	r3, [r3, #192]	; 0xc0
 800101c:	687a      	ldr	r2, [r7, #4]
 800101e:	f102 02a0 	add.w	r2, r2, #160	; 0xa0
 8001022:	68f8      	ldr	r0, [r7, #12]
 8001024:	4611      	mov	r1, r2
 8001026:	4798      	blx	r3
 8001028:	6878      	ldr	r0, [r7, #4]
 800102a:	f7ff fac3 	bl	80005b4 <print_prompt>
 800102e:	687b      	ldr	r3, [r7, #4]
 8001030:	f04f 0200 	mov.w	r2, #0
 8001034:	f8c3 2098 	str.w	r2, [r3, #152]	; 0x98
 8001038:	687b      	ldr	r3, [r7, #4]
 800103a:	f04f 0200 	mov.w	r2, #0
 800103e:	f8c3 209c 	str.w	r2, [r3, #156]	; 0x9c
 8001042:	687b      	ldr	r3, [r7, #4]
 8001044:	f103 0330 	add.w	r3, r3, #48	; 0x30
 8001048:	4618      	mov	r0, r3
 800104a:	f04f 0100 	mov.w	r1, #0
 800104e:	f04f 0265 	mov.w	r2, #101	; 0x65
 8001052:	f004 fcfd 	bl	8005a50 <memset>
 8001056:	687b      	ldr	r3, [r7, #4]
 8001058:	f04f 0200 	mov.w	r2, #0
 800105c:	629a      	str	r2, [r3, #40]	; 0x28
 800105e:	e0c1      	b.n	80011e4 <microrl_insert_char+0x468>
 8001060:	6878      	ldr	r0, [r7, #4]
 8001062:	f7ff fdd3 	bl	8000c0c <microrl_get_complite>
 8001066:	e0bd      	b.n	80011e4 <microrl_insert_char+0x468>
 8001068:	4b12      	ldr	r3, [pc, #72]	; (80010b4 <microrl_insert_char+0x338>)
 800106a:	f04f 0201 	mov.w	r2, #1
 800106e:	601a      	str	r2, [r3, #0]
 8001070:	e0b8      	b.n	80011e4 <microrl_insert_char+0x468>
 8001072:	6878      	ldr	r0, [r7, #4]
 8001074:	f7ff fd30 	bl	8000ad8 <microrl_backspace>
 8001078:	e000      	b.n	800107c <microrl_insert_char+0x300>
 800107a:	bf00      	nop
 800107c:	687b      	ldr	r3, [r7, #4]
 800107e:	f8d3 309c 	ldr.w	r3, [r3, #156]	; 0x9c
 8001082:	2b00      	cmp	r3, #0
 8001084:	dcf5      	bgt.n	8001072 <microrl_insert_char+0x2f6>
 8001086:	687b      	ldr	r3, [r7, #4]
 8001088:	f8d3 309c 	ldr.w	r3, [r3, #156]	; 0x9c
 800108c:	6878      	ldr	r0, [r7, #4]
 800108e:	f04f 0100 	mov.w	r1, #0
 8001092:	461a      	mov	r2, r3
 8001094:	f7ff fb22 	bl	80006dc <terminal_print_line>
 8001098:	e0a4      	b.n	80011e4 <microrl_insert_char+0x468>
 800109a:	687b      	ldr	r3, [r7, #4]
 800109c:	f8d3 30c8 	ldr.w	r3, [r3, #200]	; 0xc8
 80010a0:	4806      	ldr	r0, [pc, #24]	; (80010bc <microrl_insert_char+0x340>)
 80010a2:	4798      	blx	r3
 80010a4:	687b      	ldr	r3, [r7, #4]
 80010a6:	f8d3 209c 	ldr.w	r2, [r3, #156]	; 0x9c
 80010aa:	687b      	ldr	r3, [r7, #4]
 80010ac:	f8c3 2098 	str.w	r2, [r3, #152]	; 0x98
 80010b0:	e098      	b.n	80011e4 <microrl_insert_char+0x468>
 80010b2:	bf00      	nop
 80010b4:	20000568 	.word	0x20000568
 80010b8:	08006af4 	.word	0x08006af4
 80010bc:	08006ae8 	.word	0x08006ae8
 80010c0:	687b      	ldr	r3, [r7, #4]
 80010c2:	f8d3 2098 	ldr.w	r2, [r3, #152]	; 0x98
 80010c6:	687b      	ldr	r3, [r7, #4]
 80010c8:	f8d3 309c 	ldr.w	r3, [r3, #156]	; 0x9c
 80010cc:	1ad3      	subs	r3, r2, r3
 80010ce:	6878      	ldr	r0, [r7, #4]
 80010d0:	4619      	mov	r1, r3
 80010d2:	f7ff fa9f 	bl	8000614 <terminal_move_cursor>
 80010d6:	687b      	ldr	r3, [r7, #4]
 80010d8:	f8d3 2098 	ldr.w	r2, [r3, #152]	; 0x98
 80010dc:	687b      	ldr	r3, [r7, #4]
 80010de:	f8c3 209c 	str.w	r2, [r3, #156]	; 0x9c
 80010e2:	e07f      	b.n	80011e4 <microrl_insert_char+0x468>
 80010e4:	6878      	ldr	r0, [r7, #4]
 80010e6:	f7ff fadb 	bl	80006a0 <terminal_reset_cursor>
 80010ea:	687b      	ldr	r3, [r7, #4]
 80010ec:	f04f 0200 	mov.w	r2, #0
 80010f0:	f8c3 209c 	str.w	r2, [r3, #156]	; 0x9c
 80010f4:	e076      	b.n	80011e4 <microrl_insert_char+0x468>
 80010f6:	687b      	ldr	r3, [r7, #4]
 80010f8:	f8d3 209c 	ldr.w	r2, [r3, #156]	; 0x9c
 80010fc:	687b      	ldr	r3, [r7, #4]
 80010fe:	f8d3 3098 	ldr.w	r3, [r3, #152]	; 0x98
 8001102:	429a      	cmp	r2, r3
 8001104:	da65      	bge.n	80011d2 <microrl_insert_char+0x456>
 8001106:	6878      	ldr	r0, [r7, #4]
 8001108:	f04f 0101 	mov.w	r1, #1
 800110c:	f7ff fa82 	bl	8000614 <terminal_move_cursor>
 8001110:	687b      	ldr	r3, [r7, #4]
 8001112:	f8d3 309c 	ldr.w	r3, [r3, #156]	; 0x9c
 8001116:	f103 0201 	add.w	r2, r3, #1
 800111a:	687b      	ldr	r3, [r7, #4]
 800111c:	f8c3 209c 	str.w	r2, [r3, #156]	; 0x9c
 8001120:	e060      	b.n	80011e4 <microrl_insert_char+0x468>
 8001122:	687b      	ldr	r3, [r7, #4]
 8001124:	f8d3 309c 	ldr.w	r3, [r3, #156]	; 0x9c
 8001128:	2b00      	cmp	r3, #0
 800112a:	d054      	beq.n	80011d6 <microrl_insert_char+0x45a>
 800112c:	6878      	ldr	r0, [r7, #4]
 800112e:	f04f 31ff 	mov.w	r1, #4294967295
 8001132:	f7ff fa6f 	bl	8000614 <terminal_move_cursor>
 8001136:	687b      	ldr	r3, [r7, #4]
 8001138:	f8d3 309c 	ldr.w	r3, [r3, #156]	; 0x9c
 800113c:	f103 32ff 	add.w	r2, r3, #4294967295
 8001140:	687b      	ldr	r3, [r7, #4]
 8001142:	f8c3 209c 	str.w	r2, [r3, #156]	; 0x9c
 8001146:	e04d      	b.n	80011e4 <microrl_insert_char+0x468>
 8001148:	6878      	ldr	r0, [r7, #4]
 800114a:	f04f 0100 	mov.w	r1, #0
 800114e:	f7ff fb79 	bl	8000844 <hist_search>
 8001152:	e047      	b.n	80011e4 <microrl_insert_char+0x468>
 8001154:	6878      	ldr	r0, [r7, #4]
 8001156:	f04f 0101 	mov.w	r1, #1
 800115a:	f7ff fb73 	bl	8000844 <hist_search>
 800115e:	e041      	b.n	80011e4 <microrl_insert_char+0x468>
 8001160:	6878      	ldr	r0, [r7, #4]
 8001162:	f7ff fcb9 	bl	8000ad8 <microrl_backspace>
 8001166:	687b      	ldr	r3, [r7, #4]
 8001168:	f8d3 209c 	ldr.w	r2, [r3, #156]	; 0x9c
 800116c:	687b      	ldr	r3, [r7, #4]
 800116e:	f8d3 309c 	ldr.w	r3, [r3, #156]	; 0x9c
 8001172:	6878      	ldr	r0, [r7, #4]
 8001174:	4611      	mov	r1, r2
 8001176:	461a      	mov	r2, r3
 8001178:	f7ff fab0 	bl	80006dc <terminal_print_line>
 800117c:	e032      	b.n	80011e4 <microrl_insert_char+0x468>
 800117e:	687b      	ldr	r3, [r7, #4]
 8001180:	f8d3 30cc 	ldr.w	r3, [r3, #204]	; 0xcc
 8001184:	2b00      	cmp	r3, #0
 8001186:	d028      	beq.n	80011da <microrl_insert_char+0x45e>
 8001188:	687b      	ldr	r3, [r7, #4]
 800118a:	f8d3 30cc 	ldr.w	r3, [r3, #204]	; 0xcc
 800118e:	4798      	blx	r3
 8001190:	e028      	b.n	80011e4 <microrl_insert_char+0x468>
 8001192:	683b      	ldr	r3, [r7, #0]
 8001194:	2b20      	cmp	r3, #32
 8001196:	d104      	bne.n	80011a2 <microrl_insert_char+0x426>
 8001198:	687b      	ldr	r3, [r7, #4]
 800119a:	f8d3 3098 	ldr.w	r3, [r3, #152]	; 0x98
 800119e:	2b00      	cmp	r3, #0
 80011a0:	d01d      	beq.n	80011de <microrl_insert_char+0x462>
 80011a2:	463b      	mov	r3, r7
 80011a4:	6878      	ldr	r0, [r7, #4]
 80011a6:	4619      	mov	r1, r3
 80011a8:	f04f 0201 	mov.w	r2, #1
 80011ac:	f7ff fc18 	bl	80009e0 <microrl_insert_text>
 80011b0:	4603      	mov	r3, r0
 80011b2:	2b00      	cmp	r3, #0
 80011b4:	d015      	beq.n	80011e2 <microrl_insert_char+0x466>
 80011b6:	687b      	ldr	r3, [r7, #4]
 80011b8:	f8d3 309c 	ldr.w	r3, [r3, #156]	; 0x9c
 80011bc:	f103 32ff 	add.w	r2, r3, #4294967295
 80011c0:	687b      	ldr	r3, [r7, #4]
 80011c2:	f8d3 309c 	ldr.w	r3, [r3, #156]	; 0x9c
 80011c6:	6878      	ldr	r0, [r7, #4]
 80011c8:	4611      	mov	r1, r2
 80011ca:	461a      	mov	r2, r3
 80011cc:	f7ff fa86 	bl	80006dc <terminal_print_line>
 80011d0:	e008      	b.n	80011e4 <microrl_insert_char+0x468>
 80011d2:	bf00      	nop
 80011d4:	e006      	b.n	80011e4 <microrl_insert_char+0x468>
 80011d6:	bf00      	nop
 80011d8:	e004      	b.n	80011e4 <microrl_insert_char+0x468>
 80011da:	bf00      	nop
 80011dc:	e002      	b.n	80011e4 <microrl_insert_char+0x468>
 80011de:	bf00      	nop
 80011e0:	e000      	b.n	80011e4 <microrl_insert_char+0x468>
 80011e2:	bf00      	nop
 80011e4:	f107 0710 	add.w	r7, r7, #16
 80011e8:	46bd      	mov	sp, r7
 80011ea:	bd80      	pop	{r7, pc}

080011ec <__CLREX>:
 80011ec:	b480      	push	{r7}
 80011ee:	af00      	add	r7, sp, #0
 80011f0:	f3bf 8f2f 	clrex
 80011f4:	46bd      	mov	sp, r7
 80011f6:	bc80      	pop	{r7}
 80011f8:	4770      	bx	lr
 80011fa:	bf00      	nop

080011fc <NVIC_EnableIRQ>:
 80011fc:	b480      	push	{r7}
 80011fe:	b083      	sub	sp, #12
 8001200:	af00      	add	r7, sp, #0
 8001202:	4603      	mov	r3, r0
 8001204:	71fb      	strb	r3, [r7, #7]
 8001206:	4b09      	ldr	r3, [pc, #36]	; (800122c <NVIC_EnableIRQ+0x30>)
 8001208:	f997 2007 	ldrsb.w	r2, [r7, #7]
 800120c:	ea4f 1252 	mov.w	r2, r2, lsr #5
 8001210:	79f9      	ldrb	r1, [r7, #7]
 8001212:	f001 011f 	and.w	r1, r1, #31
 8001216:	f04f 0001 	mov.w	r0, #1
 800121a:	fa00 f101 	lsl.w	r1, r0, r1
 800121e:	f843 1022 	str.w	r1, [r3, r2, lsl #2]
 8001222:	f107 070c 	add.w	r7, r7, #12
 8001226:	46bd      	mov	sp, r7
 8001228:	bc80      	pop	{r7}
 800122a:	4770      	bx	lr
 800122c:	e000e100 	.word	0xe000e100

08001230 <NVIC_SetPriority>:
 8001230:	b480      	push	{r7}
 8001232:	b083      	sub	sp, #12
 8001234:	af00      	add	r7, sp, #0
 8001236:	4603      	mov	r3, r0
 8001238:	6039      	str	r1, [r7, #0]
 800123a:	71fb      	strb	r3, [r7, #7]
 800123c:	f997 3007 	ldrsb.w	r3, [r7, #7]
 8001240:	2b00      	cmp	r3, #0
 8001242:	da0d      	bge.n	8001260 <NVIC_SetPriority+0x30>
 8001244:	490e      	ldr	r1, [pc, #56]	; (8001280 <NVIC_SetPriority+0x50>)
 8001246:	79fb      	ldrb	r3, [r7, #7]
 8001248:	f003 030f 	and.w	r3, r3, #15
 800124c:	f1a3 0304 	sub.w	r3, r3, #4
 8001250:	683a      	ldr	r2, [r7, #0]
 8001252:	b2d2      	uxtb	r2, r2
 8001254:	ea4f 1202 	mov.w	r2, r2, lsl #4
 8001258:	b2d2      	uxtb	r2, r2
 800125a:	18cb      	adds	r3, r1, r3
 800125c:	761a      	strb	r2, [r3, #24]
 800125e:	e00a      	b.n	8001276 <NVIC_SetPriority+0x46>
 8001260:	4908      	ldr	r1, [pc, #32]	; (8001284 <NVIC_SetPriority+0x54>)
 8001262:	f997 3007 	ldrsb.w	r3, [r7, #7]
 8001266:	683a      	ldr	r2, [r7, #0]
 8001268:	b2d2      	uxtb	r2, r2
 800126a:	ea4f 1202 	mov.w	r2, r2, lsl #4
 800126e:	b2d2      	uxtb	r2, r2
 8001270:	18cb      	adds	r3, r1, r3
 8001272:	f883 2300 	strb.w	r2, [r3, #768]	; 0x300
 8001276:	f107 070c 	add.w	r7, r7, #12
 800127a:	46bd      	mov	sp, r7
 800127c:	bc80      	pop	{r7}
 800127e:	4770      	bx	lr
 8001280:	e000ed00 	.word	0xe000ed00
 8001284:	e000e100 	.word	0xe000e100

08001288 <InitPlcTimers>:
 8001288:	b580      	push	{r7, lr}
 800128a:	b084      	sub	sp, #16
 800128c:	af00      	add	r7, sp, #0
 800128e:	4b1e      	ldr	r3, [pc, #120]	; (8001308 <InitPlcTimers+0x80>)
 8001290:	681a      	ldr	r2, [r3, #0]
 8001292:	4b1e      	ldr	r3, [pc, #120]	; (800130c <InitPlcTimers+0x84>)
 8001294:	fba3 1302 	umull	r1, r3, r3, r2
 8001298:	ea4f 4393 	mov.w	r3, r3, lsr #18
 800129c:	b29b      	uxth	r3, r3
 800129e:	f103 33ff 	add.w	r3, r3, #4294967295
 80012a2:	81fb      	strh	r3, [r7, #14]
 80012a4:	f04f 0010 	mov.w	r0, #16
 80012a8:	f04f 0101 	mov.w	r1, #1
 80012ac:	f002 fa6a 	bl	8003784 <RCC_APB1PeriphClockCmd>
 80012b0:	f04f 0364 	mov.w	r3, #100	; 0x64
 80012b4:	813b      	strh	r3, [r7, #8]
 80012b6:	89fb      	ldrh	r3, [r7, #14]
 80012b8:	80bb      	strh	r3, [r7, #4]
 80012ba:	f04f 0300 	mov.w	r3, #0
 80012be:	817b      	strh	r3, [r7, #10]
 80012c0:	f04f 0300 	mov.w	r3, #0
 80012c4:	80fb      	strh	r3, [r7, #6]
 80012c6:	f107 0304 	add.w	r3, r7, #4
 80012ca:	4811      	ldr	r0, [pc, #68]	; (8001310 <InitPlcTimers+0x88>)
 80012cc:	4619      	mov	r1, r3
 80012ce:	f000 f8c5 	bl	800145c <TIM_TimeBaseInit>
 80012d2:	480f      	ldr	r0, [pc, #60]	; (8001310 <InitPlcTimers+0x88>)
 80012d4:	f04f 0101 	mov.w	r1, #1
 80012d8:	f04f 0201 	mov.w	r2, #1
 80012dc:	f000 f9c0 	bl	8001660 <TIM_ITConfig>
 80012e0:	f04f 0036 	mov.w	r0, #54	; 0x36
 80012e4:	f7ff ff8a 	bl	80011fc <NVIC_EnableIRQ>
 80012e8:	f04f 0036 	mov.w	r0, #54	; 0x36
 80012ec:	f04f 0108 	mov.w	r1, #8
 80012f0:	f7ff ff9e 	bl	8001230 <NVIC_SetPriority>
 80012f4:	4806      	ldr	r0, [pc, #24]	; (8001310 <InitPlcTimers+0x88>)
 80012f6:	f04f 0101 	mov.w	r1, #1
 80012fa:	f000 f991 	bl	8001620 <TIM_Cmd>
 80012fe:	f107 0710 	add.w	r7, r7, #16
 8001302:	46bd      	mov	sp, r7
 8001304:	bd80      	pop	{r7, pc}
 8001306:	bf00      	nop
 8001308:	20000004 	.word	0x20000004
 800130c:	431bde83 	.word	0x431bde83
 8001310:	40001000 	.word	0x40001000

08001314 <IsTimeout>:
 8001314:	b580      	push	{r7, lr}
 8001316:	b082      	sub	sp, #8
 8001318:	af00      	add	r7, sp, #0
 800131a:	4603      	mov	r3, r0
 800131c:	71fb      	strb	r3, [r7, #7]
 800131e:	79fb      	ldrb	r3, [r7, #7]
 8001320:	4618      	mov	r0, r3
 8001322:	f04f 0100 	mov.w	r1, #0
 8001326:	f000 f807 	bl	8001338 <IsTimeoutEx>
 800132a:	4603      	mov	r3, r0
 800132c:	4618      	mov	r0, r3
 800132e:	f107 0708 	add.w	r7, r7, #8
 8001332:	46bd      	mov	sp, r7
 8001334:	bd80      	pop	{r7, pc}
 8001336:	bf00      	nop

08001338 <IsTimeoutEx>:
 8001338:	b580      	push	{r7, lr}
 800133a:	b084      	sub	sp, #16
 800133c:	af00      	add	r7, sp, #0
 800133e:	4603      	mov	r3, r0
 8001340:	6039      	str	r1, [r7, #0]
 8001342:	71fb      	strb	r3, [r7, #7]
 8001344:	f04f 0300 	mov.w	r3, #0
 8001348:	73fb      	strb	r3, [r7, #15]
 800134a:	79fb      	ldrb	r3, [r7, #7]
 800134c:	2b04      	cmp	r3, #4
 800134e:	d901      	bls.n	8001354 <IsTimeoutEx+0x1c>
 8001350:	7bfb      	ldrb	r3, [r7, #15]
 8001352:	e021      	b.n	8001398 <IsTimeoutEx+0x60>
 8001354:	79fb      	ldrb	r3, [r7, #7]
 8001356:	ea4f 0283 	mov.w	r2, r3, lsl #2
 800135a:	4b12      	ldr	r3, [pc, #72]	; (80013a4 <IsTimeoutEx+0x6c>)
 800135c:	18d3      	adds	r3, r2, r3
 800135e:	4618      	mov	r0, r3
 8001360:	f000 fb96 	bl	8001a90 <__LDREXW>
 8001364:	60b8      	str	r0, [r7, #8]
 8001366:	68bb      	ldr	r3, [r7, #8]
 8001368:	2b00      	cmp	r3, #0
 800136a:	d10f      	bne.n	800138c <IsTimeoutEx+0x54>
 800136c:	f04f 0301 	mov.w	r3, #1
 8001370:	73fb      	strb	r3, [r7, #15]
 8001372:	79fb      	ldrb	r3, [r7, #7]
 8001374:	ea4f 0283 	mov.w	r2, r3, lsl #2
 8001378:	4b0a      	ldr	r3, [pc, #40]	; (80013a4 <IsTimeoutEx+0x6c>)
 800137a:	18d3      	adds	r3, r2, r3
 800137c:	6838      	ldr	r0, [r7, #0]
 800137e:	4619      	mov	r1, r3
 8001380:	f000 fb98 	bl	8001ab4 <__STREXW>
 8001384:	4603      	mov	r3, r0
 8001386:	2b00      	cmp	r3, #0
 8001388:	d1e4      	bne.n	8001354 <IsTimeoutEx+0x1c>
 800138a:	e004      	b.n	8001396 <IsTimeoutEx+0x5e>
 800138c:	f7ff ff2e 	bl	80011ec <__CLREX>
 8001390:	f04f 0300 	mov.w	r3, #0
 8001394:	e000      	b.n	8001398 <IsTimeoutEx+0x60>
 8001396:	7bfb      	ldrb	r3, [r7, #15]
 8001398:	4618      	mov	r0, r3
 800139a:	f107 0710 	add.w	r7, r7, #16
 800139e:	46bd      	mov	sp, r7
 80013a0:	bd80      	pop	{r7, pc}
 80013a2:	bf00      	nop
 80013a4:	20000570 	.word	0x20000570

080013a8 <SetTimerValue>:
 80013a8:	b580      	push	{r7, lr}
 80013aa:	b082      	sub	sp, #8
 80013ac:	af00      	add	r7, sp, #0
 80013ae:	4603      	mov	r3, r0
 80013b0:	6039      	str	r1, [r7, #0]
 80013b2:	71fb      	strb	r3, [r7, #7]
 80013b4:	79fb      	ldrb	r3, [r7, #7]
 80013b6:	2b04      	cmp	r3, #4
 80013b8:	d814      	bhi.n	80013e4 <SetTimerValue+0x3c>
 80013ba:	79fb      	ldrb	r3, [r7, #7]
 80013bc:	ea4f 0283 	mov.w	r2, r3, lsl #2
 80013c0:	4b0b      	ldr	r3, [pc, #44]	; (80013f0 <SetTimerValue+0x48>)
 80013c2:	18d3      	adds	r3, r2, r3
 80013c4:	4618      	mov	r0, r3
 80013c6:	f000 fb63 	bl	8001a90 <__LDREXW>
 80013ca:	79fb      	ldrb	r3, [r7, #7]
 80013cc:	ea4f 0283 	mov.w	r2, r3, lsl #2
 80013d0:	4b07      	ldr	r3, [pc, #28]	; (80013f0 <SetTimerValue+0x48>)
 80013d2:	18d3      	adds	r3, r2, r3
 80013d4:	6838      	ldr	r0, [r7, #0]
 80013d6:	4619      	mov	r1, r3
 80013d8:	f000 fb6c 	bl	8001ab4 <__STREXW>
 80013dc:	4603      	mov	r3, r0
 80013de:	2b00      	cmp	r3, #0
 80013e0:	d1eb      	bne.n	80013ba <SetTimerValue+0x12>
 80013e2:	e000      	b.n	80013e6 <SetTimerValue+0x3e>
 80013e4:	bf00      	nop
 80013e6:	f107 0708 	add.w	r7, r7, #8
 80013ea:	46bd      	mov	sp, r7
 80013ec:	bd80      	pop	{r7, pc}
 80013ee:	bf00      	nop
 80013f0:	20000570 	.word	0x20000570

080013f4 <TIM6_IRQHandler>:
 80013f4:	b580      	push	{r7, lr}
 80013f6:	b082      	sub	sp, #8
 80013f8:	af00      	add	r7, sp, #0
 80013fa:	4816      	ldr	r0, [pc, #88]	; (8001454 <TIM6_IRQHandler+0x60>)
 80013fc:	f04f 0101 	mov.w	r1, #1
 8001400:	f000 fa10 	bl	8001824 <TIM_GetITStatus>
 8001404:	4603      	mov	r3, r0
 8001406:	2b00      	cmp	r3, #0
 8001408:	d01f      	beq.n	800144a <TIM6_IRQHandler+0x56>
 800140a:	4812      	ldr	r0, [pc, #72]	; (8001454 <TIM6_IRQHandler+0x60>)
 800140c:	f04f 0101 	mov.w	r1, #1
 8001410:	f000 fa3a 	bl	8001888 <TIM_ClearITPendingBit>
 8001414:	f04f 0300 	mov.w	r3, #0
 8001418:	607b      	str	r3, [r7, #4]
 800141a:	e013      	b.n	8001444 <TIM6_IRQHandler+0x50>
 800141c:	4b0e      	ldr	r3, [pc, #56]	; (8001458 <TIM6_IRQHandler+0x64>)
 800141e:	687a      	ldr	r2, [r7, #4]
 8001420:	f853 3022 	ldr.w	r3, [r3, r2, lsl #2]
 8001424:	2b00      	cmp	r3, #0
 8001426:	d009      	beq.n	800143c <TIM6_IRQHandler+0x48>
 8001428:	4b0b      	ldr	r3, [pc, #44]	; (8001458 <TIM6_IRQHandler+0x64>)
 800142a:	687a      	ldr	r2, [r7, #4]
 800142c:	f853 3022 	ldr.w	r3, [r3, r2, lsl #2]
 8001430:	f103 31ff 	add.w	r1, r3, #4294967295
 8001434:	4b08      	ldr	r3, [pc, #32]	; (8001458 <TIM6_IRQHandler+0x64>)
 8001436:	687a      	ldr	r2, [r7, #4]
 8001438:	f843 1022 	str.w	r1, [r3, r2, lsl #2]
 800143c:	687b      	ldr	r3, [r7, #4]
 800143e:	f103 0301 	add.w	r3, r3, #1
 8001442:	607b      	str	r3, [r7, #4]
 8001444:	687b      	ldr	r3, [r7, #4]
 8001446:	2b04      	cmp	r3, #4
 8001448:	d9e8      	bls.n	800141c <TIM6_IRQHandler+0x28>
 800144a:	f107 0708 	add.w	r7, r7, #8
 800144e:	46bd      	mov	sp, r7
 8001450:	bd80      	pop	{r7, pc}
 8001452:	bf00      	nop
 8001454:	40001000 	.word	0x40001000
 8001458:	20000570 	.word	0x20000570

0800145c <TIM_TimeBaseInit>:
 800145c:	b480      	push	{r7}
 800145e:	b085      	sub	sp, #20
 8001460:	af00      	add	r7, sp, #0
 8001462:	6078      	str	r0, [r7, #4]
 8001464:	6039      	str	r1, [r7, #0]
 8001466:	f04f 0300 	mov.w	r3, #0
 800146a:	81fb      	strh	r3, [r7, #14]
 800146c:	687b      	ldr	r3, [r7, #4]
 800146e:	881b      	ldrh	r3, [r3, #0]
 8001470:	81fb      	strh	r3, [r7, #14]
 8001472:	687a      	ldr	r2, [r7, #4]
 8001474:	4b2f      	ldr	r3, [pc, #188]	; (8001534 <TIM_TimeBaseInit+0xd8>)
 8001476:	429a      	cmp	r2, r3
 8001478:	d013      	beq.n	80014a2 <TIM_TimeBaseInit+0x46>
 800147a:	687a      	ldr	r2, [r7, #4]
 800147c:	4b2e      	ldr	r3, [pc, #184]	; (8001538 <TIM_TimeBaseInit+0xdc>)
 800147e:	429a      	cmp	r2, r3
 8001480:	d00f      	beq.n	80014a2 <TIM_TimeBaseInit+0x46>
 8001482:	687b      	ldr	r3, [r7, #4]
 8001484:	f1b3 4f80 	cmp.w	r3, #1073741824	; 0x40000000
 8001488:	d00b      	beq.n	80014a2 <TIM_TimeBaseInit+0x46>
 800148a:	687a      	ldr	r2, [r7, #4]
 800148c:	4b2b      	ldr	r3, [pc, #172]	; (800153c <TIM_TimeBaseInit+0xe0>)
 800148e:	429a      	cmp	r2, r3
 8001490:	d007      	beq.n	80014a2 <TIM_TimeBaseInit+0x46>
 8001492:	687a      	ldr	r2, [r7, #4]
 8001494:	4b2a      	ldr	r3, [pc, #168]	; (8001540 <TIM_TimeBaseInit+0xe4>)
 8001496:	429a      	cmp	r2, r3
 8001498:	d003      	beq.n	80014a2 <TIM_TimeBaseInit+0x46>
 800149a:	687a      	ldr	r2, [r7, #4]
 800149c:	4b29      	ldr	r3, [pc, #164]	; (8001544 <TIM_TimeBaseInit+0xe8>)
 800149e:	429a      	cmp	r2, r3
 80014a0:	d109      	bne.n	80014b6 <TIM_TimeBaseInit+0x5a>
 80014a2:	89fb      	ldrh	r3, [r7, #14]
 80014a4:	f023 0370 	bic.w	r3, r3, #112	; 0x70
 80014a8:	81fb      	strh	r3, [r7, #14]
 80014aa:	683b      	ldr	r3, [r7, #0]
 80014ac:	885a      	ldrh	r2, [r3, #2]
 80014ae:	89fb      	ldrh	r3, [r7, #14]
 80014b0:	ea42 0303 	orr.w	r3, r2, r3
 80014b4:	81fb      	strh	r3, [r7, #14]
 80014b6:	687a      	ldr	r2, [r7, #4]
 80014b8:	4b23      	ldr	r3, [pc, #140]	; (8001548 <TIM_TimeBaseInit+0xec>)
 80014ba:	429a      	cmp	r2, r3
 80014bc:	d00d      	beq.n	80014da <TIM_TimeBaseInit+0x7e>
 80014be:	687a      	ldr	r2, [r7, #4]
 80014c0:	4b22      	ldr	r3, [pc, #136]	; (800154c <TIM_TimeBaseInit+0xf0>)
 80014c2:	429a      	cmp	r2, r3
 80014c4:	d009      	beq.n	80014da <TIM_TimeBaseInit+0x7e>
 80014c6:	89fb      	ldrh	r3, [r7, #14]
 80014c8:	f423 7340 	bic.w	r3, r3, #768	; 0x300
 80014cc:	81fb      	strh	r3, [r7, #14]
 80014ce:	683b      	ldr	r3, [r7, #0]
 80014d0:	88da      	ldrh	r2, [r3, #6]
 80014d2:	89fb      	ldrh	r3, [r7, #14]
 80014d4:	ea42 0303 	orr.w	r3, r2, r3
 80014d8:	81fb      	strh	r3, [r7, #14]
 80014da:	687b      	ldr	r3, [r7, #4]
 80014dc:	89fa      	ldrh	r2, [r7, #14]
 80014de:	801a      	strh	r2, [r3, #0]
 80014e0:	683b      	ldr	r3, [r7, #0]
 80014e2:	889a      	ldrh	r2, [r3, #4]
 80014e4:	687b      	ldr	r3, [r7, #4]
 80014e6:	859a      	strh	r2, [r3, #44]	; 0x2c
 80014e8:	683b      	ldr	r3, [r7, #0]
 80014ea:	881a      	ldrh	r2, [r3, #0]
 80014ec:	687b      	ldr	r3, [r7, #4]
 80014ee:	851a      	strh	r2, [r3, #40]	; 0x28
 80014f0:	687a      	ldr	r2, [r7, #4]
 80014f2:	4b10      	ldr	r3, [pc, #64]	; (8001534 <TIM_TimeBaseInit+0xd8>)
 80014f4:	429a      	cmp	r2, r3
 80014f6:	d00f      	beq.n	8001518 <TIM_TimeBaseInit+0xbc>
 80014f8:	687a      	ldr	r2, [r7, #4]
 80014fa:	4b0f      	ldr	r3, [pc, #60]	; (8001538 <TIM_TimeBaseInit+0xdc>)
 80014fc:	429a      	cmp	r2, r3
 80014fe:	d00b      	beq.n	8001518 <TIM_TimeBaseInit+0xbc>
 8001500:	687a      	ldr	r2, [r7, #4]
 8001502:	4b13      	ldr	r3, [pc, #76]	; (8001550 <TIM_TimeBaseInit+0xf4>)
 8001504:	429a      	cmp	r2, r3
 8001506:	d007      	beq.n	8001518 <TIM_TimeBaseInit+0xbc>
 8001508:	687a      	ldr	r2, [r7, #4]
 800150a:	4b12      	ldr	r3, [pc, #72]	; (8001554 <TIM_TimeBaseInit+0xf8>)
 800150c:	429a      	cmp	r2, r3
 800150e:	d003      	beq.n	8001518 <TIM_TimeBaseInit+0xbc>
 8001510:	687a      	ldr	r2, [r7, #4]
 8001512:	4b11      	ldr	r3, [pc, #68]	; (8001558 <TIM_TimeBaseInit+0xfc>)
 8001514:	429a      	cmp	r2, r3
 8001516:	d104      	bne.n	8001522 <TIM_TimeBaseInit+0xc6>
 8001518:	683b      	ldr	r3, [r7, #0]
 800151a:	7a1b      	ldrb	r3, [r3, #8]
 800151c:	461a      	mov	r2, r3
 800151e:	687b      	ldr	r3, [r7, #4]
 8001520:	861a      	strh	r2, [r3, #48]	; 0x30
 8001522:	687b      	ldr	r3, [r7, #4]
 8001524:	f04f 0201 	mov.w	r2, #1
 8001528:	829a      	strh	r2, [r3, #20]
 800152a:	f107 0714 	add.w	r7, r7, #20
 800152e:	46bd      	mov	sp, r7
 8001530:	bc80      	pop	{r7}
 8001532:	4770      	bx	lr
 8001534:	40012c00 	.word	0x40012c00
 8001538:	40013400 	.word	0x40013400
 800153c:	40000400 	.word	0x40000400
 8001540:	40000800 	.word	0x40000800
 8001544:	40000c00 	.word	0x40000c00
 8001548:	40001000 	.word	0x40001000
 800154c:	40001400 	.word	0x40001400
 8001550:	40014000 	.word	0x40014000
 8001554:	40014400 	.word	0x40014400
 8001558:	40014800 	.word	0x40014800

0800155c <TIM_PWMIConfig>:
 800155c:	b580      	push	{r7, lr}
 800155e:	b084      	sub	sp, #16
 8001560:	af00      	add	r7, sp, #0
 8001562:	6078      	str	r0, [r7, #4]
 8001564:	6039      	str	r1, [r7, #0]
 8001566:	f04f 0300 	mov.w	r3, #0
 800156a:	81fb      	strh	r3, [r7, #14]
 800156c:	f04f 0301 	mov.w	r3, #1
 8001570:	81bb      	strh	r3, [r7, #12]
 8001572:	683b      	ldr	r3, [r7, #0]
 8001574:	885b      	ldrh	r3, [r3, #2]
 8001576:	2b00      	cmp	r3, #0
 8001578:	d103      	bne.n	8001582 <TIM_PWMIConfig+0x26>
 800157a:	f04f 0302 	mov.w	r3, #2
 800157e:	81fb      	strh	r3, [r7, #14]
 8001580:	e002      	b.n	8001588 <TIM_PWMIConfig+0x2c>
 8001582:	f04f 0300 	mov.w	r3, #0
 8001586:	81fb      	strh	r3, [r7, #14]
 8001588:	683b      	ldr	r3, [r7, #0]
 800158a:	889b      	ldrh	r3, [r3, #4]
 800158c:	2b01      	cmp	r3, #1
 800158e:	d103      	bne.n	8001598 <TIM_PWMIConfig+0x3c>
 8001590:	f04f 0302 	mov.w	r3, #2
 8001594:	81bb      	strh	r3, [r7, #12]
 8001596:	e002      	b.n	800159e <TIM_PWMIConfig+0x42>
 8001598:	f04f 0301 	mov.w	r3, #1
 800159c:	81bb      	strh	r3, [r7, #12]
 800159e:	683b      	ldr	r3, [r7, #0]
 80015a0:	881b      	ldrh	r3, [r3, #0]
 80015a2:	2b00      	cmp	r3, #0
 80015a4:	d11c      	bne.n	80015e0 <TIM_PWMIConfig+0x84>
 80015a6:	683b      	ldr	r3, [r7, #0]
 80015a8:	8859      	ldrh	r1, [r3, #2]
 80015aa:	683b      	ldr	r3, [r7, #0]
 80015ac:	889a      	ldrh	r2, [r3, #4]
 80015ae:	683b      	ldr	r3, [r7, #0]
 80015b0:	891b      	ldrh	r3, [r3, #8]
 80015b2:	6878      	ldr	r0, [r7, #4]
 80015b4:	f000 f97a 	bl	80018ac <TI1_Config>
 80015b8:	683b      	ldr	r3, [r7, #0]
 80015ba:	88db      	ldrh	r3, [r3, #6]
 80015bc:	6878      	ldr	r0, [r7, #4]
 80015be:	4619      	mov	r1, r3
 80015c0:	f000 f8d8 	bl	8001774 <TIM_SetIC1Prescaler>
 80015c4:	683b      	ldr	r3, [r7, #0]
 80015c6:	891b      	ldrh	r3, [r3, #8]
 80015c8:	89f9      	ldrh	r1, [r7, #14]
 80015ca:	89ba      	ldrh	r2, [r7, #12]
 80015cc:	6878      	ldr	r0, [r7, #4]
 80015ce:	f000 f9df 	bl	8001990 <TI2_Config>
 80015d2:	683b      	ldr	r3, [r7, #0]
 80015d4:	88db      	ldrh	r3, [r3, #6]
 80015d6:	6878      	ldr	r0, [r7, #4]
 80015d8:	4619      	mov	r1, r3
 80015da:	f000 f8e7 	bl	80017ac <TIM_SetIC2Prescaler>
 80015de:	e01b      	b.n	8001618 <TIM_PWMIConfig+0xbc>
 80015e0:	683b      	ldr	r3, [r7, #0]
 80015e2:	8859      	ldrh	r1, [r3, #2]
 80015e4:	683b      	ldr	r3, [r7, #0]
 80015e6:	889a      	ldrh	r2, [r3, #4]
 80015e8:	683b      	ldr	r3, [r7, #0]
 80015ea:	891b      	ldrh	r3, [r3, #8]
 80015ec:	6878      	ldr	r0, [r7, #4]
 80015ee:	f000 f9cf 	bl	8001990 <TI2_Config>
 80015f2:	683b      	ldr	r3, [r7, #0]
 80015f4:	88db      	ldrh	r3, [r3, #6]
 80015f6:	6878      	ldr	r0, [r7, #4]
 80015f8:	4619      	mov	r1, r3
 80015fa:	f000 f8d7 	bl	80017ac <TIM_SetIC2Prescaler>
 80015fe:	683b      	ldr	r3, [r7, #0]
 8001600:	891b      	ldrh	r3, [r3, #8]
 8001602:	89f9      	ldrh	r1, [r7, #14]
 8001604:	89ba      	ldrh	r2, [r7, #12]
 8001606:	6878      	ldr	r0, [r7, #4]
 8001608:	f000 f950 	bl	80018ac <TI1_Config>
 800160c:	683b      	ldr	r3, [r7, #0]
 800160e:	88db      	ldrh	r3, [r3, #6]
 8001610:	6878      	ldr	r0, [r7, #4]
 8001612:	4619      	mov	r1, r3
 8001614:	f000 f8ae 	bl	8001774 <TIM_SetIC1Prescaler>
 8001618:	f107 0710 	add.w	r7, r7, #16
 800161c:	46bd      	mov	sp, r7
 800161e:	bd80      	pop	{r7, pc}

08001620 <TIM_Cmd>:
 8001620:	b480      	push	{r7}
 8001622:	b083      	sub	sp, #12
 8001624:	af00      	add	r7, sp, #0
 8001626:	6078      	str	r0, [r7, #4]
 8001628:	460b      	mov	r3, r1
 800162a:	70fb      	strb	r3, [r7, #3]
 800162c:	78fb      	ldrb	r3, [r7, #3]
 800162e:	2b00      	cmp	r3, #0
 8001630:	d008      	beq.n	8001644 <TIM_Cmd+0x24>
 8001632:	687b      	ldr	r3, [r7, #4]
 8001634:	881b      	ldrh	r3, [r3, #0]
 8001636:	b29b      	uxth	r3, r3
 8001638:	f043 0301 	orr.w	r3, r3, #1
 800163c:	b29a      	uxth	r2, r3
 800163e:	687b      	ldr	r3, [r7, #4]
 8001640:	801a      	strh	r2, [r3, #0]
 8001642:	e007      	b.n	8001654 <TIM_Cmd+0x34>
 8001644:	687b      	ldr	r3, [r7, #4]
 8001646:	881b      	ldrh	r3, [r3, #0]
 8001648:	b29b      	uxth	r3, r3
 800164a:	f023 0301 	bic.w	r3, r3, #1
 800164e:	b29a      	uxth	r2, r3
 8001650:	687b      	ldr	r3, [r7, #4]
 8001652:	801a      	strh	r2, [r3, #0]
 8001654:	f107 070c 	add.w	r7, r7, #12
 8001658:	46bd      	mov	sp, r7
 800165a:	bc80      	pop	{r7}
 800165c:	4770      	bx	lr
 800165e:	bf00      	nop

08001660 <TIM_ITConfig>:
 8001660:	b480      	push	{r7}
 8001662:	b083      	sub	sp, #12
 8001664:	af00      	add	r7, sp, #0
 8001666:	6078      	str	r0, [r7, #4]
 8001668:	4613      	mov	r3, r2
 800166a:	460a      	mov	r2, r1
 800166c:	807a      	strh	r2, [r7, #2]
 800166e:	707b      	strb	r3, [r7, #1]
 8001670:	787b      	ldrb	r3, [r7, #1]
 8001672:	2b00      	cmp	r3, #0
 8001674:	d009      	beq.n	800168a <TIM_ITConfig+0x2a>
 8001676:	687b      	ldr	r3, [r7, #4]
 8001678:	899b      	ldrh	r3, [r3, #12]
 800167a:	b29a      	uxth	r2, r3
 800167c:	887b      	ldrh	r3, [r7, #2]
 800167e:	ea42 0303 	orr.w	r3, r2, r3
 8001682:	b29a      	uxth	r2, r3
 8001684:	687b      	ldr	r3, [r7, #4]
 8001686:	819a      	strh	r2, [r3, #12]
 8001688:	e00b      	b.n	80016a2 <TIM_ITConfig+0x42>
 800168a:	687b      	ldr	r3, [r7, #4]
 800168c:	899b      	ldrh	r3, [r3, #12]
 800168e:	b29a      	uxth	r2, r3
 8001690:	887b      	ldrh	r3, [r7, #2]
 8001692:	ea6f 0303 	mvn.w	r3, r3
 8001696:	b29b      	uxth	r3, r3
 8001698:	ea02 0303 	and.w	r3, r2, r3
 800169c:	b29a      	uxth	r2, r3
 800169e:	687b      	ldr	r3, [r7, #4]
 80016a0:	819a      	strh	r2, [r3, #12]
 80016a2:	f107 070c 	add.w	r7, r7, #12
 80016a6:	46bd      	mov	sp, r7
 80016a8:	bc80      	pop	{r7}
 80016aa:	4770      	bx	lr

080016ac <TIM_SelectInputTrigger>:
 80016ac:	b480      	push	{r7}
 80016ae:	b085      	sub	sp, #20
 80016b0:	af00      	add	r7, sp, #0
 80016b2:	6078      	str	r0, [r7, #4]
 80016b4:	460b      	mov	r3, r1
 80016b6:	807b      	strh	r3, [r7, #2]
 80016b8:	f04f 0300 	mov.w	r3, #0
 80016bc:	81fb      	strh	r3, [r7, #14]
 80016be:	687b      	ldr	r3, [r7, #4]
 80016c0:	891b      	ldrh	r3, [r3, #8]
 80016c2:	81fb      	strh	r3, [r7, #14]
 80016c4:	89fb      	ldrh	r3, [r7, #14]
 80016c6:	f023 0370 	bic.w	r3, r3, #112	; 0x70
 80016ca:	81fb      	strh	r3, [r7, #14]
 80016cc:	89fa      	ldrh	r2, [r7, #14]
 80016ce:	887b      	ldrh	r3, [r7, #2]
 80016d0:	ea42 0303 	orr.w	r3, r2, r3
 80016d4:	81fb      	strh	r3, [r7, #14]
 80016d6:	687b      	ldr	r3, [r7, #4]
 80016d8:	89fa      	ldrh	r2, [r7, #14]
 80016da:	811a      	strh	r2, [r3, #8]
 80016dc:	f107 0714 	add.w	r7, r7, #20
 80016e0:	46bd      	mov	sp, r7
 80016e2:	bc80      	pop	{r7}
 80016e4:	4770      	bx	lr
 80016e6:	bf00      	nop

080016e8 <TIM_SelectSlaveMode>:
 80016e8:	b480      	push	{r7}
 80016ea:	b083      	sub	sp, #12
 80016ec:	af00      	add	r7, sp, #0
 80016ee:	6078      	str	r0, [r7, #4]
 80016f0:	460b      	mov	r3, r1
 80016f2:	807b      	strh	r3, [r7, #2]
 80016f4:	687b      	ldr	r3, [r7, #4]
 80016f6:	891b      	ldrh	r3, [r3, #8]
 80016f8:	b29b      	uxth	r3, r3
 80016fa:	f023 0307 	bic.w	r3, r3, #7
 80016fe:	b29a      	uxth	r2, r3
 8001700:	687b      	ldr	r3, [r7, #4]
 8001702:	811a      	strh	r2, [r3, #8]
 8001704:	687b      	ldr	r3, [r7, #4]
 8001706:	891b      	ldrh	r3, [r3, #8]
 8001708:	b29a      	uxth	r2, r3
 800170a:	887b      	ldrh	r3, [r7, #2]
 800170c:	ea42 0303 	orr.w	r3, r2, r3
 8001710:	b29a      	uxth	r2, r3
 8001712:	687b      	ldr	r3, [r7, #4]
 8001714:	811a      	strh	r2, [r3, #8]
 8001716:	f107 070c 	add.w	r7, r7, #12
 800171a:	46bd      	mov	sp, r7
 800171c:	bc80      	pop	{r7}
 800171e:	4770      	bx	lr

08001720 <TIM_SelectMasterSlaveMode>:
 8001720:	b480      	push	{r7}
 8001722:	b083      	sub	sp, #12
 8001724:	af00      	add	r7, sp, #0
 8001726:	6078      	str	r0, [r7, #4]
 8001728:	460b      	mov	r3, r1
 800172a:	807b      	strh	r3, [r7, #2]
 800172c:	687b      	ldr	r3, [r7, #4]
 800172e:	891b      	ldrh	r3, [r3, #8]
 8001730:	b29b      	uxth	r3, r3
 8001732:	f023 0380 	bic.w	r3, r3, #128	; 0x80
 8001736:	b29a      	uxth	r2, r3
 8001738:	687b      	ldr	r3, [r7, #4]
 800173a:	811a      	strh	r2, [r3, #8]
 800173c:	687b      	ldr	r3, [r7, #4]
 800173e:	891b      	ldrh	r3, [r3, #8]
 8001740:	b29a      	uxth	r2, r3
 8001742:	887b      	ldrh	r3, [r7, #2]
 8001744:	ea42 0303 	orr.w	r3, r2, r3
 8001748:	b29a      	uxth	r2, r3
 800174a:	687b      	ldr	r3, [r7, #4]
 800174c:	811a      	strh	r2, [r3, #8]
 800174e:	f107 070c 	add.w	r7, r7, #12
 8001752:	46bd      	mov	sp, r7
 8001754:	bc80      	pop	{r7}
 8001756:	4770      	bx	lr

08001758 <TIM_SetCounter>:
 8001758:	b480      	push	{r7}
 800175a:	b083      	sub	sp, #12
 800175c:	af00      	add	r7, sp, #0
 800175e:	6078      	str	r0, [r7, #4]
 8001760:	460b      	mov	r3, r1
 8001762:	807b      	strh	r3, [r7, #2]
 8001764:	687b      	ldr	r3, [r7, #4]
 8001766:	887a      	ldrh	r2, [r7, #2]
 8001768:	849a      	strh	r2, [r3, #36]	; 0x24
 800176a:	f107 070c 	add.w	r7, r7, #12
 800176e:	46bd      	mov	sp, r7
 8001770:	bc80      	pop	{r7}
 8001772:	4770      	bx	lr

08001774 <TIM_SetIC1Prescaler>:
 8001774:	b480      	push	{r7}
 8001776:	b083      	sub	sp, #12
 8001778:	af00      	add	r7, sp, #0
 800177a:	6078      	str	r0, [r7, #4]
 800177c:	460b      	mov	r3, r1
 800177e:	807b      	strh	r3, [r7, #2]
 8001780:	687b      	ldr	r3, [r7, #4]
 8001782:	8b1b      	ldrh	r3, [r3, #24]
 8001784:	b29b      	uxth	r3, r3
 8001786:	f023 030c 	bic.w	r3, r3, #12
 800178a:	b29a      	uxth	r2, r3
 800178c:	687b      	ldr	r3, [r7, #4]
 800178e:	831a      	strh	r2, [r3, #24]
 8001790:	687b      	ldr	r3, [r7, #4]
 8001792:	8b1b      	ldrh	r3, [r3, #24]
 8001794:	b29a      	uxth	r2, r3
 8001796:	887b      	ldrh	r3, [r7, #2]
 8001798:	ea42 0303 	orr.w	r3, r2, r3
 800179c:	b29a      	uxth	r2, r3
 800179e:	687b      	ldr	r3, [r7, #4]
 80017a0:	831a      	strh	r2, [r3, #24]
 80017a2:	f107 070c 	add.w	r7, r7, #12
 80017a6:	46bd      	mov	sp, r7
 80017a8:	bc80      	pop	{r7}
 80017aa:	4770      	bx	lr

080017ac <TIM_SetIC2Prescaler>:
 80017ac:	b480      	push	{r7}
 80017ae:	b083      	sub	sp, #12
 80017b0:	af00      	add	r7, sp, #0
 80017b2:	6078      	str	r0, [r7, #4]
 80017b4:	460b      	mov	r3, r1
 80017b6:	807b      	strh	r3, [r7, #2]
 80017b8:	687b      	ldr	r3, [r7, #4]
 80017ba:	8b1b      	ldrh	r3, [r3, #24]
 80017bc:	b29b      	uxth	r3, r3
 80017be:	f423 6340 	bic.w	r3, r3, #3072	; 0xc00
 80017c2:	b29a      	uxth	r2, r3
 80017c4:	687b      	ldr	r3, [r7, #4]
 80017c6:	831a      	strh	r2, [r3, #24]
 80017c8:	687b      	ldr	r3, [r7, #4]
 80017ca:	8b1b      	ldrh	r3, [r3, #24]
 80017cc:	b29a      	uxth	r2, r3
 80017ce:	887b      	ldrh	r3, [r7, #2]
 80017d0:	ea4f 2303 	mov.w	r3, r3, lsl #8
 80017d4:	b29b      	uxth	r3, r3
 80017d6:	ea42 0303 	orr.w	r3, r2, r3
 80017da:	b29a      	uxth	r2, r3
 80017dc:	687b      	ldr	r3, [r7, #4]
 80017de:	831a      	strh	r2, [r3, #24]
 80017e0:	f107 070c 	add.w	r7, r7, #12
 80017e4:	46bd      	mov	sp, r7
 80017e6:	bc80      	pop	{r7}
 80017e8:	4770      	bx	lr
 80017ea:	bf00      	nop

080017ec <TIM_GetCapture2>:
 80017ec:	b480      	push	{r7}
 80017ee:	b083      	sub	sp, #12
 80017f0:	af00      	add	r7, sp, #0
 80017f2:	6078      	str	r0, [r7, #4]
 80017f4:	687b      	ldr	r3, [r7, #4]
 80017f6:	8f1b      	ldrh	r3, [r3, #56]	; 0x38
 80017f8:	b29b      	uxth	r3, r3
 80017fa:	4618      	mov	r0, r3
 80017fc:	f107 070c 	add.w	r7, r7, #12
 8001800:	46bd      	mov	sp, r7
 8001802:	bc80      	pop	{r7}
 8001804:	4770      	bx	lr
 8001806:	bf00      	nop

08001808 <TIM_GetCounter>:
 8001808:	b480      	push	{r7}
 800180a:	b083      	sub	sp, #12
 800180c:	af00      	add	r7, sp, #0
 800180e:	6078      	str	r0, [r7, #4]
 8001810:	687b      	ldr	r3, [r7, #4]
 8001812:	8c9b      	ldrh	r3, [r3, #36]	; 0x24
 8001814:	b29b      	uxth	r3, r3
 8001816:	4618      	mov	r0, r3
 8001818:	f107 070c 	add.w	r7, r7, #12
 800181c:	46bd      	mov	sp, r7
 800181e:	bc80      	pop	{r7}
 8001820:	4770      	bx	lr
 8001822:	bf00      	nop

08001824 <TIM_GetITStatus>:
 8001824:	b480      	push	{r7}
 8001826:	b085      	sub	sp, #20
 8001828:	af00      	add	r7, sp, #0
 800182a:	6078      	str	r0, [r7, #4]
 800182c:	460b      	mov	r3, r1
 800182e:	807b      	strh	r3, [r7, #2]
 8001830:	f04f 0300 	mov.w	r3, #0
 8001834:	73fb      	strb	r3, [r7, #15]
 8001836:	f04f 0300 	mov.w	r3, #0
 800183a:	81bb      	strh	r3, [r7, #12]
 800183c:	f04f 0300 	mov.w	r3, #0
 8001840:	817b      	strh	r3, [r7, #10]
 8001842:	687b      	ldr	r3, [r7, #4]
 8001844:	8a1b      	ldrh	r3, [r3, #16]
 8001846:	b29a      	uxth	r2, r3
 8001848:	887b      	ldrh	r3, [r7, #2]
 800184a:	ea02 0303 	and.w	r3, r2, r3
 800184e:	81bb      	strh	r3, [r7, #12]
 8001850:	687b      	ldr	r3, [r7, #4]
 8001852:	899b      	ldrh	r3, [r3, #12]
 8001854:	b29a      	uxth	r2, r3
 8001856:	887b      	ldrh	r3, [r7, #2]
 8001858:	ea02 0303 	and.w	r3, r2, r3
 800185c:	817b      	strh	r3, [r7, #10]
 800185e:	89bb      	ldrh	r3, [r7, #12]
 8001860:	2b00      	cmp	r3, #0
 8001862:	d006      	beq.n	8001872 <TIM_GetITStatus+0x4e>
 8001864:	897b      	ldrh	r3, [r7, #10]
 8001866:	2b00      	cmp	r3, #0
 8001868:	d003      	beq.n	8001872 <TIM_GetITStatus+0x4e>
 800186a:	f04f 0301 	mov.w	r3, #1
 800186e:	73fb      	strb	r3, [r7, #15]
 8001870:	e002      	b.n	8001878 <TIM_GetITStatus+0x54>
 8001872:	f04f 0300 	mov.w	r3, #0
 8001876:	73fb      	strb	r3, [r7, #15]
 8001878:	7bfb      	ldrb	r3, [r7, #15]
 800187a:	4618      	mov	r0, r3
 800187c:	f107 0714 	add.w	r7, r7, #20
 8001880:	46bd      	mov	sp, r7
 8001882:	bc80      	pop	{r7}
 8001884:	4770      	bx	lr
 8001886:	bf00      	nop

08001888 <TIM_ClearITPendingBit>:
 8001888:	b480      	push	{r7}
 800188a:	b083      	sub	sp, #12
 800188c:	af00      	add	r7, sp, #0
 800188e:	6078      	str	r0, [r7, #4]
 8001890:	460b      	mov	r3, r1
 8001892:	807b      	strh	r3, [r7, #2]
 8001894:	887b      	ldrh	r3, [r7, #2]
 8001896:	ea6f 0303 	mvn.w	r3, r3
 800189a:	b29a      	uxth	r2, r3
 800189c:	687b      	ldr	r3, [r7, #4]
 800189e:	821a      	strh	r2, [r3, #16]
 80018a0:	f107 070c 	add.w	r7, r7, #12
 80018a4:	46bd      	mov	sp, r7
 80018a6:	bc80      	pop	{r7}
 80018a8:	4770      	bx	lr
 80018aa:	bf00      	nop

080018ac <TI1_Config>:
 80018ac:	b480      	push	{r7}
 80018ae:	b087      	sub	sp, #28
 80018b0:	af00      	add	r7, sp, #0
 80018b2:	60f8      	str	r0, [r7, #12]
 80018b4:	8179      	strh	r1, [r7, #10]
 80018b6:	813a      	strh	r2, [r7, #8]
 80018b8:	80fb      	strh	r3, [r7, #6]
 80018ba:	f04f 0300 	mov.w	r3, #0
 80018be:	82bb      	strh	r3, [r7, #20]
 80018c0:	f04f 0300 	mov.w	r3, #0
 80018c4:	82fb      	strh	r3, [r7, #22]
 80018c6:	68fb      	ldr	r3, [r7, #12]
 80018c8:	8c1b      	ldrh	r3, [r3, #32]
 80018ca:	b29b      	uxth	r3, r3
 80018cc:	f023 0301 	bic.w	r3, r3, #1
 80018d0:	b29a      	uxth	r2, r3
 80018d2:	68fb      	ldr	r3, [r7, #12]
 80018d4:	841a      	strh	r2, [r3, #32]
 80018d6:	68fb      	ldr	r3, [r7, #12]
 80018d8:	8b1b      	ldrh	r3, [r3, #24]
 80018da:	82bb      	strh	r3, [r7, #20]
 80018dc:	68fb      	ldr	r3, [r7, #12]
 80018de:	8c1b      	ldrh	r3, [r3, #32]
 80018e0:	82fb      	strh	r3, [r7, #22]
 80018e2:	8abb      	ldrh	r3, [r7, #20]
 80018e4:	f023 03f3 	bic.w	r3, r3, #243	; 0xf3
 80018e8:	82bb      	strh	r3, [r7, #20]
 80018ea:	88fb      	ldrh	r3, [r7, #6]
 80018ec:	ea4f 1303 	mov.w	r3, r3, lsl #4
 80018f0:	b29a      	uxth	r2, r3
 80018f2:	893b      	ldrh	r3, [r7, #8]
 80018f4:	ea42 0303 	orr.w	r3, r2, r3
 80018f8:	b29a      	uxth	r2, r3
 80018fa:	8abb      	ldrh	r3, [r7, #20]
 80018fc:	ea42 0303 	orr.w	r3, r2, r3
 8001900:	82bb      	strh	r3, [r7, #20]
 8001902:	68fa      	ldr	r2, [r7, #12]
 8001904:	4b1d      	ldr	r3, [pc, #116]	; (800197c <TI1_Config+0xd0>)
 8001906:	429a      	cmp	r2, r3
 8001908:	d013      	beq.n	8001932 <TI1_Config+0x86>
 800190a:	68fa      	ldr	r2, [r7, #12]
 800190c:	4b1c      	ldr	r3, [pc, #112]	; (8001980 <TI1_Config+0xd4>)
 800190e:	429a      	cmp	r2, r3
 8001910:	d00f      	beq.n	8001932 <TI1_Config+0x86>
 8001912:	68fb      	ldr	r3, [r7, #12]
 8001914:	f1b3 4f80 	cmp.w	r3, #1073741824	; 0x40000000
 8001918:	d00b      	beq.n	8001932 <TI1_Config+0x86>
 800191a:	68fa      	ldr	r2, [r7, #12]
 800191c:	4b19      	ldr	r3, [pc, #100]	; (8001984 <TI1_Config+0xd8>)
 800191e:	429a      	cmp	r2, r3
 8001920:	d007      	beq.n	8001932 <TI1_Config+0x86>
 8001922:	68fa      	ldr	r2, [r7, #12]
 8001924:	4b18      	ldr	r3, [pc, #96]	; (8001988 <TI1_Config+0xdc>)
 8001926:	429a      	cmp	r2, r3
 8001928:	d003      	beq.n	8001932 <TI1_Config+0x86>
 800192a:	68fa      	ldr	r2, [r7, #12]
 800192c:	4b17      	ldr	r3, [pc, #92]	; (800198c <TI1_Config+0xe0>)
 800192e:	429a      	cmp	r2, r3
 8001930:	d10c      	bne.n	800194c <TI1_Config+0xa0>
 8001932:	8afb      	ldrh	r3, [r7, #22]
 8001934:	f023 0302 	bic.w	r3, r3, #2
 8001938:	82fb      	strh	r3, [r7, #22]
 800193a:	897a      	ldrh	r2, [r7, #10]
 800193c:	8afb      	ldrh	r3, [r7, #22]
 800193e:	ea42 0303 	orr.w	r3, r2, r3
 8001942:	b29b      	uxth	r3, r3
 8001944:	f043 0301 	orr.w	r3, r3, #1
 8001948:	82fb      	strh	r3, [r7, #22]
 800194a:	e00b      	b.n	8001964 <TI1_Config+0xb8>
 800194c:	8afb      	ldrh	r3, [r7, #22]
 800194e:	f023 030a 	bic.w	r3, r3, #10
 8001952:	82fb      	strh	r3, [r7, #22]
 8001954:	897a      	ldrh	r2, [r7, #10]
 8001956:	8afb      	ldrh	r3, [r7, #22]
 8001958:	ea42 0303 	orr.w	r3, r2, r3
 800195c:	b29b      	uxth	r3, r3
 800195e:	f043 0301 	orr.w	r3, r3, #1
 8001962:	82fb      	strh	r3, [r7, #22]
 8001964:	68fb      	ldr	r3, [r7, #12]
 8001966:	8aba      	ldrh	r2, [r7, #20]
 8001968:	831a      	strh	r2, [r3, #24]
 800196a:	68fb      	ldr	r3, [r7, #12]
 800196c:	8afa      	ldrh	r2, [r7, #22]
 800196e:	841a      	strh	r2, [r3, #32]
 8001970:	f107 071c 	add.w	r7, r7, #28
 8001974:	46bd      	mov	sp, r7
 8001976:	bc80      	pop	{r7}
 8001978:	4770      	bx	lr
 800197a:	bf00      	nop
 800197c:	40012c00 	.word	0x40012c00
 8001980:	40013400 	.word	0x40013400
 8001984:	40000400 	.word	0x40000400
 8001988:	40000800 	.word	0x40000800
 800198c:	40000c00 	.word	0x40000c00

08001990 <TI2_Config>:
 8001990:	b480      	push	{r7}
 8001992:	b087      	sub	sp, #28
 8001994:	af00      	add	r7, sp, #0
 8001996:	60f8      	str	r0, [r7, #12]
 8001998:	8179      	strh	r1, [r7, #10]
 800199a:	813a      	strh	r2, [r7, #8]
 800199c:	80fb      	strh	r3, [r7, #6]
 800199e:	f04f 0300 	mov.w	r3, #0
 80019a2:	82bb      	strh	r3, [r7, #20]
 80019a4:	f04f 0300 	mov.w	r3, #0
 80019a8:	82fb      	strh	r3, [r7, #22]
 80019aa:	f04f 0300 	mov.w	r3, #0
 80019ae:	827b      	strh	r3, [r7, #18]
 80019b0:	68fb      	ldr	r3, [r7, #12]
 80019b2:	8c1b      	ldrh	r3, [r3, #32]
 80019b4:	b29b      	uxth	r3, r3
 80019b6:	f023 0310 	bic.w	r3, r3, #16
 80019ba:	b29a      	uxth	r2, r3
 80019bc:	68fb      	ldr	r3, [r7, #12]
 80019be:	841a      	strh	r2, [r3, #32]
 80019c0:	68fb      	ldr	r3, [r7, #12]
 80019c2:	8b1b      	ldrh	r3, [r3, #24]
 80019c4:	82bb      	strh	r3, [r7, #20]
 80019c6:	68fb      	ldr	r3, [r7, #12]
 80019c8:	8c1b      	ldrh	r3, [r3, #32]
 80019ca:	82fb      	strh	r3, [r7, #22]
 80019cc:	897b      	ldrh	r3, [r7, #10]
 80019ce:	ea4f 1303 	mov.w	r3, r3, lsl #4
 80019d2:	827b      	strh	r3, [r7, #18]
 80019d4:	8abb      	ldrh	r3, [r7, #20]
 80019d6:	f423 7340 	bic.w	r3, r3, #768	; 0x300
 80019da:	ea4f 5303 	mov.w	r3, r3, lsl #20
 80019de:	ea4f 5313 	mov.w	r3, r3, lsr #20
 80019e2:	82bb      	strh	r3, [r7, #20]
 80019e4:	88fb      	ldrh	r3, [r7, #6]
 80019e6:	ea4f 3303 	mov.w	r3, r3, lsl #12
 80019ea:	b29a      	uxth	r2, r3
 80019ec:	8abb      	ldrh	r3, [r7, #20]
 80019ee:	ea42 0303 	orr.w	r3, r2, r3
 80019f2:	82bb      	strh	r3, [r7, #20]
 80019f4:	893b      	ldrh	r3, [r7, #8]
 80019f6:	ea4f 2303 	mov.w	r3, r3, lsl #8
 80019fa:	b29a      	uxth	r2, r3
 80019fc:	8abb      	ldrh	r3, [r7, #20]
 80019fe:	ea42 0303 	orr.w	r3, r2, r3
 8001a02:	82bb      	strh	r3, [r7, #20]
 8001a04:	68fa      	ldr	r2, [r7, #12]
 8001a06:	4b1d      	ldr	r3, [pc, #116]	; (8001a7c <TI2_Config+0xec>)
 8001a08:	429a      	cmp	r2, r3
 8001a0a:	d013      	beq.n	8001a34 <TI2_Config+0xa4>
 8001a0c:	68fa      	ldr	r2, [r7, #12]
 8001a0e:	4b1c      	ldr	r3, [pc, #112]	; (8001a80 <TI2_Config+0xf0>)
 8001a10:	429a      	cmp	r2, r3
 8001a12:	d00f      	beq.n	8001a34 <TI2_Config+0xa4>
 8001a14:	68fb      	ldr	r3, [r7, #12]
 8001a16:	f1b3 4f80 	cmp.w	r3, #1073741824	; 0x40000000
 8001a1a:	d00b      	beq.n	8001a34 <TI2_Config+0xa4>
 8001a1c:	68fa      	ldr	r2, [r7, #12]
 8001a1e:	4b19      	ldr	r3, [pc, #100]	; (8001a84 <TI2_Config+0xf4>)
 8001a20:	429a      	cmp	r2, r3
 8001a22:	d007      	beq.n	8001a34 <TI2_Config+0xa4>
 8001a24:	68fa      	ldr	r2, [r7, #12]
 8001a26:	4b18      	ldr	r3, [pc, #96]	; (8001a88 <TI2_Config+0xf8>)
 8001a28:	429a      	cmp	r2, r3
 8001a2a:	d003      	beq.n	8001a34 <TI2_Config+0xa4>
 8001a2c:	68fa      	ldr	r2, [r7, #12]
 8001a2e:	4b17      	ldr	r3, [pc, #92]	; (8001a8c <TI2_Config+0xfc>)
 8001a30:	429a      	cmp	r2, r3
 8001a32:	d10c      	bne.n	8001a4e <TI2_Config+0xbe>
 8001a34:	8afb      	ldrh	r3, [r7, #22]
 8001a36:	f023 0320 	bic.w	r3, r3, #32
 8001a3a:	82fb      	strh	r3, [r7, #22]
 8001a3c:	8a7a      	ldrh	r2, [r7, #18]
 8001a3e:	8afb      	ldrh	r3, [r7, #22]
 8001a40:	ea42 0303 	orr.w	r3, r2, r3
 8001a44:	b29b      	uxth	r3, r3
 8001a46:	f043 0310 	orr.w	r3, r3, #16
 8001a4a:	82fb      	strh	r3, [r7, #22]
 8001a4c:	e00b      	b.n	8001a66 <TI2_Config+0xd6>
 8001a4e:	8afb      	ldrh	r3, [r7, #22]
 8001a50:	f023 03a0 	bic.w	r3, r3, #160	; 0xa0
 8001a54:	82fb      	strh	r3, [r7, #22]
 8001a56:	897a      	ldrh	r2, [r7, #10]
 8001a58:	8afb      	ldrh	r3, [r7, #22]
 8001a5a:	ea42 0303 	orr.w	r3, r2, r3
 8001a5e:	b29b      	uxth	r3, r3
 8001a60:	f043 0310 	orr.w	r3, r3, #16
 8001a64:	82fb      	strh	r3, [r7, #22]
 8001a66:	68fb      	ldr	r3, [r7, #12]
 8001a68:	8aba      	ldrh	r2, [r7, #20]
 8001a6a:	831a      	strh	r2, [r3, #24]
 8001a6c:	68fb      	ldr	r3, [r7, #12]
 8001a6e:	8afa      	ldrh	r2, [r7, #22]
 8001a70:	841a      	strh	r2, [r3, #32]
 8001a72:	f107 071c 	add.w	r7, r7, #28
 8001a76:	46bd      	mov	sp, r7
 8001a78:	bc80      	pop	{r7}
 8001a7a:	4770      	bx	lr
 8001a7c:	40012c00 	.word	0x40012c00
 8001a80:	40013400 	.word	0x40013400
 8001a84:	40000400 	.word	0x40000400
 8001a88:	40000800 	.word	0x40000800
 8001a8c:	40000c00 	.word	0x40000c00

08001a90 <__LDREXW>:
 8001a90:	b490      	push	{r4, r7}
 8001a92:	b084      	sub	sp, #16
 8001a94:	af00      	add	r7, sp, #0
 8001a96:	6078      	str	r0, [r7, #4]
 8001a98:	f04f 0300 	mov.w	r3, #0
 8001a9c:	60fb      	str	r3, [r7, #12]
 8001a9e:	687b      	ldr	r3, [r7, #4]
 8001aa0:	e853 4f00 	ldrex	r4, [r3]
 8001aa4:	60fc      	str	r4, [r7, #12]
 8001aa6:	68fb      	ldr	r3, [r7, #12]
 8001aa8:	4618      	mov	r0, r3
 8001aaa:	f107 0710 	add.w	r7, r7, #16
 8001aae:	46bd      	mov	sp, r7
 8001ab0:	bc90      	pop	{r4, r7}
 8001ab2:	4770      	bx	lr

08001ab4 <__STREXW>:
 8001ab4:	b490      	push	{r4, r7}
 8001ab6:	b084      	sub	sp, #16
 8001ab8:	af00      	add	r7, sp, #0
 8001aba:	6078      	str	r0, [r7, #4]
 8001abc:	6039      	str	r1, [r7, #0]
 8001abe:	f04f 0300 	mov.w	r3, #0
 8001ac2:	60fb      	str	r3, [r7, #12]
 8001ac4:	683b      	ldr	r3, [r7, #0]
 8001ac6:	687a      	ldr	r2, [r7, #4]
 8001ac8:	e843 2400 	strex	r4, r2, [r3]
 8001acc:	60fc      	str	r4, [r7, #12]
 8001ace:	68fb      	ldr	r3, [r7, #12]
 8001ad0:	4618      	mov	r0, r3
 8001ad2:	f107 0710 	add.w	r7, r7, #16
 8001ad6:	46bd      	mov	sp, r7
 8001ad8:	bc90      	pop	{r4, r7}
 8001ada:	4770      	bx	lr

08001adc <SystemInit>:
 8001adc:	b580      	push	{r7, lr}
 8001ade:	af00      	add	r7, sp, #0
 8001ae0:	4b15      	ldr	r3, [pc, #84]	; (8001b38 <SystemInit+0x5c>)
 8001ae2:	4a15      	ldr	r2, [pc, #84]	; (8001b38 <SystemInit+0x5c>)
 8001ae4:	6812      	ldr	r2, [r2, #0]
 8001ae6:	f042 0201 	orr.w	r2, r2, #1
 8001aea:	601a      	str	r2, [r3, #0]
 8001aec:	4a12      	ldr	r2, [pc, #72]	; (8001b38 <SystemInit+0x5c>)
 8001aee:	4b12      	ldr	r3, [pc, #72]	; (8001b38 <SystemInit+0x5c>)
 8001af0:	6859      	ldr	r1, [r3, #4]
 8001af2:	4b12      	ldr	r3, [pc, #72]	; (8001b3c <SystemInit+0x60>)
 8001af4:	ea01 0303 	and.w	r3, r1, r3
 8001af8:	6053      	str	r3, [r2, #4]
 8001afa:	4a0f      	ldr	r2, [pc, #60]	; (8001b38 <SystemInit+0x5c>)
 8001afc:	4b0e      	ldr	r3, [pc, #56]	; (8001b38 <SystemInit+0x5c>)
 8001afe:	681b      	ldr	r3, [r3, #0]
 8001b00:	f023 7384 	bic.w	r3, r3, #17301504	; 0x1080000
 8001b04:	f423 3380 	bic.w	r3, r3, #65536	; 0x10000
 8001b08:	6013      	str	r3, [r2, #0]
 8001b0a:	4b0b      	ldr	r3, [pc, #44]	; (8001b38 <SystemInit+0x5c>)
 8001b0c:	4a0a      	ldr	r2, [pc, #40]	; (8001b38 <SystemInit+0x5c>)
 8001b0e:	6812      	ldr	r2, [r2, #0]
 8001b10:	f422 2280 	bic.w	r2, r2, #262144	; 0x40000
 8001b14:	601a      	str	r2, [r3, #0]
 8001b16:	4b08      	ldr	r3, [pc, #32]	; (8001b38 <SystemInit+0x5c>)
 8001b18:	4a07      	ldr	r2, [pc, #28]	; (8001b38 <SystemInit+0x5c>)
 8001b1a:	6852      	ldr	r2, [r2, #4]
 8001b1c:	f422 02fe 	bic.w	r2, r2, #8323072	; 0x7f0000
 8001b20:	605a      	str	r2, [r3, #4]
 8001b22:	4b05      	ldr	r3, [pc, #20]	; (8001b38 <SystemInit+0x5c>)
 8001b24:	f44f 021f 	mov.w	r2, #10420224	; 0x9f0000
 8001b28:	609a      	str	r2, [r3, #8]
 8001b2a:	f000 f80b 	bl	8001b44 <SetSysClock>
 8001b2e:	4b04      	ldr	r3, [pc, #16]	; (8001b40 <SystemInit+0x64>)
 8001b30:	f04f 6200 	mov.w	r2, #134217728	; 0x8000000
 8001b34:	609a      	str	r2, [r3, #8]
 8001b36:	bd80      	pop	{r7, pc}
 8001b38:	40021000 	.word	0x40021000
 8001b3c:	f8ff0000 	.word	0xf8ff0000
 8001b40:	e000ed00 	.word	0xe000ed00

08001b44 <SetSysClock>:
 8001b44:	b580      	push	{r7, lr}
 8001b46:	af00      	add	r7, sp, #0
 8001b48:	f000 f802 	bl	8001b50 <SetSysClockTo72>
 8001b4c:	bd80      	pop	{r7, pc}
 8001b4e:	bf00      	nop

08001b50 <SetSysClockTo72>:
 8001b50:	b480      	push	{r7}
 8001b52:	b083      	sub	sp, #12
 8001b54:	af00      	add	r7, sp, #0
 8001b56:	f04f 0300 	mov.w	r3, #0
 8001b5a:	607b      	str	r3, [r7, #4]
 8001b5c:	f04f 0300 	mov.w	r3, #0
 8001b60:	603b      	str	r3, [r7, #0]
 8001b62:	4b3b      	ldr	r3, [pc, #236]	; (8001c50 <SetSysClockTo72+0x100>)
 8001b64:	4a3a      	ldr	r2, [pc, #232]	; (8001c50 <SetSysClockTo72+0x100>)
 8001b66:	6812      	ldr	r2, [r2, #0]
 8001b68:	f442 3280 	orr.w	r2, r2, #65536	; 0x10000
 8001b6c:	601a      	str	r2, [r3, #0]
 8001b6e:	4b38      	ldr	r3, [pc, #224]	; (8001c50 <SetSysClockTo72+0x100>)
 8001b70:	681b      	ldr	r3, [r3, #0]
 8001b72:	f403 3300 	and.w	r3, r3, #131072	; 0x20000
 8001b76:	603b      	str	r3, [r7, #0]
 8001b78:	687b      	ldr	r3, [r7, #4]
 8001b7a:	f103 0301 	add.w	r3, r3, #1
 8001b7e:	607b      	str	r3, [r7, #4]
 8001b80:	683b      	ldr	r3, [r7, #0]
 8001b82:	2b00      	cmp	r3, #0
 8001b84:	d103      	bne.n	8001b8e <SetSysClockTo72+0x3e>
 8001b86:	687b      	ldr	r3, [r7, #4]
 8001b88:	f5b3 6fa0 	cmp.w	r3, #1280	; 0x500
 8001b8c:	d1ef      	bne.n	8001b6e <SetSysClockTo72+0x1e>
 8001b8e:	4b30      	ldr	r3, [pc, #192]	; (8001c50 <SetSysClockTo72+0x100>)
 8001b90:	681b      	ldr	r3, [r3, #0]
 8001b92:	f403 3300 	and.w	r3, r3, #131072	; 0x20000
 8001b96:	2b00      	cmp	r3, #0
 8001b98:	d003      	beq.n	8001ba2 <SetSysClockTo72+0x52>
 8001b9a:	f04f 0301 	mov.w	r3, #1
 8001b9e:	603b      	str	r3, [r7, #0]
 8001ba0:	e002      	b.n	8001ba8 <SetSysClockTo72+0x58>
 8001ba2:	f04f 0300 	mov.w	r3, #0
 8001ba6:	603b      	str	r3, [r7, #0]
 8001ba8:	683b      	ldr	r3, [r7, #0]
 8001baa:	2b01      	cmp	r3, #1
 8001bac:	d14b      	bne.n	8001c46 <SetSysClockTo72+0xf6>
 8001bae:	4b29      	ldr	r3, [pc, #164]	; (8001c54 <SetSysClockTo72+0x104>)
 8001bb0:	4a28      	ldr	r2, [pc, #160]	; (8001c54 <SetSysClockTo72+0x104>)
 8001bb2:	6812      	ldr	r2, [r2, #0]
 8001bb4:	f042 0210 	orr.w	r2, r2, #16
 8001bb8:	601a      	str	r2, [r3, #0]
 8001bba:	4b26      	ldr	r3, [pc, #152]	; (8001c54 <SetSysClockTo72+0x104>)
 8001bbc:	4a25      	ldr	r2, [pc, #148]	; (8001c54 <SetSysClockTo72+0x104>)
 8001bbe:	6812      	ldr	r2, [r2, #0]
 8001bc0:	f022 0203 	bic.w	r2, r2, #3
 8001bc4:	601a      	str	r2, [r3, #0]
 8001bc6:	4b23      	ldr	r3, [pc, #140]	; (8001c54 <SetSysClockTo72+0x104>)
 8001bc8:	4a22      	ldr	r2, [pc, #136]	; (8001c54 <SetSysClockTo72+0x104>)
 8001bca:	6812      	ldr	r2, [r2, #0]
 8001bcc:	f042 0202 	orr.w	r2, r2, #2
 8001bd0:	601a      	str	r2, [r3, #0]
 8001bd2:	4b1f      	ldr	r3, [pc, #124]	; (8001c50 <SetSysClockTo72+0x100>)
 8001bd4:	4a1e      	ldr	r2, [pc, #120]	; (8001c50 <SetSysClockTo72+0x100>)
 8001bd6:	6852      	ldr	r2, [r2, #4]
 8001bd8:	605a      	str	r2, [r3, #4]
 8001bda:	4b1d      	ldr	r3, [pc, #116]	; (8001c50 <SetSysClockTo72+0x100>)
 8001bdc:	4a1c      	ldr	r2, [pc, #112]	; (8001c50 <SetSysClockTo72+0x100>)
 8001bde:	6852      	ldr	r2, [r2, #4]
 8001be0:	605a      	str	r2, [r3, #4]
 8001be2:	4b1b      	ldr	r3, [pc, #108]	; (8001c50 <SetSysClockTo72+0x100>)
 8001be4:	4a1a      	ldr	r2, [pc, #104]	; (8001c50 <SetSysClockTo72+0x100>)
 8001be6:	6852      	ldr	r2, [r2, #4]
 8001be8:	f442 6280 	orr.w	r2, r2, #1024	; 0x400
 8001bec:	605a      	str	r2, [r3, #4]
 8001bee:	4b18      	ldr	r3, [pc, #96]	; (8001c50 <SetSysClockTo72+0x100>)
 8001bf0:	4a17      	ldr	r2, [pc, #92]	; (8001c50 <SetSysClockTo72+0x100>)
 8001bf2:	6852      	ldr	r2, [r2, #4]
 8001bf4:	f422 127c 	bic.w	r2, r2, #4128768	; 0x3f0000
 8001bf8:	605a      	str	r2, [r3, #4]
 8001bfa:	4b15      	ldr	r3, [pc, #84]	; (8001c50 <SetSysClockTo72+0x100>)
 8001bfc:	4a14      	ldr	r2, [pc, #80]	; (8001c50 <SetSysClockTo72+0x100>)
 8001bfe:	6852      	ldr	r2, [r2, #4]
 8001c00:	f442 12e8 	orr.w	r2, r2, #1900544	; 0x1d0000
 8001c04:	605a      	str	r2, [r3, #4]
 8001c06:	4b12      	ldr	r3, [pc, #72]	; (8001c50 <SetSysClockTo72+0x100>)
 8001c08:	4a11      	ldr	r2, [pc, #68]	; (8001c50 <SetSysClockTo72+0x100>)
 8001c0a:	6812      	ldr	r2, [r2, #0]
 8001c0c:	f042 7280 	orr.w	r2, r2, #16777216	; 0x1000000
 8001c10:	601a      	str	r2, [r3, #0]
 8001c12:	bf00      	nop
 8001c14:	4b0e      	ldr	r3, [pc, #56]	; (8001c50 <SetSysClockTo72+0x100>)
 8001c16:	681b      	ldr	r3, [r3, #0]
 8001c18:	f003 7300 	and.w	r3, r3, #33554432	; 0x2000000
 8001c1c:	2b00      	cmp	r3, #0
 8001c1e:	d0f9      	beq.n	8001c14 <SetSysClockTo72+0xc4>
 8001c20:	4b0b      	ldr	r3, [pc, #44]	; (8001c50 <SetSysClockTo72+0x100>)
 8001c22:	4a0b      	ldr	r2, [pc, #44]	; (8001c50 <SetSysClockTo72+0x100>)
 8001c24:	6852      	ldr	r2, [r2, #4]
 8001c26:	f022 0203 	bic.w	r2, r2, #3
 8001c2a:	605a      	str	r2, [r3, #4]
 8001c2c:	4b08      	ldr	r3, [pc, #32]	; (8001c50 <SetSysClockTo72+0x100>)
 8001c2e:	4a08      	ldr	r2, [pc, #32]	; (8001c50 <SetSysClockTo72+0x100>)
 8001c30:	6852      	ldr	r2, [r2, #4]
 8001c32:	f042 0202 	orr.w	r2, r2, #2
 8001c36:	605a      	str	r2, [r3, #4]
 8001c38:	bf00      	nop
 8001c3a:	4b05      	ldr	r3, [pc, #20]	; (8001c50 <SetSysClockTo72+0x100>)
 8001c3c:	685b      	ldr	r3, [r3, #4]
 8001c3e:	f003 030c 	and.w	r3, r3, #12
 8001c42:	2b08      	cmp	r3, #8
 8001c44:	d1f9      	bne.n	8001c3a <SetSysClockTo72+0xea>
 8001c46:	f107 070c 	add.w	r7, r7, #12
 8001c4a:	46bd      	mov	sp, r7
 8001c4c:	bc80      	pop	{r7}
 8001c4e:	4770      	bx	lr
 8001c50:	40021000 	.word	0x40021000
 8001c54:	40022000 	.word	0x40022000

08001c58 <Default_Reset_Handler>:
 8001c58:	b580      	push	{r7, lr}
 8001c5a:	b082      	sub	sp, #8
 8001c5c:	af00      	add	r7, sp, #0
 8001c5e:	4b13      	ldr	r3, [pc, #76]	; (8001cac <zero_loop+0x1c>)
 8001c60:	607b      	str	r3, [r7, #4]
 8001c62:	4b13      	ldr	r3, [pc, #76]	; (8001cb0 <zero_loop+0x20>)
 8001c64:	603b      	str	r3, [r7, #0]
 8001c66:	e00b      	b.n	8001c80 <Default_Reset_Handler+0x28>
 8001c68:	687b      	ldr	r3, [r7, #4]
 8001c6a:	681a      	ldr	r2, [r3, #0]
 8001c6c:	683b      	ldr	r3, [r7, #0]
 8001c6e:	601a      	str	r2, [r3, #0]
 8001c70:	683b      	ldr	r3, [r7, #0]
 8001c72:	f103 0304 	add.w	r3, r3, #4
 8001c76:	603b      	str	r3, [r7, #0]
 8001c78:	687b      	ldr	r3, [r7, #4]
 8001c7a:	f103 0304 	add.w	r3, r3, #4
 8001c7e:	607b      	str	r3, [r7, #4]
 8001c80:	683a      	ldr	r2, [r7, #0]
 8001c82:	4b0c      	ldr	r3, [pc, #48]	; (8001cb4 <zero_loop+0x24>)
 8001c84:	429a      	cmp	r2, r3
 8001c86:	d3ef      	bcc.n	8001c68 <Default_Reset_Handler+0x10>
 8001c88:	480b      	ldr	r0, [pc, #44]	; (8001cb8 <zero_loop+0x28>)
 8001c8a:	490c      	ldr	r1, [pc, #48]	; (8001cbc <zero_loop+0x2c>)
 8001c8c:	f04f 0200 	mov.w	r2, #0

08001c90 <zero_loop>:
 8001c90:	4288      	cmp	r0, r1
 8001c92:	bfb8      	it	lt
 8001c94:	f840 2b04 	strlt.w	r2, [r0], #4
 8001c98:	dbfa      	blt.n	8001c90 <zero_loop>
 8001c9a:	f7ff ff1f 	bl	8001adc <SystemInit>
 8001c9e:	f000 fb5b 	bl	8002358 <main>
 8001ca2:	f107 0708 	add.w	r7, r7, #8
 8001ca6:	46bd      	mov	sp, r7
 8001ca8:	bd80      	pop	{r7, pc}
 8001caa:	bf00      	nop
 8001cac:	080073b4 	.word	0x080073b4
 8001cb0:	20000000 	.word	0x20000000
 8001cb4:	20000568 	.word	0x20000568
 8001cb8:	20000568 	.word	0x20000568
 8001cbc:	20001f44 	.word	0x20001f44

08001cc0 <ADC1_2_IRQHandler>:
 8001cc0:	b480      	push	{r7}
 8001cc2:	af00      	add	r7, sp, #0
 8001cc4:	e7fe      	b.n	8001cc4 <ADC1_2_IRQHandler+0x4>
 8001cc6:	bf00      	nop

08001cc8 <Crc16>:
 8001cc8:	b480      	push	{r7}
 8001cca:	b083      	sub	sp, #12
 8001ccc:	af00      	add	r7, sp, #0
 8001cce:	6078      	str	r0, [r7, #4]
 8001cd0:	4613      	mov	r3, r2
 8001cd2:	460a      	mov	r2, r1
 8001cd4:	807a      	strh	r2, [r7, #2]
 8001cd6:	803b      	strh	r3, [r7, #0]
 8001cd8:	e013      	b.n	8001d02 <Crc16+0x3a>
 8001cda:	883b      	ldrh	r3, [r7, #0]
 8001cdc:	ea4f 2313 	mov.w	r3, r3, lsr #8
 8001ce0:	b29a      	uxth	r2, r3
 8001ce2:	883b      	ldrh	r3, [r7, #0]
 8001ce4:	f003 01ff 	and.w	r1, r3, #255	; 0xff
 8001ce8:	687b      	ldr	r3, [r7, #4]
 8001cea:	781b      	ldrb	r3, [r3, #0]
 8001cec:	4059      	eors	r1, r3
 8001cee:	4b0e      	ldr	r3, [pc, #56]	; (8001d28 <Crc16+0x60>)
 8001cf0:	f833 3011 	ldrh.w	r3, [r3, r1, lsl #1]
 8001cf4:	ea82 0303 	eor.w	r3, r2, r3
 8001cf8:	803b      	strh	r3, [r7, #0]
 8001cfa:	687b      	ldr	r3, [r7, #4]
 8001cfc:	f103 0301 	add.w	r3, r3, #1
 8001d00:	607b      	str	r3, [r7, #4]
 8001d02:	887b      	ldrh	r3, [r7, #2]
 8001d04:	2b00      	cmp	r3, #0
 8001d06:	bf0c      	ite	eq
 8001d08:	2300      	moveq	r3, #0
 8001d0a:	2301      	movne	r3, #1
 8001d0c:	b2db      	uxtb	r3, r3
 8001d0e:	887a      	ldrh	r2, [r7, #2]
 8001d10:	f102 32ff 	add.w	r2, r2, #4294967295
 8001d14:	807a      	strh	r2, [r7, #2]
 8001d16:	2b00      	cmp	r3, #0
 8001d18:	d1df      	bne.n	8001cda <Crc16+0x12>
 8001d1a:	883b      	ldrh	r3, [r7, #0]
 8001d1c:	4618      	mov	r0, r3
 8001d1e:	f107 070c 	add.w	r7, r7, #12
 8001d22:	46bd      	mov	sp, r7
 8001d24:	bc80      	pop	{r7}
 8001d26:	4770      	bx	lr
 8001d28:	08006b0c 	.word	0x08006b0c

08001d2c <GPIO_Init>:
 8001d2c:	b480      	push	{r7}
 8001d2e:	b089      	sub	sp, #36	; 0x24
 8001d30:	af00      	add	r7, sp, #0
 8001d32:	6078      	str	r0, [r7, #4]
 8001d34:	6039      	str	r1, [r7, #0]
 8001d36:	f04f 0300 	mov.w	r3, #0
 8001d3a:	61fb      	str	r3, [r7, #28]
 8001d3c:	f04f 0300 	mov.w	r3, #0
 8001d40:	613b      	str	r3, [r7, #16]
 8001d42:	f04f 0300 	mov.w	r3, #0
 8001d46:	61bb      	str	r3, [r7, #24]
 8001d48:	f04f 0300 	mov.w	r3, #0
 8001d4c:	60fb      	str	r3, [r7, #12]
 8001d4e:	f04f 0300 	mov.w	r3, #0
 8001d52:	617b      	str	r3, [r7, #20]
 8001d54:	f04f 0300 	mov.w	r3, #0
 8001d58:	60bb      	str	r3, [r7, #8]
 8001d5a:	683b      	ldr	r3, [r7, #0]
 8001d5c:	78db      	ldrb	r3, [r3, #3]
 8001d5e:	f003 030f 	and.w	r3, r3, #15
 8001d62:	61fb      	str	r3, [r7, #28]
 8001d64:	683b      	ldr	r3, [r7, #0]
 8001d66:	78db      	ldrb	r3, [r3, #3]
 8001d68:	f003 0310 	and.w	r3, r3, #16
 8001d6c:	2b00      	cmp	r3, #0
 8001d6e:	d005      	beq.n	8001d7c <GPIO_Init+0x50>
 8001d70:	683b      	ldr	r3, [r7, #0]
 8001d72:	789b      	ldrb	r3, [r3, #2]
 8001d74:	69fa      	ldr	r2, [r7, #28]
 8001d76:	ea42 0303 	orr.w	r3, r2, r3
 8001d7a:	61fb      	str	r3, [r7, #28]
 8001d7c:	683b      	ldr	r3, [r7, #0]
 8001d7e:	881b      	ldrh	r3, [r3, #0]
 8001d80:	f003 03ff 	and.w	r3, r3, #255	; 0xff
 8001d84:	2b00      	cmp	r3, #0
 8001d86:	d051      	beq.n	8001e2c <GPIO_Init+0x100>
 8001d88:	687b      	ldr	r3, [r7, #4]
 8001d8a:	681b      	ldr	r3, [r3, #0]
 8001d8c:	617b      	str	r3, [r7, #20]
 8001d8e:	f04f 0300 	mov.w	r3, #0
 8001d92:	61bb      	str	r3, [r7, #24]
 8001d94:	e044      	b.n	8001e20 <GPIO_Init+0xf4>
 8001d96:	69bb      	ldr	r3, [r7, #24]
 8001d98:	f04f 0201 	mov.w	r2, #1
 8001d9c:	fa02 f303 	lsl.w	r3, r2, r3
 8001da0:	60fb      	str	r3, [r7, #12]
 8001da2:	683b      	ldr	r3, [r7, #0]
 8001da4:	881b      	ldrh	r3, [r3, #0]
 8001da6:	461a      	mov	r2, r3
 8001da8:	68fb      	ldr	r3, [r7, #12]
 8001daa:	ea02 0303 	and.w	r3, r2, r3
 8001dae:	613b      	str	r3, [r7, #16]
 8001db0:	693a      	ldr	r2, [r7, #16]
 8001db2:	68fb      	ldr	r3, [r7, #12]
 8001db4:	429a      	cmp	r2, r3
 8001db6:	d12f      	bne.n	8001e18 <GPIO_Init+0xec>
 8001db8:	69bb      	ldr	r3, [r7, #24]
 8001dba:	ea4f 0383 	mov.w	r3, r3, lsl #2
 8001dbe:	60fb      	str	r3, [r7, #12]
 8001dc0:	68fb      	ldr	r3, [r7, #12]
 8001dc2:	f04f 020f 	mov.w	r2, #15
 8001dc6:	fa02 f303 	lsl.w	r3, r2, r3
 8001dca:	60bb      	str	r3, [r7, #8]
 8001dcc:	68bb      	ldr	r3, [r7, #8]
 8001dce:	ea6f 0303 	mvn.w	r3, r3
 8001dd2:	697a      	ldr	r2, [r7, #20]
 8001dd4:	ea02 0303 	and.w	r3, r2, r3
 8001dd8:	617b      	str	r3, [r7, #20]
 8001dda:	68fb      	ldr	r3, [r7, #12]
 8001ddc:	69fa      	ldr	r2, [r7, #28]
 8001dde:	fa02 f303 	lsl.w	r3, r2, r3
 8001de2:	697a      	ldr	r2, [r7, #20]
 8001de4:	ea42 0303 	orr.w	r3, r2, r3
 8001de8:	617b      	str	r3, [r7, #20]
 8001dea:	683b      	ldr	r3, [r7, #0]
 8001dec:	78db      	ldrb	r3, [r3, #3]
 8001dee:	2b28      	cmp	r3, #40	; 0x28
 8001df0:	d107      	bne.n	8001e02 <GPIO_Init+0xd6>
 8001df2:	69bb      	ldr	r3, [r7, #24]
 8001df4:	f04f 0201 	mov.w	r2, #1
 8001df8:	fa02 f203 	lsl.w	r2, r2, r3
 8001dfc:	687b      	ldr	r3, [r7, #4]
 8001dfe:	615a      	str	r2, [r3, #20]
 8001e00:	e00a      	b.n	8001e18 <GPIO_Init+0xec>
 8001e02:	683b      	ldr	r3, [r7, #0]
 8001e04:	78db      	ldrb	r3, [r3, #3]
 8001e06:	2b48      	cmp	r3, #72	; 0x48
 8001e08:	d106      	bne.n	8001e18 <GPIO_Init+0xec>
 8001e0a:	69bb      	ldr	r3, [r7, #24]
 8001e0c:	f04f 0201 	mov.w	r2, #1
 8001e10:	fa02 f203 	lsl.w	r2, r2, r3
 8001e14:	687b      	ldr	r3, [r7, #4]
 8001e16:	611a      	str	r2, [r3, #16]
 8001e18:	69bb      	ldr	r3, [r7, #24]
 8001e1a:	f103 0301 	add.w	r3, r3, #1
 8001e1e:	61bb      	str	r3, [r7, #24]
 8001e20:	69bb      	ldr	r3, [r7, #24]
 8001e22:	2b07      	cmp	r3, #7
 8001e24:	d9b7      	bls.n	8001d96 <GPIO_Init+0x6a>
 8001e26:	687b      	ldr	r3, [r7, #4]
 8001e28:	697a      	ldr	r2, [r7, #20]
 8001e2a:	601a      	str	r2, [r3, #0]
 8001e2c:	683b      	ldr	r3, [r7, #0]
 8001e2e:	881b      	ldrh	r3, [r3, #0]
 8001e30:	2bff      	cmp	r3, #255	; 0xff
 8001e32:	d956      	bls.n	8001ee2 <GPIO_Init+0x1b6>
 8001e34:	687b      	ldr	r3, [r7, #4]
 8001e36:	685b      	ldr	r3, [r3, #4]
 8001e38:	617b      	str	r3, [r7, #20]
 8001e3a:	f04f 0300 	mov.w	r3, #0
 8001e3e:	61bb      	str	r3, [r7, #24]
 8001e40:	e049      	b.n	8001ed6 <GPIO_Init+0x1aa>
 8001e42:	69bb      	ldr	r3, [r7, #24]
 8001e44:	f103 0308 	add.w	r3, r3, #8
 8001e48:	f04f 0201 	mov.w	r2, #1
 8001e4c:	fa02 f303 	lsl.w	r3, r2, r3
 8001e50:	60fb      	str	r3, [r7, #12]
 8001e52:	683b      	ldr	r3, [r7, #0]
 8001e54:	881b      	ldrh	r3, [r3, #0]
 8001e56:	461a      	mov	r2, r3
 8001e58:	68fb      	ldr	r3, [r7, #12]
 8001e5a:	ea02 0303 	and.w	r3, r2, r3
 8001e5e:	613b      	str	r3, [r7, #16]
 8001e60:	693a      	ldr	r2, [r7, #16]
 8001e62:	68fb      	ldr	r3, [r7, #12]
 8001e64:	429a      	cmp	r2, r3
 8001e66:	d132      	bne.n	8001ece <GPIO_Init+0x1a2>
 8001e68:	69bb      	ldr	r3, [r7, #24]
 8001e6a:	ea4f 0383 	mov.w	r3, r3, lsl #2
 8001e6e:	60fb      	str	r3, [r7, #12]
 8001e70:	68fb      	ldr	r3, [r7, #12]
 8001e72:	f04f 020f 	mov.w	r2, #15
 8001e76:	fa02 f303 	lsl.w	r3, r2, r3
 8001e7a:	60bb      	str	r3, [r7, #8]
 8001e7c:	68bb      	ldr	r3, [r7, #8]
 8001e7e:	ea6f 0303 	mvn.w	r3, r3
 8001e82:	697a      	ldr	r2, [r7, #20]
 8001e84:	ea02 0303 	and.w	r3, r2, r3
 8001e88:	617b      	str	r3, [r7, #20]
 8001e8a:	68fb      	ldr	r3, [r7, #12]
 8001e8c:	69fa      	ldr	r2, [r7, #28]
 8001e8e:	fa02 f303 	lsl.w	r3, r2, r3
 8001e92:	697a      	ldr	r2, [r7, #20]
 8001e94:	ea42 0303 	orr.w	r3, r2, r3
 8001e98:	617b      	str	r3, [r7, #20]
 8001e9a:	683b      	ldr	r3, [r7, #0]
 8001e9c:	78db      	ldrb	r3, [r3, #3]
 8001e9e:	2b28      	cmp	r3, #40	; 0x28
 8001ea0:	d108      	bne.n	8001eb4 <GPIO_Init+0x188>
 8001ea2:	69bb      	ldr	r3, [r7, #24]
 8001ea4:	f103 0308 	add.w	r3, r3, #8
 8001ea8:	f04f 0201 	mov.w	r2, #1
 8001eac:	fa02 f203 	lsl.w	r2, r2, r3
 8001eb0:	687b      	ldr	r3, [r7, #4]
 8001eb2:	615a      	str	r2, [r3, #20]
 8001eb4:	683b      	ldr	r3, [r7, #0]
 8001eb6:	78db      	ldrb	r3, [r3, #3]
 8001eb8:	2b48      	cmp	r3, #72	; 0x48
 8001eba:	d108      	bne.n	8001ece <GPIO_Init+0x1a2>
 8001ebc:	69bb      	ldr	r3, [r7, #24]
 8001ebe:	f103 0308 	add.w	r3, r3, #8
 8001ec2:	f04f 0201 	mov.w	r2, #1
 8001ec6:	fa02 f203 	lsl.w	r2, r2, r3
 8001eca:	687b      	ldr	r3, [r7, #4]
 8001ecc:	611a      	str	r2, [r3, #16]
 8001ece:	69bb      	ldr	r3, [r7, #24]
 8001ed0:	f103 0301 	add.w	r3, r3, #1
 8001ed4:	61bb      	str	r3, [r7, #24]
 8001ed6:	69bb      	ldr	r3, [r7, #24]
 8001ed8:	2b07      	cmp	r3, #7
 8001eda:	d9b2      	bls.n	8001e42 <GPIO_Init+0x116>
 8001edc:	687b      	ldr	r3, [r7, #4]
 8001ede:	697a      	ldr	r2, [r7, #20]
 8001ee0:	605a      	str	r2, [r3, #4]
 8001ee2:	f107 0724 	add.w	r7, r7, #36	; 0x24
 8001ee6:	46bd      	mov	sp, r7
 8001ee8:	bc80      	pop	{r7}
 8001eea:	4770      	bx	lr

08001eec <GPIO_StructInit>:
 8001eec:	b480      	push	{r7}
 8001eee:	b083      	sub	sp, #12
 8001ef0:	af00      	add	r7, sp, #0
 8001ef2:	6078      	str	r0, [r7, #4]
 8001ef4:	687b      	ldr	r3, [r7, #4]
 8001ef6:	f64f 72ff 	movw	r2, #65535	; 0xffff
 8001efa:	801a      	strh	r2, [r3, #0]
 8001efc:	687b      	ldr	r3, [r7, #4]
 8001efe:	f04f 0202 	mov.w	r2, #2
 8001f02:	709a      	strb	r2, [r3, #2]
 8001f04:	687b      	ldr	r3, [r7, #4]
 8001f06:	f04f 0204 	mov.w	r2, #4
 8001f0a:	70da      	strb	r2, [r3, #3]
 8001f0c:	f107 070c 	add.w	r7, r7, #12
 8001f10:	46bd      	mov	sp, r7
 8001f12:	bc80      	pop	{r7}
 8001f14:	4770      	bx	lr
 8001f16:	bf00      	nop

08001f18 <GPIO_PinRemapConfig>:
 8001f18:	b480      	push	{r7}
 8001f1a:	b087      	sub	sp, #28
 8001f1c:	af00      	add	r7, sp, #0
 8001f1e:	6078      	str	r0, [r7, #4]
 8001f20:	460b      	mov	r3, r1
 8001f22:	70fb      	strb	r3, [r7, #3]
 8001f24:	f04f 0300 	mov.w	r3, #0
 8001f28:	613b      	str	r3, [r7, #16]
 8001f2a:	f04f 0300 	mov.w	r3, #0
 8001f2e:	60fb      	str	r3, [r7, #12]
 8001f30:	f04f 0300 	mov.w	r3, #0
 8001f34:	617b      	str	r3, [r7, #20]
 8001f36:	f04f 0300 	mov.w	r3, #0
 8001f3a:	60bb      	str	r3, [r7, #8]
 8001f3c:	687b      	ldr	r3, [r7, #4]
 8001f3e:	2b00      	cmp	r3, #0
 8001f40:	da03      	bge.n	8001f4a <GPIO_PinRemapConfig+0x32>
 8001f42:	4b35      	ldr	r3, [pc, #212]	; (8002018 <GPIO_PinRemapConfig+0x100>)
 8001f44:	69db      	ldr	r3, [r3, #28]
 8001f46:	617b      	str	r3, [r7, #20]
 8001f48:	e002      	b.n	8001f50 <GPIO_PinRemapConfig+0x38>
 8001f4a:	4b33      	ldr	r3, [pc, #204]	; (8002018 <GPIO_PinRemapConfig+0x100>)
 8001f4c:	685b      	ldr	r3, [r3, #4]
 8001f4e:	617b      	str	r3, [r7, #20]
 8001f50:	687b      	ldr	r3, [r7, #4]
 8001f52:	f403 2370 	and.w	r3, r3, #983040	; 0xf0000
 8001f56:	ea4f 4313 	mov.w	r3, r3, lsr #16
 8001f5a:	60bb      	str	r3, [r7, #8]
 8001f5c:	687b      	ldr	r3, [r7, #4]
 8001f5e:	ea4f 4303 	mov.w	r3, r3, lsl #16
 8001f62:	ea4f 4313 	mov.w	r3, r3, lsr #16
 8001f66:	613b      	str	r3, [r7, #16]
 8001f68:	687b      	ldr	r3, [r7, #4]
 8001f6a:	f403 1340 	and.w	r3, r3, #3145728	; 0x300000
 8001f6e:	f5b3 1f40 	cmp.w	r3, #3145728	; 0x300000
 8001f72:	d10a      	bne.n	8001f8a <GPIO_PinRemapConfig+0x72>
 8001f74:	697b      	ldr	r3, [r7, #20]
 8001f76:	f023 6370 	bic.w	r3, r3, #251658240	; 0xf000000
 8001f7a:	617b      	str	r3, [r7, #20]
 8001f7c:	4b26      	ldr	r3, [pc, #152]	; (8002018 <GPIO_PinRemapConfig+0x100>)
 8001f7e:	4a26      	ldr	r2, [pc, #152]	; (8002018 <GPIO_PinRemapConfig+0x100>)
 8001f80:	6852      	ldr	r2, [r2, #4]
 8001f82:	f022 6270 	bic.w	r2, r2, #251658240	; 0xf000000
 8001f86:	605a      	str	r2, [r3, #4]
 8001f88:	e028      	b.n	8001fdc <GPIO_PinRemapConfig+0xc4>
 8001f8a:	687b      	ldr	r3, [r7, #4]
 8001f8c:	f403 1380 	and.w	r3, r3, #1048576	; 0x100000
 8001f90:	2b00      	cmp	r3, #0
 8001f92:	d011      	beq.n	8001fb8 <GPIO_PinRemapConfig+0xa0>
 8001f94:	68bb      	ldr	r3, [r7, #8]
 8001f96:	f04f 0203 	mov.w	r2, #3
 8001f9a:	fa02 f303 	lsl.w	r3, r2, r3
 8001f9e:	60fb      	str	r3, [r7, #12]
 8001fa0:	68fb      	ldr	r3, [r7, #12]
 8001fa2:	ea6f 0303 	mvn.w	r3, r3
 8001fa6:	697a      	ldr	r2, [r7, #20]
 8001fa8:	ea02 0303 	and.w	r3, r2, r3
 8001fac:	617b      	str	r3, [r7, #20]
 8001fae:	697b      	ldr	r3, [r7, #20]
 8001fb0:	f043 6370 	orr.w	r3, r3, #251658240	; 0xf000000
 8001fb4:	617b      	str	r3, [r7, #20]
 8001fb6:	e011      	b.n	8001fdc <GPIO_PinRemapConfig+0xc4>
 8001fb8:	687b      	ldr	r3, [r7, #4]
 8001fba:	ea4f 5353 	mov.w	r3, r3, lsr #21
 8001fbe:	ea4f 1303 	mov.w	r3, r3, lsl #4
 8001fc2:	693a      	ldr	r2, [r7, #16]
 8001fc4:	fa02 f303 	lsl.w	r3, r2, r3
 8001fc8:	ea6f 0303 	mvn.w	r3, r3
 8001fcc:	697a      	ldr	r2, [r7, #20]
 8001fce:	ea02 0303 	and.w	r3, r2, r3
 8001fd2:	617b      	str	r3, [r7, #20]
 8001fd4:	697b      	ldr	r3, [r7, #20]
 8001fd6:	f043 6370 	orr.w	r3, r3, #251658240	; 0xf000000
 8001fda:	617b      	str	r3, [r7, #20]
 8001fdc:	78fb      	ldrb	r3, [r7, #3]
 8001fde:	2b00      	cmp	r3, #0
 8001fe0:	d00b      	beq.n	8001ffa <GPIO_PinRemapConfig+0xe2>
 8001fe2:	687b      	ldr	r3, [r7, #4]
 8001fe4:	ea4f 5353 	mov.w	r3, r3, lsr #21
 8001fe8:	ea4f 1303 	mov.w	r3, r3, lsl #4
 8001fec:	693a      	ldr	r2, [r7, #16]
 8001fee:	fa02 f303 	lsl.w	r3, r2, r3
 8001ff2:	697a      	ldr	r2, [r7, #20]
 8001ff4:	ea42 0303 	orr.w	r3, r2, r3
 8001ff8:	617b      	str	r3, [r7, #20]
 8001ffa:	687b      	ldr	r3, [r7, #4]
 8001ffc:	2b00      	cmp	r3, #0
 8001ffe:	da03      	bge.n	8002008 <GPIO_PinRemapConfig+0xf0>
 8002000:	4b05      	ldr	r3, [pc, #20]	; (8002018 <GPIO_PinRemapConfig+0x100>)
 8002002:	697a      	ldr	r2, [r7, #20]
 8002004:	61da      	str	r2, [r3, #28]
 8002006:	e002      	b.n	800200e <GPIO_PinRemapConfig+0xf6>
 8002008:	4b03      	ldr	r3, [pc, #12]	; (8002018 <GPIO_PinRemapConfig+0x100>)
 800200a:	697a      	ldr	r2, [r7, #20]
 800200c:	605a      	str	r2, [r3, #4]
 800200e:	f107 071c 	add.w	r7, r7, #28
 8002012:	46bd      	mov	sp, r7
 8002014:	bc80      	pop	{r7}
 8002016:	4770      	bx	lr
 8002018:	40010000 	.word	0x40010000

0800201c <GPIO_EXTILineConfig>:
 800201c:	b490      	push	{r4, r7}
 800201e:	b084      	sub	sp, #16
 8002020:	af00      	add	r7, sp, #0
 8002022:	4602      	mov	r2, r0
 8002024:	460b      	mov	r3, r1
 8002026:	71fa      	strb	r2, [r7, #7]
 8002028:	71bb      	strb	r3, [r7, #6]
 800202a:	f04f 0300 	mov.w	r3, #0
 800202e:	60fb      	str	r3, [r7, #12]
 8002030:	79bb      	ldrb	r3, [r7, #6]
 8002032:	f003 0303 	and.w	r3, r3, #3
 8002036:	ea4f 0383 	mov.w	r3, r3, lsl #2
 800203a:	f04f 020f 	mov.w	r2, #15
 800203e:	fa02 f303 	lsl.w	r3, r2, r3
 8002042:	60fb      	str	r3, [r7, #12]
 8002044:	4b1b      	ldr	r3, [pc, #108]	; (80020b4 <GPIO_EXTILineConfig+0x98>)
 8002046:	79ba      	ldrb	r2, [r7, #6]
 8002048:	ea4f 0292 	mov.w	r2, r2, lsr #2
 800204c:	b2d2      	uxtb	r2, r2
 800204e:	4919      	ldr	r1, [pc, #100]	; (80020b4 <GPIO_EXTILineConfig+0x98>)
 8002050:	79b8      	ldrb	r0, [r7, #6]
 8002052:	ea4f 0090 	mov.w	r0, r0, lsr #2
 8002056:	b2c0      	uxtb	r0, r0
 8002058:	f100 0002 	add.w	r0, r0, #2
 800205c:	f851 0020 	ldr.w	r0, [r1, r0, lsl #2]
 8002060:	68f9      	ldr	r1, [r7, #12]
 8002062:	ea6f 0101 	mvn.w	r1, r1
 8002066:	ea00 0101 	and.w	r1, r0, r1
 800206a:	f102 0202 	add.w	r2, r2, #2
 800206e:	f843 1022 	str.w	r1, [r3, r2, lsl #2]
 8002072:	4b10      	ldr	r3, [pc, #64]	; (80020b4 <GPIO_EXTILineConfig+0x98>)
 8002074:	79ba      	ldrb	r2, [r7, #6]
 8002076:	ea4f 0292 	mov.w	r2, r2, lsr #2
 800207a:	b2d2      	uxtb	r2, r2
 800207c:	490d      	ldr	r1, [pc, #52]	; (80020b4 <GPIO_EXTILineConfig+0x98>)
 800207e:	79b8      	ldrb	r0, [r7, #6]
 8002080:	ea4f 0090 	mov.w	r0, r0, lsr #2
 8002084:	b2c0      	uxtb	r0, r0
 8002086:	f100 0002 	add.w	r0, r0, #2
 800208a:	f851 0020 	ldr.w	r0, [r1, r0, lsl #2]
 800208e:	79fc      	ldrb	r4, [r7, #7]
 8002090:	79b9      	ldrb	r1, [r7, #6]
 8002092:	f001 0103 	and.w	r1, r1, #3
 8002096:	ea4f 0181 	mov.w	r1, r1, lsl #2
 800209a:	fa04 f101 	lsl.w	r1, r4, r1
 800209e:	ea40 0101 	orr.w	r1, r0, r1
 80020a2:	f102 0202 	add.w	r2, r2, #2
 80020a6:	f843 1022 	str.w	r1, [r3, r2, lsl #2]
 80020aa:	f107 0710 	add.w	r7, r7, #16
 80020ae:	46bd      	mov	sp, r7
 80020b0:	bc90      	pop	{r4, r7}
 80020b2:	4770      	bx	lr
 80020b4:	40010000 	.word	0x40010000

080020b8 <NVIC_EnableIRQ>:
 80020b8:	b480      	push	{r7}
 80020ba:	b083      	sub	sp, #12
 80020bc:	af00      	add	r7, sp, #0
 80020be:	4603      	mov	r3, r0
 80020c0:	71fb      	strb	r3, [r7, #7]
 80020c2:	4b09      	ldr	r3, [pc, #36]	; (80020e8 <NVIC_EnableIRQ+0x30>)
 80020c4:	f997 2007 	ldrsb.w	r2, [r7, #7]
 80020c8:	ea4f 1252 	mov.w	r2, r2, lsr #5
 80020cc:	79f9      	ldrb	r1, [r7, #7]
 80020ce:	f001 011f 	and.w	r1, r1, #31
 80020d2:	f04f 0001 	mov.w	r0, #1
 80020d6:	fa00 f101 	lsl.w	r1, r0, r1
 80020da:	f843 1022 	str.w	r1, [r3, r2, lsl #2]
 80020de:	f107 070c 	add.w	r7, r7, #12
 80020e2:	46bd      	mov	sp, r7
 80020e4:	bc80      	pop	{r7}
 80020e6:	4770      	bx	lr
 80020e8:	e000e100 	.word	0xe000e100

080020ec <NVIC_SetPriority>:
 80020ec:	b480      	push	{r7}
 80020ee:	b083      	sub	sp, #12
 80020f0:	af00      	add	r7, sp, #0
 80020f2:	4603      	mov	r3, r0
 80020f4:	6039      	str	r1, [r7, #0]
 80020f6:	71fb      	strb	r3, [r7, #7]
 80020f8:	f997 3007 	ldrsb.w	r3, [r7, #7]
 80020fc:	2b00      	cmp	r3, #0
 80020fe:	da0d      	bge.n	800211c <NVIC_SetPriority+0x30>
 8002100:	490e      	ldr	r1, [pc, #56]	; (800213c <NVIC_SetPriority+0x50>)
 8002102:	79fb      	ldrb	r3, [r7, #7]
 8002104:	f003 030f 	and.w	r3, r3, #15
 8002108:	f1a3 0304 	sub.w	r3, r3, #4
 800210c:	683a      	ldr	r2, [r7, #0]
 800210e:	b2d2      	uxtb	r2, r2
 8002110:	ea4f 1202 	mov.w	r2, r2, lsl #4
 8002114:	b2d2      	uxtb	r2, r2
 8002116:	18cb      	adds	r3, r1, r3
 8002118:	761a      	strb	r2, [r3, #24]
 800211a:	e00a      	b.n	8002132 <NVIC_SetPriority+0x46>
 800211c:	4908      	ldr	r1, [pc, #32]	; (8002140 <NVIC_SetPriority+0x54>)
 800211e:	f997 3007 	ldrsb.w	r3, [r7, #7]
 8002122:	683a      	ldr	r2, [r7, #0]
 8002124:	b2d2      	uxtb	r2, r2
 8002126:	ea4f 1202 	mov.w	r2, r2, lsl #4
 800212a:	b2d2      	uxtb	r2, r2
 800212c:	18cb      	adds	r3, r1, r3
 800212e:	f883 2300 	strb.w	r2, [r3, #768]	; 0x300
 8002132:	f107 070c 	add.w	r7, r7, #12
 8002136:	46bd      	mov	sp, r7
 8002138:	bc80      	pop	{r7}
 800213a:	4770      	bx	lr
 800213c:	e000ed00 	.word	0xe000ed00
 8002140:	e000e100 	.word	0xe000e100

08002144 <IrWaitFirstCodeLedOn>:
 8002144:	b480      	push	{r7}
 8002146:	af00      	add	r7, sp, #0
 8002148:	4b04      	ldr	r3, [pc, #16]	; (800215c <IrWaitFirstCodeLedOn+0x18>)
 800214a:	4a04      	ldr	r2, [pc, #16]	; (800215c <IrWaitFirstCodeLedOn+0x18>)
 800214c:	6952      	ldr	r2, [r2, #20]
 800214e:	f442 5280 	orr.w	r2, r2, #4096	; 0x1000
 8002152:	615a      	str	r2, [r3, #20]
 8002154:	46bd      	mov	sp, r7
 8002156:	bc80      	pop	{r7}
 8002158:	4770      	bx	lr
 800215a:	bf00      	nop
 800215c:	40011000 	.word	0x40011000

08002160 <IrWaitFirstCodeLedOff>:
 8002160:	b480      	push	{r7}
 8002162:	af00      	add	r7, sp, #0
 8002164:	4b04      	ldr	r3, [pc, #16]	; (8002178 <IrWaitFirstCodeLedOff+0x18>)
 8002166:	4a04      	ldr	r2, [pc, #16]	; (8002178 <IrWaitFirstCodeLedOff+0x18>)
 8002168:	6912      	ldr	r2, [r2, #16]
 800216a:	f442 5280 	orr.w	r2, r2, #4096	; 0x1000
 800216e:	611a      	str	r2, [r3, #16]
 8002170:	46bd      	mov	sp, r7
 8002172:	bc80      	pop	{r7}
 8002174:	4770      	bx	lr
 8002176:	bf00      	nop
 8002178:	40011000 	.word	0x40011000

0800217c <IrWaitSecondCodeLedOn>:
 800217c:	b480      	push	{r7}
 800217e:	af00      	add	r7, sp, #0
 8002180:	4b04      	ldr	r3, [pc, #16]	; (8002194 <IrWaitSecondCodeLedOn+0x18>)
 8002182:	4a04      	ldr	r2, [pc, #16]	; (8002194 <IrWaitSecondCodeLedOn+0x18>)
 8002184:	6952      	ldr	r2, [r2, #20]
 8002186:	f042 0204 	orr.w	r2, r2, #4
 800218a:	615a      	str	r2, [r3, #20]
 800218c:	46bd      	mov	sp, r7
 800218e:	bc80      	pop	{r7}
 8002190:	4770      	bx	lr
 8002192:	bf00      	nop
 8002194:	40011400 	.word	0x40011400

08002198 <IrWaitSecondCodeLedOff>:
 8002198:	b480      	push	{r7}
 800219a:	af00      	add	r7, sp, #0
 800219c:	4b04      	ldr	r3, [pc, #16]	; (80021b0 <IrWaitSecondCodeLedOff+0x18>)
 800219e:	4a04      	ldr	r2, [pc, #16]	; (80021b0 <IrWaitSecondCodeLedOff+0x18>)
 80021a0:	6912      	ldr	r2, [r2, #16]
 80021a2:	f042 0204 	orr.w	r2, r2, #4
 80021a6:	611a      	str	r2, [r3, #16]
 80021a8:	46bd      	mov	sp, r7
 80021aa:	bc80      	pop	{r7}
 80021ac:	4770      	bx	lr
 80021ae:	bf00      	nop
 80021b0:	40011400 	.word	0x40011400

080021b4 <PowerLedOn>:
 80021b4:	b480      	push	{r7}
 80021b6:	af00      	add	r7, sp, #0
 80021b8:	4b04      	ldr	r3, [pc, #16]	; (80021cc <PowerLedOn+0x18>)
 80021ba:	4a04      	ldr	r2, [pc, #16]	; (80021cc <PowerLedOn+0x18>)
 80021bc:	6952      	ldr	r2, [r2, #20]
 80021be:	f042 0210 	orr.w	r2, r2, #16
 80021c2:	615a      	str	r2, [r3, #20]
 80021c4:	46bd      	mov	sp, r7
 80021c6:	bc80      	pop	{r7}
 80021c8:	4770      	bx	lr
 80021ca:	bf00      	nop
 80021cc:	40010c00 	.word	0x40010c00

080021d0 <NetworkLedOn>:
 80021d0:	b480      	push	{r7}
 80021d2:	af00      	add	r7, sp, #0
 80021d4:	4b04      	ldr	r3, [pc, #16]	; (80021e8 <NetworkLedOn+0x18>)
 80021d6:	4a04      	ldr	r2, [pc, #16]	; (80021e8 <NetworkLedOn+0x18>)
 80021d8:	6952      	ldr	r2, [r2, #20]
 80021da:	f042 0208 	orr.w	r2, r2, #8
 80021de:	615a      	str	r2, [r3, #20]
 80021e0:	46bd      	mov	sp, r7
 80021e2:	bc80      	pop	{r7}
 80021e4:	4770      	bx	lr
 80021e6:	bf00      	nop
 80021e8:	40010c00 	.word	0x40010c00

080021ec <NetworkLedOff>:
 80021ec:	b480      	push	{r7}
 80021ee:	af00      	add	r7, sp, #0
 80021f0:	4b04      	ldr	r3, [pc, #16]	; (8002204 <NetworkLedOff+0x18>)
 80021f2:	4a04      	ldr	r2, [pc, #16]	; (8002204 <NetworkLedOff+0x18>)
 80021f4:	6912      	ldr	r2, [r2, #16]
 80021f6:	f042 0208 	orr.w	r2, r2, #8
 80021fa:	611a      	str	r2, [r3, #16]
 80021fc:	46bd      	mov	sp, r7
 80021fe:	bc80      	pop	{r7}
 8002200:	4770      	bx	lr
 8002202:	bf00      	nop
 8002204:	40010c00 	.word	0x40010c00

08002208 <RunScan>:
 8002208:	b480      	push	{r7}
 800220a:	af00      	add	r7, sp, #0
 800220c:	4b08      	ldr	r3, [pc, #32]	; (8002230 <RunScan+0x28>)
 800220e:	781b      	ldrb	r3, [r3, #0]
 8002210:	2b00      	cmp	r3, #0
 8002212:	d108      	bne.n	8002226 <RunScan+0x1e>
 8002214:	4b06      	ldr	r3, [pc, #24]	; (8002230 <RunScan+0x28>)
 8002216:	f04f 0201 	mov.w	r2, #1
 800221a:	701a      	strb	r2, [r3, #0]
 800221c:	4b05      	ldr	r3, [pc, #20]	; (8002234 <RunScan+0x2c>)
 800221e:	f04f 0200 	mov.w	r2, #0
 8002222:	701a      	strb	r2, [r3, #0]
 8002224:	e000      	b.n	8002228 <RunScan+0x20>
 8002226:	bf00      	nop
 8002228:	46bd      	mov	sp, r7
 800222a:	bc80      	pop	{r7}
 800222c:	4770      	bx	lr
 800222e:	bf00      	nop
 8002230:	20000664 	.word	0x20000664
 8002234:	20000665 	.word	0x20000665

08002238 <InitTerminal>:
 8002238:	b580      	push	{r7, lr}
 800223a:	b082      	sub	sp, #8
 800223c:	af00      	add	r7, sp, #0
 800223e:	6078      	str	r0, [r7, #4]
 8002240:	4b12      	ldr	r3, [pc, #72]	; (800228c <InitTerminal+0x54>)
 8002242:	681b      	ldr	r3, [r3, #0]
 8002244:	4812      	ldr	r0, [pc, #72]	; (8002290 <InitTerminal+0x58>)
 8002246:	4619      	mov	r1, r3
 8002248:	f001 fd92 	bl	8003d70 <cbInit>
 800224c:	6878      	ldr	r0, [r7, #4]
 800224e:	f000 f8d5 	bl	80023fc <InitTerminalUART>
 8002252:	4b10      	ldr	r3, [pc, #64]	; (8002294 <InitTerminal+0x5c>)
 8002254:	681b      	ldr	r3, [r3, #0]
 8002256:	4618      	mov	r0, r3
 8002258:	490f      	ldr	r1, [pc, #60]	; (8002298 <InitTerminal+0x60>)
 800225a:	f7fe fa7f 	bl	800075c <microrl_init>
 800225e:	4b0d      	ldr	r3, [pc, #52]	; (8002294 <InitTerminal+0x5c>)
 8002260:	681b      	ldr	r3, [r3, #0]
 8002262:	4618      	mov	r0, r3
 8002264:	490d      	ldr	r1, [pc, #52]	; (800229c <InitTerminal+0x64>)
 8002266:	f7fe fad1 	bl	800080c <microrl_set_execute_callback>
 800226a:	4b0a      	ldr	r3, [pc, #40]	; (8002294 <InitTerminal+0x5c>)
 800226c:	681b      	ldr	r3, [r3, #0]
 800226e:	4618      	mov	r0, r3
 8002270:	490b      	ldr	r1, [pc, #44]	; (80022a0 <InitTerminal+0x68>)
 8002272:	f7fe fabd 	bl	80007f0 <microrl_set_complite_callback>
 8002276:	4b07      	ldr	r3, [pc, #28]	; (8002294 <InitTerminal+0x5c>)
 8002278:	681b      	ldr	r3, [r3, #0]
 800227a:	4618      	mov	r0, r3
 800227c:	4909      	ldr	r1, [pc, #36]	; (80022a4 <InitTerminal+0x6c>)
 800227e:	f7fe fad3 	bl	8000828 <microrl_set_sigint_callback>
 8002282:	f107 0708 	add.w	r7, r7, #8
 8002286:	46bd      	mov	sp, r7
 8002288:	bd80      	pop	{r7, pc}
 800228a:	bf00      	nop
 800228c:	08006d0c 	.word	0x08006d0c
 8002290:	20000654 	.word	0x20000654
 8002294:	20000018 	.word	0x20000018
 8002298:	08002971 	.word	0x08002971
 800229c:	08002a0d 	.word	0x08002a0d
 80022a0:	08002d31 	.word	0x08002d31
 80022a4:	08002ded 	.word	0x08002ded

080022a8 <GetJumpersValue>:
 80022a8:	b580      	push	{r7, lr}
 80022aa:	b084      	sub	sp, #16
 80022ac:	af00      	add	r7, sp, #0
 80022ae:	f04f 0300 	mov.w	r3, #0
 80022b2:	60fb      	str	r3, [r7, #12]
 80022b4:	f04f 0300 	mov.w	r3, #0
 80022b8:	60bb      	str	r3, [r7, #8]
 80022ba:	f04f 0008 	mov.w	r0, #8
 80022be:	f04f 0101 	mov.w	r1, #1
 80022c2:	f001 fa3d 	bl	8003740 <RCC_APB2PeriphClockCmd>
 80022c6:	f107 0304 	add.w	r3, r7, #4
 80022ca:	4618      	mov	r0, r3
 80022cc:	f7ff fe0e 	bl	8001eec <GPIO_StructInit>
 80022d0:	f44f 4370 	mov.w	r3, #61440	; 0xf000
 80022d4:	80bb      	strh	r3, [r7, #4]
 80022d6:	f04f 0348 	mov.w	r3, #72	; 0x48
 80022da:	71fb      	strb	r3, [r7, #7]
 80022dc:	f04f 0303 	mov.w	r3, #3
 80022e0:	71bb      	strb	r3, [r7, #6]
 80022e2:	f107 0304 	add.w	r3, r7, #4
 80022e6:	481b      	ldr	r0, [pc, #108]	; (8002354 <GetJumpersValue+0xac>)
 80022e8:	4619      	mov	r1, r3
 80022ea:	f7ff fd1f 	bl	8001d2c <GPIO_Init>
 80022ee:	4b19      	ldr	r3, [pc, #100]	; (8002354 <GetJumpersValue+0xac>)
 80022f0:	689b      	ldr	r3, [r3, #8]
 80022f2:	ea4f 3313 	mov.w	r3, r3, lsr #12
 80022f6:	ea6f 0303 	mvn.w	r3, r3
 80022fa:	f003 030f 	and.w	r3, r3, #15
 80022fe:	68ba      	ldr	r2, [r7, #8]
 8002300:	ea42 0303 	orr.w	r3, r2, r3
 8002304:	60bb      	str	r3, [r7, #8]
 8002306:	68bb      	ldr	r3, [r7, #8]
 8002308:	ea4f 03c3 	mov.w	r3, r3, lsl #3
 800230c:	f003 0308 	and.w	r3, r3, #8
 8002310:	60fb      	str	r3, [r7, #12]
 8002312:	68bb      	ldr	r3, [r7, #8]
 8002314:	ea4f 0343 	mov.w	r3, r3, lsl #1
 8002318:	f003 0304 	and.w	r3, r3, #4
 800231c:	68fa      	ldr	r2, [r7, #12]
 800231e:	ea42 0303 	orr.w	r3, r2, r3
 8002322:	60fb      	str	r3, [r7, #12]
 8002324:	68bb      	ldr	r3, [r7, #8]
 8002326:	ea4f 0353 	mov.w	r3, r3, lsr #1
 800232a:	f003 0302 	and.w	r3, r3, #2
 800232e:	68fa      	ldr	r2, [r7, #12]
 8002330:	ea42 0303 	orr.w	r3, r2, r3
 8002334:	60fb      	str	r3, [r7, #12]
 8002336:	68bb      	ldr	r3, [r7, #8]
 8002338:	ea4f 03d3 	mov.w	r3, r3, lsr #3
 800233c:	f003 0301 	and.w	r3, r3, #1
 8002340:	68fa      	ldr	r2, [r7, #12]
 8002342:	ea42 0303 	orr.w	r3, r2, r3
 8002346:	60fb      	str	r3, [r7, #12]
 8002348:	68fb      	ldr	r3, [r7, #12]
 800234a:	4618      	mov	r0, r3
 800234c:	f107 0710 	add.w	r7, r7, #16
 8002350:	46bd      	mov	sp, r7
 8002352:	bd80      	pop	{r7, pc}
 8002354:	40010c00 	.word	0x40010c00

08002358 <main>:
 8002358:	b580      	push	{r7, lr}
 800235a:	b082      	sub	sp, #8
 800235c:	af00      	add	r7, sp, #0
 800235e:	f04f 0300 	mov.w	r3, #0
 8002362:	607b      	str	r3, [r7, #4]
 8002364:	e003      	b.n	800236e <main+0x16>
 8002366:	687b      	ldr	r3, [r7, #4]
 8002368:	f103 0301 	add.w	r3, r3, #1
 800236c:	607b      	str	r3, [r7, #4]
 800236e:	4b1f      	ldr	r3, [pc, #124]	; (80023ec <main+0x94>)
 8002370:	681a      	ldr	r2, [r3, #0]
 8002372:	4b1f      	ldr	r3, [pc, #124]	; (80023f0 <main+0x98>)
 8002374:	fba3 1302 	umull	r1, r3, r3, r2
 8002378:	ea4f 1253 	mov.w	r2, r3, lsr #5
 800237c:	687b      	ldr	r3, [r7, #4]
 800237e:	429a      	cmp	r2, r3
 8002380:	d8f1      	bhi.n	8002366 <main+0xe>
 8002382:	f44f 30e1 	mov.w	r0, #115200	; 0x1c200
 8002386:	f7ff ff57 	bl	8002238 <InitTerminal>
 800238a:	f7fe ff7d 	bl	8001288 <InitPlcTimers>
 800238e:	f000 f8a9 	bl	80024e4 <InitLeds>
 8002392:	f7ff ff89 	bl	80022a8 <GetJumpersValue>
 8002396:	4603      	mov	r3, r0
 8002398:	b2db      	uxtb	r3, r3
 800239a:	f44f 5016 	mov.w	r0, #9600	; 0x2580
 800239e:	4619      	mov	r1, r3
 80023a0:	f04f 0202 	mov.w	r2, #2
 80023a4:	f001 fe44 	bl	8004030 <InitNetWork>
 80023a8:	f7ff ff04 	bl	80021b4 <PowerLedOn>
 80023ac:	f7ff fed8 	bl	8002160 <IrWaitFirstCodeLedOff>
 80023b0:	f7ff fef2 	bl	8002198 <IrWaitSecondCodeLedOff>
 80023b4:	f7ff ff1a 	bl	80021ec <NetworkLedOff>
 80023b8:	480e      	ldr	r0, [pc, #56]	; (80023f4 <main+0x9c>)
 80023ba:	f001 fd0d 	bl	8003dd8 <cbIsEmpty>
 80023be:	4603      	mov	r3, r0
 80023c0:	2b00      	cmp	r3, #0
 80023c2:	d10c      	bne.n	80023de <main+0x86>
 80023c4:	f107 0303 	add.w	r3, r7, #3
 80023c8:	480a      	ldr	r0, [pc, #40]	; (80023f4 <main+0x9c>)
 80023ca:	4619      	mov	r1, r3
 80023cc:	f001 fd48 	bl	8003e60 <cbRead>
 80023d0:	4b09      	ldr	r3, [pc, #36]	; (80023f8 <main+0xa0>)
 80023d2:	681a      	ldr	r2, [r3, #0]
 80023d4:	78fb      	ldrb	r3, [r7, #3]
 80023d6:	4610      	mov	r0, r2
 80023d8:	4619      	mov	r1, r3
 80023da:	f7fe fccf 	bl	8000d7c <microrl_insert_char>
 80023de:	f000 f8f3 	bl	80025c8 <ProcessScan>
 80023e2:	f001 ff3d 	bl	8004260 <ProcessNetwork>
 80023e6:	f000 fa67 	bl	80028b8 <ProcessLeds>
 80023ea:	e7e5      	b.n	80023b8 <main+0x60>
 80023ec:	20000004 	.word	0x20000004
 80023f0:	51eb851f 	.word	0x51eb851f
 80023f4:	20000654 	.word	0x20000654
 80023f8:	20000018 	.word	0x20000018

080023fc <InitTerminalUART>:
 80023fc:	b580      	push	{r7, lr}
 80023fe:	b088      	sub	sp, #32
 8002400:	af00      	add	r7, sp, #0
 8002402:	6078      	str	r0, [r7, #4]
 8002404:	f44f 4080 	mov.w	r0, #16384	; 0x4000
 8002408:	f04f 0101 	mov.w	r1, #1
 800240c:	f001 f998 	bl	8003740 <RCC_APB2PeriphClockCmd>
 8002410:	f04f 0001 	mov.w	r0, #1
 8002414:	f04f 0101 	mov.w	r1, #1
 8002418:	f001 f992 	bl	8003740 <RCC_APB2PeriphClockCmd>
 800241c:	f04f 0004 	mov.w	r0, #4
 8002420:	f04f 0101 	mov.w	r1, #1
 8002424:	f001 f98c 	bl	8003740 <RCC_APB2PeriphClockCmd>
 8002428:	f107 030c 	add.w	r3, r7, #12
 800242c:	4618      	mov	r0, r3
 800242e:	f7ff fd5d 	bl	8001eec <GPIO_StructInit>
 8002432:	f44f 6380 	mov.w	r3, #1024	; 0x400
 8002436:	81bb      	strh	r3, [r7, #12]
 8002438:	f04f 0304 	mov.w	r3, #4
 800243c:	73fb      	strb	r3, [r7, #15]
 800243e:	f04f 0303 	mov.w	r3, #3
 8002442:	73bb      	strb	r3, [r7, #14]
 8002444:	f107 030c 	add.w	r3, r7, #12
 8002448:	4824      	ldr	r0, [pc, #144]	; (80024dc <InitTerminalUART+0xe0>)
 800244a:	4619      	mov	r1, r3
 800244c:	f7ff fc6e 	bl	8001d2c <GPIO_Init>
 8002450:	f107 030c 	add.w	r3, r7, #12
 8002454:	4618      	mov	r0, r3
 8002456:	f7ff fd49 	bl	8001eec <GPIO_StructInit>
 800245a:	f44f 7300 	mov.w	r3, #512	; 0x200
 800245e:	81bb      	strh	r3, [r7, #12]
 8002460:	f04f 0318 	mov.w	r3, #24
 8002464:	73fb      	strb	r3, [r7, #15]
 8002466:	f04f 0303 	mov.w	r3, #3
 800246a:	73bb      	strb	r3, [r7, #14]
 800246c:	f107 030c 	add.w	r3, r7, #12
 8002470:	481a      	ldr	r0, [pc, #104]	; (80024dc <InitTerminalUART+0xe0>)
 8002472:	4619      	mov	r1, r3
 8002474:	f7ff fc5a 	bl	8001d2c <GPIO_Init>
 8002478:	687b      	ldr	r3, [r7, #4]
 800247a:	613b      	str	r3, [r7, #16]
 800247c:	f04f 0300 	mov.w	r3, #0
 8002480:	83bb      	strh	r3, [r7, #28]
 8002482:	f04f 030c 	mov.w	r3, #12
 8002486:	837b      	strh	r3, [r7, #26]
 8002488:	f04f 0300 	mov.w	r3, #0
 800248c:	82fb      	strh	r3, [r7, #22]
 800248e:	f04f 0308 	mov.w	r3, #8
 8002492:	82bb      	strh	r3, [r7, #20]
 8002494:	f04f 0300 	mov.w	r3, #0
 8002498:	833b      	strh	r3, [r7, #24]
 800249a:	f107 0310 	add.w	r3, r7, #16
 800249e:	4810      	ldr	r0, [pc, #64]	; (80024e0 <InitTerminalUART+0xe4>)
 80024a0:	4619      	mov	r1, r3
 80024a2:	f001 fa2b 	bl	80038fc <USART_Init>
 80024a6:	480e      	ldr	r0, [pc, #56]	; (80024e0 <InitTerminalUART+0xe4>)
 80024a8:	f240 5125 	movw	r1, #1317	; 0x525
 80024ac:	f04f 0201 	mov.w	r2, #1
 80024b0:	f001 fb1c 	bl	8003aec <USART_ITConfig>
 80024b4:	f04f 0025 	mov.w	r0, #37	; 0x25
 80024b8:	f7ff fdfe 	bl	80020b8 <NVIC_EnableIRQ>
 80024bc:	f04f 0025 	mov.w	r0, #37	; 0x25
 80024c0:	f04f 0107 	mov.w	r1, #7
 80024c4:	f7ff fe12 	bl	80020ec <NVIC_SetPriority>
 80024c8:	4805      	ldr	r0, [pc, #20]	; (80024e0 <InitTerminalUART+0xe4>)
 80024ca:	f04f 0101 	mov.w	r1, #1
 80024ce:	f001 faed 	bl	8003aac <USART_Cmd>
 80024d2:	f107 0720 	add.w	r7, r7, #32
 80024d6:	46bd      	mov	sp, r7
 80024d8:	bd80      	pop	{r7, pc}
 80024da:	bf00      	nop
 80024dc:	40010800 	.word	0x40010800
 80024e0:	40013800 	.word	0x40013800

080024e4 <InitLeds>:
 80024e4:	b580      	push	{r7, lr}
 80024e6:	b082      	sub	sp, #8
 80024e8:	af00      	add	r7, sp, #0
 80024ea:	f04f 0010 	mov.w	r0, #16
 80024ee:	f04f 0101 	mov.w	r1, #1
 80024f2:	f001 f925 	bl	8003740 <RCC_APB2PeriphClockCmd>
 80024f6:	f04f 0008 	mov.w	r0, #8
 80024fa:	f04f 0101 	mov.w	r1, #1
 80024fe:	f001 f91f 	bl	8003740 <RCC_APB2PeriphClockCmd>
 8002502:	f04f 0020 	mov.w	r0, #32
 8002506:	f04f 0101 	mov.w	r1, #1
 800250a:	f001 f919 	bl	8003740 <RCC_APB2PeriphClockCmd>
 800250e:	481c      	ldr	r0, [pc, #112]	; (8002580 <InitLeds+0x9c>)
 8002510:	f04f 0101 	mov.w	r1, #1
 8002514:	f7ff fd00 	bl	8001f18 <GPIO_PinRemapConfig>
 8002518:	f107 0304 	add.w	r3, r7, #4
 800251c:	4618      	mov	r0, r3
 800251e:	f7ff fce5 	bl	8001eec <GPIO_StructInit>
 8002522:	f44f 5380 	mov.w	r3, #4096	; 0x1000
 8002526:	80bb      	strh	r3, [r7, #4]
 8002528:	f04f 0310 	mov.w	r3, #16
 800252c:	71fb      	strb	r3, [r7, #7]
 800252e:	f04f 0303 	mov.w	r3, #3
 8002532:	71bb      	strb	r3, [r7, #6]
 8002534:	f107 0304 	add.w	r3, r7, #4
 8002538:	4812      	ldr	r0, [pc, #72]	; (8002584 <InitLeds+0xa0>)
 800253a:	4619      	mov	r1, r3
 800253c:	f7ff fbf6 	bl	8001d2c <GPIO_Init>
 8002540:	f04f 0304 	mov.w	r3, #4
 8002544:	80bb      	strh	r3, [r7, #4]
 8002546:	f107 0304 	add.w	r3, r7, #4
 800254a:	480f      	ldr	r0, [pc, #60]	; (8002588 <InitLeds+0xa4>)
 800254c:	4619      	mov	r1, r3
 800254e:	f7ff fbed 	bl	8001d2c <GPIO_Init>
 8002552:	f04f 0310 	mov.w	r3, #16
 8002556:	80bb      	strh	r3, [r7, #4]
 8002558:	f107 0304 	add.w	r3, r7, #4
 800255c:	480b      	ldr	r0, [pc, #44]	; (800258c <InitLeds+0xa8>)
 800255e:	4619      	mov	r1, r3
 8002560:	f7ff fbe4 	bl	8001d2c <GPIO_Init>
 8002564:	f04f 0308 	mov.w	r3, #8
 8002568:	80bb      	strh	r3, [r7, #4]
 800256a:	f107 0304 	add.w	r3, r7, #4
 800256e:	4807      	ldr	r0, [pc, #28]	; (800258c <InitLeds+0xa8>)
 8002570:	4619      	mov	r1, r3
 8002572:	f7ff fbdb 	bl	8001d2c <GPIO_Init>
 8002576:	f107 0708 	add.w	r7, r7, #8
 800257a:	46bd      	mov	sp, r7
 800257c:	bd80      	pop	{r7, pc}
 800257e:	bf00      	nop
 8002580:	00300200 	.word	0x00300200
 8002584:	40011000 	.word	0x40011000
 8002588:	40011400 	.word	0x40011400
 800258c:	40010c00 	.word	0x40010c00

08002590 <USART1_IRQHandler>:
 8002590:	b580      	push	{r7, lr}
 8002592:	b082      	sub	sp, #8
 8002594:	af00      	add	r7, sp, #0
 8002596:	480a      	ldr	r0, [pc, #40]	; (80025c0 <USART1_IRQHandler+0x30>)
 8002598:	f001 fb10 	bl	8003bbc <USART_ReceiveData>
 800259c:	4603      	mov	r3, r0
 800259e:	b2db      	uxtb	r3, r3
 80025a0:	71fb      	strb	r3, [r7, #7]
 80025a2:	f107 0307 	add.w	r3, r7, #7
 80025a6:	4807      	ldr	r0, [pc, #28]	; (80025c4 <USART1_IRQHandler+0x34>)
 80025a8:	4619      	mov	r1, r3
 80025aa:	f001 fc27 	bl	8003dfc <cbWrite>
 80025ae:	4804      	ldr	r0, [pc, #16]	; (80025c0 <USART1_IRQHandler+0x30>)
 80025b0:	f240 5125 	movw	r1, #1317	; 0x525
 80025b4:	f001 fb9a 	bl	8003cec <USART_ClearITPendingBit>
 80025b8:	f107 0708 	add.w	r7, r7, #8
 80025bc:	46bd      	mov	sp, r7
 80025be:	bd80      	pop	{r7, pc}
 80025c0:	40013800 	.word	0x40013800
 80025c4:	20000654 	.word	0x20000654

080025c8 <ProcessScan>:
 80025c8:	b580      	push	{r7, lr}
 80025ca:	b086      	sub	sp, #24
 80025cc:	af02      	add	r7, sp, #8
 80025ce:	4b84      	ldr	r3, [pc, #528]	; (80027e0 <ProcessScan+0x218>)
 80025d0:	781b      	ldrb	r3, [r3, #0]
 80025d2:	2b09      	cmp	r3, #9
 80025d4:	f200 80f3 	bhi.w	80027be <ProcessScan+0x1f6>
 80025d8:	a201      	add	r2, pc, #4	; (adr r2, 80025e0 <ProcessScan+0x18>)
 80025da:	f852 f023 	ldr.w	pc, [r2, r3, lsl #2]
 80025de:	bf00      	nop
 80025e0:	080027bf 	.word	0x080027bf
 80025e4:	08002609 	.word	0x08002609
 80025e8:	08002621 	.word	0x08002621
 80025ec:	08002637 	.word	0x08002637
 80025f0:	0800265b 	.word	0x0800265b
 80025f4:	08002671 	.word	0x08002671
 80025f8:	0800268d 	.word	0x0800268d
 80025fc:	080026f3 	.word	0x080026f3
 8002600:	08002777 	.word	0x08002777
 8002604:	08002795 	.word	0x08002795
 8002608:	4b76      	ldr	r3, [pc, #472]	; (80027e4 <ProcessScan+0x21c>)
 800260a:	f04f 0201 	mov.w	r2, #1
 800260e:	701a      	strb	r2, [r3, #0]
 8002610:	4b73      	ldr	r3, [pc, #460]	; (80027e0 <ProcessScan+0x218>)
 8002612:	f04f 0202 	mov.w	r2, #2
 8002616:	701a      	strb	r2, [r3, #0]
 8002618:	4873      	ldr	r0, [pc, #460]	; (80027e8 <ProcessScan+0x220>)
 800261a:	f000 ff73 	bl	8003504 <printf>
 800261e:	e0db      	b.n	80027d8 <ProcessScan+0x210>
 8002620:	4872      	ldr	r0, [pc, #456]	; (80027ec <ProcessScan+0x224>)
 8002622:	f002 f951 	bl	80048c8 <Scan>
 8002626:	4b6e      	ldr	r3, [pc, #440]	; (80027e0 <ProcessScan+0x218>)
 8002628:	f04f 0203 	mov.w	r2, #3
 800262c:	701a      	strb	r2, [r3, #0]
 800262e:	4870      	ldr	r0, [pc, #448]	; (80027f0 <ProcessScan+0x228>)
 8002630:	f000 ff68 	bl	8003504 <printf>
 8002634:	e0d0      	b.n	80027d8 <ProcessScan+0x210>
 8002636:	f002 f83b 	bl	80046b0 <IsScanning>
 800263a:	4603      	mov	r3, r0
 800263c:	2b00      	cmp	r3, #0
 800263e:	f040 80c0 	bne.w	80027c2 <ProcessScan+0x1fa>
 8002642:	4b67      	ldr	r3, [pc, #412]	; (80027e0 <ProcessScan+0x218>)
 8002644:	f04f 0204 	mov.w	r2, #4
 8002648:	701a      	strb	r2, [r3, #0]
 800264a:	486a      	ldr	r0, [pc, #424]	; (80027f4 <ProcessScan+0x22c>)
 800264c:	f000 ff5a 	bl	8003504 <printf>
 8002650:	4b64      	ldr	r3, [pc, #400]	; (80027e4 <ProcessScan+0x21c>)
 8002652:	f04f 0202 	mov.w	r2, #2
 8002656:	701a      	strb	r2, [r3, #0]
 8002658:	e0be      	b.n	80027d8 <ProcessScan+0x210>
 800265a:	4867      	ldr	r0, [pc, #412]	; (80027f8 <ProcessScan+0x230>)
 800265c:	f002 f934 	bl	80048c8 <Scan>
 8002660:	4b5f      	ldr	r3, [pc, #380]	; (80027e0 <ProcessScan+0x218>)
 8002662:	f04f 0205 	mov.w	r2, #5
 8002666:	701a      	strb	r2, [r3, #0]
 8002668:	4864      	ldr	r0, [pc, #400]	; (80027fc <ProcessScan+0x234>)
 800266a:	f000 ff4b 	bl	8003504 <printf>
 800266e:	e0b3      	b.n	80027d8 <ProcessScan+0x210>
 8002670:	f002 f81e 	bl	80046b0 <IsScanning>
 8002674:	4603      	mov	r3, r0
 8002676:	2b00      	cmp	r3, #0
 8002678:	f040 80a5 	bne.w	80027c6 <ProcessScan+0x1fe>
 800267c:	4b58      	ldr	r3, [pc, #352]	; (80027e0 <ProcessScan+0x218>)
 800267e:	f04f 0206 	mov.w	r2, #6
 8002682:	701a      	strb	r2, [r3, #0]
 8002684:	485b      	ldr	r0, [pc, #364]	; (80027f4 <ProcessScan+0x22c>)
 8002686:	f000 ff3d 	bl	8003504 <printf>
 800268a:	e0a5      	b.n	80027d8 <ProcessScan+0x210>
 800268c:	f04f 0300 	mov.w	r3, #0
 8002690:	73fb      	strb	r3, [r7, #15]
 8002692:	485b      	ldr	r0, [pc, #364]	; (8002800 <ProcessScan+0x238>)
 8002694:	f000 ff36 	bl	8003504 <printf>
 8002698:	4854      	ldr	r0, [pc, #336]	; (80027ec <ProcessScan+0x224>)
 800269a:	4957      	ldr	r1, [pc, #348]	; (80027f8 <ProcessScan+0x230>)
 800269c:	f002 fcb2 	bl	8005004 <IsEqual>
 80026a0:	4603      	mov	r3, r0
 80026a2:	73fb      	strb	r3, [r7, #15]
 80026a4:	7bfb      	ldrb	r3, [r7, #15]
 80026a6:	2b00      	cmp	r3, #0
 80026a8:	d001      	beq.n	80026ae <ProcessScan+0xe6>
 80026aa:	4b56      	ldr	r3, [pc, #344]	; (8002804 <ProcessScan+0x23c>)
 80026ac:	e000      	b.n	80026b0 <ProcessScan+0xe8>
 80026ae:	4b56      	ldr	r3, [pc, #344]	; (8002808 <ProcessScan+0x240>)
 80026b0:	4856      	ldr	r0, [pc, #344]	; (800280c <ProcessScan+0x244>)
 80026b2:	4619      	mov	r1, r3
 80026b4:	f000 ff26 	bl	8003504 <printf>
 80026b8:	7bfb      	ldrb	r3, [r7, #15]
 80026ba:	2b00      	cmp	r3, #0
 80026bc:	d010      	beq.n	80026e0 <ProcessScan+0x118>
 80026be:	4b49      	ldr	r3, [pc, #292]	; (80027e4 <ProcessScan+0x21c>)
 80026c0:	f04f 0203 	mov.w	r2, #3
 80026c4:	701a      	strb	r2, [r3, #0]
 80026c6:	4a52      	ldr	r2, [pc, #328]	; (8002810 <ProcessScan+0x248>)
 80026c8:	4b52      	ldr	r3, [pc, #328]	; (8002814 <ProcessScan+0x24c>)
 80026ca:	429a      	cmp	r2, r3
 80026cc:	bf34      	ite	cc
 80026ce:	2200      	movcc	r2, #0
 80026d0:	2201      	movcs	r2, #1
 80026d2:	4b51      	ldr	r3, [pc, #324]	; (8002818 <ProcessScan+0x250>)
 80026d4:	601a      	str	r2, [r3, #0]
 80026d6:	4b42      	ldr	r3, [pc, #264]	; (80027e0 <ProcessScan+0x218>)
 80026d8:	f04f 0207 	mov.w	r2, #7
 80026dc:	701a      	strb	r2, [r3, #0]
 80026de:	e07b      	b.n	80027d8 <ProcessScan+0x210>
 80026e0:	4b40      	ldr	r3, [pc, #256]	; (80027e4 <ProcessScan+0x21c>)
 80026e2:	f04f 0204 	mov.w	r2, #4
 80026e6:	701a      	strb	r2, [r3, #0]
 80026e8:	4b3d      	ldr	r3, [pc, #244]	; (80027e0 <ProcessScan+0x218>)
 80026ea:	f04f 0208 	mov.w	r2, #8
 80026ee:	701a      	strb	r2, [r3, #0]
 80026f0:	e072      	b.n	80027d8 <ProcessScan+0x210>
 80026f2:	f001 fc25 	bl	8003f40 <GetDeviceAddress>
 80026f6:	4603      	mov	r3, r0
 80026f8:	4619      	mov	r1, r3
 80026fa:	4b48      	ldr	r3, [pc, #288]	; (800281c <ProcessScan+0x254>)
 80026fc:	881b      	ldrh	r3, [r3, #0]
 80026fe:	ea4f 2313 	mov.w	r3, r3, lsr #8
 8002702:	b29b      	uxth	r3, r3
 8002704:	b2da      	uxtb	r2, r3
 8002706:	4b45      	ldr	r3, [pc, #276]	; (800281c <ProcessScan+0x254>)
 8002708:	881b      	ldrh	r3, [r3, #0]
 800270a:	b2db      	uxtb	r3, r3
 800270c:	7039      	strb	r1, [r7, #0]
 800270e:	f04f 0101 	mov.w	r1, #1
 8002712:	7079      	strb	r1, [r7, #1]
 8002714:	70ba      	strb	r2, [r7, #2]
 8002716:	70fb      	strb	r3, [r7, #3]
 8002718:	f04f 0301 	mov.w	r3, #1
 800271c:	713b      	strb	r3, [r7, #4]
 800271e:	f04f 0300 	mov.w	r3, #0
 8002722:	717b      	strb	r3, [r7, #5]
 8002724:	f04f 0300 	mov.w	r3, #0
 8002728:	71bb      	strb	r3, [r7, #6]
 800272a:	4a30      	ldr	r2, [pc, #192]	; (80027ec <ProcessScan+0x224>)
 800272c:	4b3a      	ldr	r3, [pc, #232]	; (8002818 <ProcessScan+0x250>)
 800272e:	681b      	ldr	r3, [r3, #0]
 8002730:	ea4f 23c3 	mov.w	r3, r3, lsl #11
 8002734:	18d3      	adds	r3, r2, r3
 8002736:	60bb      	str	r3, [r7, #8]
 8002738:	f001 fbf8 	bl	8003f2c <GetNetworkState>
 800273c:	4603      	mov	r3, r0
 800273e:	2b01      	cmp	r3, #1
 8002740:	d043      	beq.n	80027ca <ProcessScan+0x202>
 8002742:	f04f 0300 	mov.w	r3, #0
 8002746:	71bb      	strb	r3, [r7, #6]
 8002748:	f04f 0308 	mov.w	r3, #8
 800274c:	717b      	strb	r3, [r7, #5]
 800274e:	4834      	ldr	r0, [pc, #208]	; (8002820 <ProcessScan+0x258>)
 8002750:	f000 fed8 	bl	8003504 <printf>
 8002754:	463b      	mov	r3, r7
 8002756:	f04f 0201 	mov.w	r2, #1
 800275a:	9200      	str	r2, [sp, #0]
 800275c:	4618      	mov	r0, r3
 800275e:	f04f 0107 	mov.w	r1, #7
 8002762:	68ba      	ldr	r2, [r7, #8]
 8002764:	f44f 6300 	mov.w	r3, #2048	; 0x800
 8002768:	f001 fe88 	bl	800447c <Answer>
 800276c:	4b1c      	ldr	r3, [pc, #112]	; (80027e0 <ProcessScan+0x218>)
 800276e:	f04f 0209 	mov.w	r2, #9
 8002772:	701a      	strb	r2, [r3, #0]
 8002774:	e030      	b.n	80027d8 <ProcessScan+0x210>
 8002776:	482b      	ldr	r0, [pc, #172]	; (8002824 <ProcessScan+0x25c>)
 8002778:	f000 fec4 	bl	8003504 <printf>
 800277c:	f04f 0001 	mov.w	r0, #1
 8002780:	f001 ff12 	bl	80045a8 <AnswerError>
 8002784:	4603      	mov	r3, r0
 8002786:	2b00      	cmp	r3, #0
 8002788:	d021      	beq.n	80027ce <ProcessScan+0x206>
 800278a:	4b15      	ldr	r3, [pc, #84]	; (80027e0 <ProcessScan+0x218>)
 800278c:	f04f 0209 	mov.w	r2, #9
 8002790:	701a      	strb	r2, [r3, #0]
 8002792:	e021      	b.n	80027d8 <ProcessScan+0x210>
 8002794:	f001 fbca 	bl	8003f2c <GetNetworkState>
 8002798:	4603      	mov	r3, r0
 800279a:	2b00      	cmp	r3, #0
 800279c:	d119      	bne.n	80027d2 <ProcessScan+0x20a>
 800279e:	4b10      	ldr	r3, [pc, #64]	; (80027e0 <ProcessScan+0x218>)
 80027a0:	f04f 0200 	mov.w	r2, #0
 80027a4:	701a      	strb	r2, [r3, #0]
 80027a6:	4820      	ldr	r0, [pc, #128]	; (8002828 <ProcessScan+0x260>)
 80027a8:	f000 feac 	bl	8003504 <printf>
 80027ac:	4b0d      	ldr	r3, [pc, #52]	; (80027e4 <ProcessScan+0x21c>)
 80027ae:	781b      	ldrb	r3, [r3, #0]
 80027b0:	2b03      	cmp	r3, #3
 80027b2:	d110      	bne.n	80027d6 <ProcessScan+0x20e>
 80027b4:	4b0b      	ldr	r3, [pc, #44]	; (80027e4 <ProcessScan+0x21c>)
 80027b6:	f04f 0200 	mov.w	r2, #0
 80027ba:	701a      	strb	r2, [r3, #0]
 80027bc:	e00c      	b.n	80027d8 <ProcessScan+0x210>
 80027be:	bf00      	nop
 80027c0:	e00a      	b.n	80027d8 <ProcessScan+0x210>
 80027c2:	bf00      	nop
 80027c4:	e008      	b.n	80027d8 <ProcessScan+0x210>
 80027c6:	bf00      	nop
 80027c8:	e006      	b.n	80027d8 <ProcessScan+0x210>
 80027ca:	bf00      	nop
 80027cc:	e004      	b.n	80027d8 <ProcessScan+0x210>
 80027ce:	bf00      	nop
 80027d0:	e002      	b.n	80027d8 <ProcessScan+0x210>
 80027d2:	bf00      	nop
 80027d4:	e000      	b.n	80027d8 <ProcessScan+0x210>
 80027d6:	bf00      	nop
 80027d8:	f107 0710 	add.w	r7, r7, #16
 80027dc:	46bd      	mov	sp, r7
 80027de:	bd80      	pop	{r7, pc}
 80027e0:	20000664 	.word	0x20000664
 80027e4:	20000665 	.word	0x20000665
 80027e8:	08006d10 	.word	0x08006d10
 80027ec:	20000f1c 	.word	0x20000f1c
 80027f0:	08006d28 	.word	0x08006d28
 80027f4:	08006d40 	.word	0x08006d40
 80027f8:	2000171c 	.word	0x2000171c
 80027fc:	08006d48 	.word	0x08006d48
 8002800:	08006d60 	.word	0x08006d60
 8002804:	08006d74 	.word	0x08006d74
 8002808:	08006d7c 	.word	0x08006d7c
 800280c:	08006d84 	.word	0x08006d84
 8002810:	20000f2c 	.word	0x20000f2c
 8002814:	2000172c 	.word	0x2000172c
 8002818:	20000668 	.word	0x20000668
 800281c:	20000666 	.word	0x20000666
 8002820:	08006d8c 	.word	0x08006d8c
 8002824:	08006da0 	.word	0x08006da0
 8002828:	08006db8 	.word	0x08006db8

0800282c <RequestOnScan>:
 800282c:	b580      	push	{r7, lr}
 800282e:	b082      	sub	sp, #8
 8002830:	af00      	add	r7, sp, #0
 8002832:	4602      	mov	r2, r0
 8002834:	460b      	mov	r3, r1
 8002836:	80fa      	strh	r2, [r7, #6]
 8002838:	717b      	strb	r3, [r7, #5]
 800283a:	4b11      	ldr	r3, [pc, #68]	; (8002880 <RequestOnScan+0x54>)
 800283c:	88fa      	ldrh	r2, [r7, #6]
 800283e:	801a      	strh	r2, [r3, #0]
 8002840:	797b      	ldrb	r3, [r7, #5]
 8002842:	2b01      	cmp	r3, #1
 8002844:	d007      	beq.n	8002856 <RequestOnScan+0x2a>
 8002846:	2b02      	cmp	r3, #2
 8002848:	d00e      	beq.n	8002868 <RequestOnScan+0x3c>
 800284a:	2b00      	cmp	r3, #0
 800284c:	d110      	bne.n	8002870 <RequestOnScan+0x44>
 800284e:	480d      	ldr	r0, [pc, #52]	; (8002884 <RequestOnScan+0x58>)
 8002850:	f000 f88e 	bl	8002970 <print>
 8002854:	e010      	b.n	8002878 <RequestOnScan+0x4c>
 8002856:	4b0a      	ldr	r3, [pc, #40]	; (8002880 <RequestOnScan+0x54>)
 8002858:	881b      	ldrh	r3, [r3, #0]
 800285a:	480b      	ldr	r0, [pc, #44]	; (8002888 <RequestOnScan+0x5c>)
 800285c:	4619      	mov	r1, r3
 800285e:	f000 fe51 	bl	8003504 <printf>
 8002862:	f7ff fcd1 	bl	8002208 <RunScan>
 8002866:	e007      	b.n	8002878 <RequestOnScan+0x4c>
 8002868:	4808      	ldr	r0, [pc, #32]	; (800288c <RequestOnScan+0x60>)
 800286a:	f000 f881 	bl	8002970 <print>
 800286e:	e003      	b.n	8002878 <RequestOnScan+0x4c>
 8002870:	4807      	ldr	r0, [pc, #28]	; (8002890 <RequestOnScan+0x64>)
 8002872:	f000 f87d 	bl	8002970 <print>
 8002876:	bf00      	nop
 8002878:	f107 0708 	add.w	r7, r7, #8
 800287c:	46bd      	mov	sp, r7
 800287e:	bd80      	pop	{r7, pc}
 8002880:	20000666 	.word	0x20000666
 8002884:	08006dc0 	.word	0x08006dc0
 8002888:	08006df4 	.word	0x08006df4
 800288c:	08006e0c 	.word	0x08006e0c
 8002890:	08006e4c 	.word	0x08006e4c

08002894 <RequestOffScan>:
 8002894:	b580      	push	{r7, lr}
 8002896:	af00      	add	r7, sp, #0
 8002898:	f002 f8bc 	bl	8004a14 <StopScan>
 800289c:	4b04      	ldr	r3, [pc, #16]	; (80028b0 <RequestOffScan+0x1c>)
 800289e:	f04f 0200 	mov.w	r2, #0
 80028a2:	701a      	strb	r2, [r3, #0]
 80028a4:	4b03      	ldr	r3, [pc, #12]	; (80028b4 <RequestOffScan+0x20>)
 80028a6:	f04f 0200 	mov.w	r2, #0
 80028aa:	701a      	strb	r2, [r3, #0]
 80028ac:	bd80      	pop	{r7, pc}
 80028ae:	bf00      	nop
 80028b0:	20000664 	.word	0x20000664
 80028b4:	20000665 	.word	0x20000665

080028b8 <ProcessLeds>:
 80028b8:	b580      	push	{r7, lr}
 80028ba:	af00      	add	r7, sp, #0
 80028bc:	f04f 0001 	mov.w	r0, #1
 80028c0:	f640 11c4 	movw	r1, #2500	; 0x9c4
 80028c4:	f7fe fd38 	bl	8001338 <IsTimeoutEx>
 80028c8:	4603      	mov	r3, r0
 80028ca:	2b00      	cmp	r3, #0
 80028cc:	d04a      	beq.n	8002964 <ProcessLeds+0xac>
 80028ce:	4b26      	ldr	r3, [pc, #152]	; (8002968 <ProcessLeds+0xb0>)
 80028d0:	781b      	ldrb	r3, [r3, #0]
 80028d2:	2b04      	cmp	r3, #4
 80028d4:	d847      	bhi.n	8002966 <ProcessLeds+0xae>
 80028d6:	a201      	add	r2, pc, #4	; (adr r2, 80028dc <ProcessLeds+0x24>)
 80028d8:	f852 f023 	ldr.w	pc, [r2, r3, lsl #2]
 80028dc:	080028f1 	.word	0x080028f1
 80028e0:	080028fb 	.word	0x080028fb
 80028e4:	08002905 	.word	0x08002905
 80028e8:	0800290f 	.word	0x0800290f
 80028ec:	08002939 	.word	0x08002939
 80028f0:	f7ff fc36 	bl	8002160 <IrWaitFirstCodeLedOff>
 80028f4:	f7ff fc50 	bl	8002198 <IrWaitSecondCodeLedOff>
 80028f8:	e035      	b.n	8002966 <ProcessLeds+0xae>
 80028fa:	f7ff fc23 	bl	8002144 <IrWaitFirstCodeLedOn>
 80028fe:	f7ff fc4b 	bl	8002198 <IrWaitSecondCodeLedOff>
 8002902:	e030      	b.n	8002966 <ProcessLeds+0xae>
 8002904:	f7ff fc1e 	bl	8002144 <IrWaitFirstCodeLedOn>
 8002908:	f7ff fc38 	bl	800217c <IrWaitSecondCodeLedOn>
 800290c:	e02b      	b.n	8002966 <ProcessLeds+0xae>
 800290e:	4b17      	ldr	r3, [pc, #92]	; (800296c <ProcessLeds+0xb4>)
 8002910:	781b      	ldrb	r3, [r3, #0]
 8002912:	2b00      	cmp	r3, #0
 8002914:	d004      	beq.n	8002920 <ProcessLeds+0x68>
 8002916:	f7ff fc15 	bl	8002144 <IrWaitFirstCodeLedOn>
 800291a:	f7ff fc2f 	bl	800217c <IrWaitSecondCodeLedOn>
 800291e:	e003      	b.n	8002928 <ProcessLeds+0x70>
 8002920:	f7ff fc1e 	bl	8002160 <IrWaitFirstCodeLedOff>
 8002924:	f7ff fc38 	bl	8002198 <IrWaitSecondCodeLedOff>
 8002928:	4b10      	ldr	r3, [pc, #64]	; (800296c <ProcessLeds+0xb4>)
 800292a:	781b      	ldrb	r3, [r3, #0]
 800292c:	f083 0301 	eor.w	r3, r3, #1
 8002930:	b2da      	uxtb	r2, r3
 8002932:	4b0e      	ldr	r3, [pc, #56]	; (800296c <ProcessLeds+0xb4>)
 8002934:	701a      	strb	r2, [r3, #0]
 8002936:	e016      	b.n	8002966 <ProcessLeds+0xae>
 8002938:	4b0c      	ldr	r3, [pc, #48]	; (800296c <ProcessLeds+0xb4>)
 800293a:	781b      	ldrb	r3, [r3, #0]
 800293c:	2b00      	cmp	r3, #0
 800293e:	d004      	beq.n	800294a <ProcessLeds+0x92>
 8002940:	f7ff fc00 	bl	8002144 <IrWaitFirstCodeLedOn>
 8002944:	f7ff fc28 	bl	8002198 <IrWaitSecondCodeLedOff>
 8002948:	e003      	b.n	8002952 <ProcessLeds+0x9a>
 800294a:	f7ff fc09 	bl	8002160 <IrWaitFirstCodeLedOff>
 800294e:	f7ff fc15 	bl	800217c <IrWaitSecondCodeLedOn>
 8002952:	4b06      	ldr	r3, [pc, #24]	; (800296c <ProcessLeds+0xb4>)
 8002954:	781b      	ldrb	r3, [r3, #0]
 8002956:	f083 0301 	eor.w	r3, r3, #1
 800295a:	b2da      	uxtb	r2, r3
 800295c:	4b03      	ldr	r3, [pc, #12]	; (800296c <ProcessLeds+0xb4>)
 800295e:	701a      	strb	r2, [r3, #0]
 8002960:	bf00      	nop
 8002962:	e000      	b.n	8002966 <ProcessLeds+0xae>
 8002964:	bf00      	nop
 8002966:	bd80      	pop	{r7, pc}
 8002968:	20000665 	.word	0x20000665
 800296c:	2000001c 	.word	0x2000001c

08002970 <print>:
 8002970:	b580      	push	{r7, lr}
 8002972:	b084      	sub	sp, #16
 8002974:	af00      	add	r7, sp, #0
 8002976:	6078      	str	r0, [r7, #4]
 8002978:	f04f 0300 	mov.w	r3, #0
 800297c:	60fb      	str	r3, [r7, #12]
 800297e:	e00a      	b.n	8002996 <print+0x26>
 8002980:	68fb      	ldr	r3, [r7, #12]
 8002982:	687a      	ldr	r2, [r7, #4]
 8002984:	18d3      	adds	r3, r2, r3
 8002986:	781b      	ldrb	r3, [r3, #0]
 8002988:	68fa      	ldr	r2, [r7, #12]
 800298a:	f102 0201 	add.w	r2, r2, #1
 800298e:	60fa      	str	r2, [r7, #12]
 8002990:	4618      	mov	r0, r3
 8002992:	f000 fa33 	bl	8002dfc <PrintChar>
 8002996:	68fb      	ldr	r3, [r7, #12]
 8002998:	687a      	ldr	r2, [r7, #4]
 800299a:	18d3      	adds	r3, r2, r3
 800299c:	781b      	ldrb	r3, [r3, #0]
 800299e:	2b00      	cmp	r3, #0
 80029a0:	d1ee      	bne.n	8002980 <print+0x10>
 80029a2:	f107 0710 	add.w	r7, r7, #16
 80029a6:	46bd      	mov	sp, r7
 80029a8:	bd80      	pop	{r7, pc}
 80029aa:	bf00      	nop

080029ac <print_help>:
 80029ac:	b580      	push	{r7, lr}
 80029ae:	af00      	add	r7, sp, #0
 80029b0:	480d      	ldr	r0, [pc, #52]	; (80029e8 <print_help+0x3c>)
 80029b2:	f7ff ffdd 	bl	8002970 <print>
 80029b6:	480d      	ldr	r0, [pc, #52]	; (80029ec <print_help+0x40>)
 80029b8:	f7ff ffda 	bl	8002970 <print>
 80029bc:	480c      	ldr	r0, [pc, #48]	; (80029f0 <print_help+0x44>)
 80029be:	f7ff ffd7 	bl	8002970 <print>
 80029c2:	480c      	ldr	r0, [pc, #48]	; (80029f4 <print_help+0x48>)
 80029c4:	f7ff ffd4 	bl	8002970 <print>
 80029c8:	480b      	ldr	r0, [pc, #44]	; (80029f8 <print_help+0x4c>)
 80029ca:	f7ff ffd1 	bl	8002970 <print>
 80029ce:	480b      	ldr	r0, [pc, #44]	; (80029fc <print_help+0x50>)
 80029d0:	f7ff ffce 	bl	8002970 <print>
 80029d4:	480a      	ldr	r0, [pc, #40]	; (8002a00 <print_help+0x54>)
 80029d6:	f7ff ffcb 	bl	8002970 <print>
 80029da:	480a      	ldr	r0, [pc, #40]	; (8002a04 <print_help+0x58>)
 80029dc:	f7ff ffc8 	bl	8002970 <print>
 80029e0:	4809      	ldr	r0, [pc, #36]	; (8002a08 <print_help+0x5c>)
 80029e2:	f7ff ffc5 	bl	8002970 <print>
 80029e6:	bd80      	pop	{r7, pc}
 80029e8:	08006ec0 	.word	0x08006ec0
 80029ec:	08006ee8 	.word	0x08006ee8
 80029f0:	08006efc 	.word	0x08006efc
 80029f4:	08006f18 	.word	0x08006f18
 80029f8:	08006f34 	.word	0x08006f34
 80029fc:	08006f50 	.word	0x08006f50
 8002a00:	08006f7c 	.word	0x08006f7c
 8002a04:	08006fac 	.word	0x08006fac
 8002a08:	08007000 	.word	0x08007000

08002a0c <execute>:
 8002a0c:	b580      	push	{r7, lr}
 8002a0e:	b086      	sub	sp, #24
 8002a10:	af00      	add	r7, sp, #0
 8002a12:	6078      	str	r0, [r7, #4]
 8002a14:	6039      	str	r1, [r7, #0]
 8002a16:	f04f 0300 	mov.w	r3, #0
 8002a1a:	617b      	str	r3, [r7, #20]
 8002a1c:	e177      	b.n	8002d0e <execute+0x302>
 8002a1e:	697b      	ldr	r3, [r7, #20]
 8002a20:	ea4f 0383 	mov.w	r3, r3, lsl #2
 8002a24:	683a      	ldr	r2, [r7, #0]
 8002a26:	18d3      	adds	r3, r2, r3
 8002a28:	681b      	ldr	r3, [r3, #0]
 8002a2a:	4618      	mov	r0, r3
 8002a2c:	4996      	ldr	r1, [pc, #600]	; (8002c88 <execute+0x27c>)
 8002a2e:	f003 f881 	bl	8005b34 <strcmp>
 8002a32:	4603      	mov	r3, r0
 8002a34:	2b00      	cmp	r3, #0
 8002a36:	d113      	bne.n	8002a60 <execute+0x54>
 8002a38:	4894      	ldr	r0, [pc, #592]	; (8002c8c <execute+0x280>)
 8002a3a:	f7ff ff99 	bl	8002970 <print>
 8002a3e:	4894      	ldr	r0, [pc, #592]	; (8002c90 <execute+0x284>)
 8002a40:	f7ff ff96 	bl	8002970 <print>
 8002a44:	4893      	ldr	r0, [pc, #588]	; (8002c94 <execute+0x288>)
 8002a46:	f7ff ff93 	bl	8002970 <print>
 8002a4a:	4b93      	ldr	r3, [pc, #588]	; (8002c98 <execute+0x28c>)
 8002a4c:	681b      	ldr	r3, [r3, #0]
 8002a4e:	4618      	mov	r0, r3
 8002a50:	f7ff ff8e 	bl	8002970 <print>
 8002a54:	4891      	ldr	r0, [pc, #580]	; (8002c9c <execute+0x290>)
 8002a56:	f7ff ff8b 	bl	8002970 <print>
 8002a5a:	f7ff ffa7 	bl	80029ac <print_help>
 8002a5e:	e152      	b.n	8002d06 <execute+0x2fa>
 8002a60:	697b      	ldr	r3, [r7, #20]
 8002a62:	ea4f 0383 	mov.w	r3, r3, lsl #2
 8002a66:	683a      	ldr	r2, [r7, #0]
 8002a68:	18d3      	adds	r3, r2, r3
 8002a6a:	681b      	ldr	r3, [r3, #0]
 8002a6c:	4618      	mov	r0, r3
 8002a6e:	498c      	ldr	r1, [pc, #560]	; (8002ca0 <execute+0x294>)
 8002a70:	f003 f860 	bl	8005b34 <strcmp>
 8002a74:	4603      	mov	r3, r0
 8002a76:	2b00      	cmp	r3, #0
 8002a78:	d106      	bne.n	8002a88 <execute+0x7c>
 8002a7a:	488a      	ldr	r0, [pc, #552]	; (8002ca4 <execute+0x298>)
 8002a7c:	f7ff ff78 	bl	8002970 <print>
 8002a80:	4889      	ldr	r0, [pc, #548]	; (8002ca8 <execute+0x29c>)
 8002a82:	f7ff ff75 	bl	8002970 <print>
 8002a86:	e13e      	b.n	8002d06 <execute+0x2fa>
 8002a88:	697b      	ldr	r3, [r7, #20]
 8002a8a:	ea4f 0383 	mov.w	r3, r3, lsl #2
 8002a8e:	683a      	ldr	r2, [r7, #0]
 8002a90:	18d3      	adds	r3, r2, r3
 8002a92:	681b      	ldr	r3, [r3, #0]
 8002a94:	4618      	mov	r0, r3
 8002a96:	4985      	ldr	r1, [pc, #532]	; (8002cac <execute+0x2a0>)
 8002a98:	f003 f84c 	bl	8005b34 <strcmp>
 8002a9c:	4603      	mov	r3, r0
 8002a9e:	2b00      	cmp	r3, #0
 8002aa0:	d104      	bne.n	8002aac <execute+0xa0>
 8002aa2:	f7ff fbb1 	bl	8002208 <RunScan>
 8002aa6:	f04f 0300 	mov.w	r3, #0
 8002aaa:	e137      	b.n	8002d1c <execute+0x310>
 8002aac:	697b      	ldr	r3, [r7, #20]
 8002aae:	ea4f 0383 	mov.w	r3, r3, lsl #2
 8002ab2:	683a      	ldr	r2, [r7, #0]
 8002ab4:	18d3      	adds	r3, r2, r3
 8002ab6:	681b      	ldr	r3, [r3, #0]
 8002ab8:	4618      	mov	r0, r3
 8002aba:	497d      	ldr	r1, [pc, #500]	; (8002cb0 <execute+0x2a4>)
 8002abc:	f003 f83a 	bl	8005b34 <strcmp>
 8002ac0:	4603      	mov	r3, r0
 8002ac2:	2b00      	cmp	r3, #0
 8002ac4:	d12c      	bne.n	8002b20 <execute+0x114>
 8002ac6:	697b      	ldr	r3, [r7, #20]
 8002ac8:	f103 0301 	add.w	r3, r3, #1
 8002acc:	617b      	str	r3, [r7, #20]
 8002ace:	697a      	ldr	r2, [r7, #20]
 8002ad0:	687b      	ldr	r3, [r7, #4]
 8002ad2:	429a      	cmp	r2, r3
 8002ad4:	da1e      	bge.n	8002b14 <execute+0x108>
 8002ad6:	697b      	ldr	r3, [r7, #20]
 8002ad8:	ea4f 0383 	mov.w	r3, r3, lsl #2
 8002adc:	683a      	ldr	r2, [r7, #0]
 8002ade:	18d3      	adds	r3, r2, r3
 8002ae0:	681b      	ldr	r3, [r3, #0]
 8002ae2:	4618      	mov	r0, r3
 8002ae4:	f002 fbb4 	bl	8005250 <atoi>
 8002ae8:	4603      	mov	r3, r0
 8002aea:	613b      	str	r3, [r7, #16]
 8002aec:	693b      	ldr	r3, [r7, #16]
 8002aee:	2b01      	cmp	r3, #1
 8002af0:	d905      	bls.n	8002afe <execute+0xf2>
 8002af2:	4870      	ldr	r0, [pc, #448]	; (8002cb4 <execute+0x2a8>)
 8002af4:	f000 fd06 	bl	8003504 <printf>
 8002af8:	f04f 33ff 	mov.w	r3, #4294967295
 8002afc:	e10e      	b.n	8002d1c <execute+0x310>
 8002afe:	693b      	ldr	r3, [r7, #16]
 8002b00:	ea4f 22c3 	mov.w	r2, r3, lsl #11
 8002b04:	4b6c      	ldr	r3, [pc, #432]	; (8002cb8 <execute+0x2ac>)
 8002b06:	18d3      	adds	r3, r2, r3
 8002b08:	4618      	mov	r0, r3
 8002b0a:	f002 f9d5 	bl	8004eb8 <DebugPrint>
 8002b0e:	f04f 0300 	mov.w	r3, #0
 8002b12:	e103      	b.n	8002d1c <execute+0x310>
 8002b14:	4869      	ldr	r0, [pc, #420]	; (8002cbc <execute+0x2b0>)
 8002b16:	f7ff ff2b 	bl	8002970 <print>
 8002b1a:	f04f 33ff 	mov.w	r3, #4294967295
 8002b1e:	e0fd      	b.n	8002d1c <execute+0x310>
 8002b20:	697b      	ldr	r3, [r7, #20]
 8002b22:	ea4f 0383 	mov.w	r3, r3, lsl #2
 8002b26:	683a      	ldr	r2, [r7, #0]
 8002b28:	18d3      	adds	r3, r2, r3
 8002b2a:	681b      	ldr	r3, [r3, #0]
 8002b2c:	4618      	mov	r0, r3
 8002b2e:	4964      	ldr	r1, [pc, #400]	; (8002cc0 <execute+0x2b4>)
 8002b30:	f003 f800 	bl	8005b34 <strcmp>
 8002b34:	4603      	mov	r3, r0
 8002b36:	2b00      	cmp	r3, #0
 8002b38:	d122      	bne.n	8002b80 <execute+0x174>
 8002b3a:	697b      	ldr	r3, [r7, #20]
 8002b3c:	f103 0301 	add.w	r3, r3, #1
 8002b40:	617b      	str	r3, [r7, #20]
 8002b42:	697a      	ldr	r2, [r7, #20]
 8002b44:	687b      	ldr	r3, [r7, #4]
 8002b46:	429a      	cmp	r2, r3
 8002b48:	da14      	bge.n	8002b74 <execute+0x168>
 8002b4a:	697b      	ldr	r3, [r7, #20]
 8002b4c:	ea4f 0383 	mov.w	r3, r3, lsl #2
 8002b50:	683a      	ldr	r2, [r7, #0]
 8002b52:	18d3      	adds	r3, r2, r3
 8002b54:	681b      	ldr	r3, [r3, #0]
 8002b56:	4618      	mov	r0, r3
 8002b58:	f002 fb7a 	bl	8005250 <atoi>
 8002b5c:	60f8      	str	r0, [r7, #12]
 8002b5e:	68fb      	ldr	r3, [r7, #12]
 8002b60:	2b00      	cmp	r3, #0
 8002b62:	bfd4      	ite	le
 8002b64:	2300      	movle	r3, #0
 8002b66:	2301      	movgt	r3, #1
 8002b68:	b2da      	uxtb	r2, r3
 8002b6a:	4b56      	ldr	r3, [pc, #344]	; (8002cc4 <execute+0x2b8>)
 8002b6c:	701a      	strb	r2, [r3, #0]
 8002b6e:	f04f 0300 	mov.w	r3, #0
 8002b72:	e0d3      	b.n	8002d1c <execute+0x310>
 8002b74:	4851      	ldr	r0, [pc, #324]	; (8002cbc <execute+0x2b0>)
 8002b76:	f7ff fefb 	bl	8002970 <print>
 8002b7a:	f04f 33ff 	mov.w	r3, #4294967295
 8002b7e:	e0cd      	b.n	8002d1c <execute+0x310>
 8002b80:	697b      	ldr	r3, [r7, #20]
 8002b82:	ea4f 0383 	mov.w	r3, r3, lsl #2
 8002b86:	683a      	ldr	r2, [r7, #0]
 8002b88:	18d3      	adds	r3, r2, r3
 8002b8a:	681b      	ldr	r3, [r3, #0]
 8002b8c:	4618      	mov	r0, r3
 8002b8e:	494e      	ldr	r1, [pc, #312]	; (8002cc8 <execute+0x2bc>)
 8002b90:	f002 ffd0 	bl	8005b34 <strcmp>
 8002b94:	4603      	mov	r3, r0
 8002b96:	2b00      	cmp	r3, #0
 8002b98:	d123      	bne.n	8002be2 <execute+0x1d6>
 8002b9a:	697b      	ldr	r3, [r7, #20]
 8002b9c:	f103 0301 	add.w	r3, r3, #1
 8002ba0:	617b      	str	r3, [r7, #20]
 8002ba2:	697a      	ldr	r2, [r7, #20]
 8002ba4:	687b      	ldr	r3, [r7, #4]
 8002ba6:	429a      	cmp	r2, r3
 8002ba8:	da15      	bge.n	8002bd6 <execute+0x1ca>
 8002baa:	697b      	ldr	r3, [r7, #20]
 8002bac:	ea4f 0383 	mov.w	r3, r3, lsl #2
 8002bb0:	683a      	ldr	r2, [r7, #0]
 8002bb2:	18d3      	adds	r3, r2, r3
 8002bb4:	681b      	ldr	r3, [r3, #0]
 8002bb6:	4618      	mov	r0, r3
 8002bb8:	f002 fb4a 	bl	8005250 <atoi>
 8002bbc:	4603      	mov	r3, r0
 8002bbe:	461a      	mov	r2, r3
 8002bc0:	4b42      	ldr	r3, [pc, #264]	; (8002ccc <execute+0x2c0>)
 8002bc2:	601a      	str	r2, [r3, #0]
 8002bc4:	4b41      	ldr	r3, [pc, #260]	; (8002ccc <execute+0x2c0>)
 8002bc6:	681b      	ldr	r3, [r3, #0]
 8002bc8:	4841      	ldr	r0, [pc, #260]	; (8002cd0 <execute+0x2c4>)
 8002bca:	4619      	mov	r1, r3
 8002bcc:	f000 fc9a 	bl	8003504 <printf>
 8002bd0:	f04f 0300 	mov.w	r3, #0
 8002bd4:	e0a2      	b.n	8002d1c <execute+0x310>
 8002bd6:	4839      	ldr	r0, [pc, #228]	; (8002cbc <execute+0x2b0>)
 8002bd8:	f7ff feca 	bl	8002970 <print>
 8002bdc:	f04f 33ff 	mov.w	r3, #4294967295
 8002be0:	e09c      	b.n	8002d1c <execute+0x310>
 8002be2:	697b      	ldr	r3, [r7, #20]
 8002be4:	ea4f 0383 	mov.w	r3, r3, lsl #2
 8002be8:	683a      	ldr	r2, [r7, #0]
 8002bea:	18d3      	adds	r3, r2, r3
 8002bec:	681b      	ldr	r3, [r3, #0]
 8002bee:	4618      	mov	r0, r3
 8002bf0:	4938      	ldr	r1, [pc, #224]	; (8002cd4 <execute+0x2c8>)
 8002bf2:	f002 ff9f 	bl	8005b34 <strcmp>
 8002bf6:	4603      	mov	r3, r0
 8002bf8:	2b00      	cmp	r3, #0
 8002bfa:	d123      	bne.n	8002c44 <execute+0x238>
 8002bfc:	697b      	ldr	r3, [r7, #20]
 8002bfe:	f103 0301 	add.w	r3, r3, #1
 8002c02:	617b      	str	r3, [r7, #20]
 8002c04:	697a      	ldr	r2, [r7, #20]
 8002c06:	687b      	ldr	r3, [r7, #4]
 8002c08:	429a      	cmp	r2, r3
 8002c0a:	da15      	bge.n	8002c38 <execute+0x22c>
 8002c0c:	697b      	ldr	r3, [r7, #20]
 8002c0e:	ea4f 0383 	mov.w	r3, r3, lsl #2
 8002c12:	683a      	ldr	r2, [r7, #0]
 8002c14:	18d3      	adds	r3, r2, r3
 8002c16:	681b      	ldr	r3, [r3, #0]
 8002c18:	4618      	mov	r0, r3
 8002c1a:	f002 fb19 	bl	8005250 <atoi>
 8002c1e:	4603      	mov	r3, r0
 8002c20:	461a      	mov	r2, r3
 8002c22:	4b2d      	ldr	r3, [pc, #180]	; (8002cd8 <execute+0x2cc>)
 8002c24:	601a      	str	r2, [r3, #0]
 8002c26:	4b2c      	ldr	r3, [pc, #176]	; (8002cd8 <execute+0x2cc>)
 8002c28:	681b      	ldr	r3, [r3, #0]
 8002c2a:	482c      	ldr	r0, [pc, #176]	; (8002cdc <execute+0x2d0>)
 8002c2c:	4619      	mov	r1, r3
 8002c2e:	f000 fc69 	bl	8003504 <printf>
 8002c32:	f04f 0300 	mov.w	r3, #0
 8002c36:	e071      	b.n	8002d1c <execute+0x310>
 8002c38:	4820      	ldr	r0, [pc, #128]	; (8002cbc <execute+0x2b0>)
 8002c3a:	f7ff fe99 	bl	8002970 <print>
 8002c3e:	f04f 33ff 	mov.w	r3, #4294967295
 8002c42:	e06b      	b.n	8002d1c <execute+0x310>
 8002c44:	697b      	ldr	r3, [r7, #20]
 8002c46:	ea4f 0383 	mov.w	r3, r3, lsl #2
 8002c4a:	683a      	ldr	r2, [r7, #0]
 8002c4c:	18d3      	adds	r3, r2, r3
 8002c4e:	681b      	ldr	r3, [r3, #0]
 8002c50:	4618      	mov	r0, r3
 8002c52:	4923      	ldr	r1, [pc, #140]	; (8002ce0 <execute+0x2d4>)
 8002c54:	f002 ff6e 	bl	8005b34 <strcmp>
 8002c58:	4603      	mov	r3, r0
 8002c5a:	2b00      	cmp	r3, #0
 8002c5c:	d144      	bne.n	8002ce8 <execute+0x2dc>
 8002c5e:	4b19      	ldr	r3, [pc, #100]	; (8002cc4 <execute+0x2b8>)
 8002c60:	781b      	ldrb	r3, [r3, #0]
 8002c62:	4820      	ldr	r0, [pc, #128]	; (8002ce4 <execute+0x2d8>)
 8002c64:	4619      	mov	r1, r3
 8002c66:	f000 fc4d 	bl	8003504 <printf>
 8002c6a:	4b18      	ldr	r3, [pc, #96]	; (8002ccc <execute+0x2c0>)
 8002c6c:	681b      	ldr	r3, [r3, #0]
 8002c6e:	4818      	ldr	r0, [pc, #96]	; (8002cd0 <execute+0x2c4>)
 8002c70:	4619      	mov	r1, r3
 8002c72:	f000 fc47 	bl	8003504 <printf>
 8002c76:	4b18      	ldr	r3, [pc, #96]	; (8002cd8 <execute+0x2cc>)
 8002c78:	681b      	ldr	r3, [r3, #0]
 8002c7a:	4818      	ldr	r0, [pc, #96]	; (8002cdc <execute+0x2d0>)
 8002c7c:	4619      	mov	r1, r3
 8002c7e:	f000 fc41 	bl	8003504 <printf>
 8002c82:	f04f 0300 	mov.w	r3, #0
 8002c86:	e049      	b.n	8002d1c <execute+0x310>
 8002c88:	08006e64 	.word	0x08006e64
 8002c8c:	08007058 	.word	0x08007058
 8002c90:	08007064 	.word	0x08007064
 8002c94:	08007068 	.word	0x08007068
 8002c98:	20000020 	.word	0x20000020
 8002c9c:	0800707c 	.word	0x0800707c
 8002ca0:	08006e6c 	.word	0x08006e6c
 8002ca4:	08007080 	.word	0x08007080
 8002ca8:	08007088 	.word	0x08007088
 8002cac:	08006e74 	.word	0x08006e74
 8002cb0:	08006e7c 	.word	0x08006e7c
 8002cb4:	0800708c 	.word	0x0800708c
 8002cb8:	20000f1c 	.word	0x20000f1c
 8002cbc:	080070b0 	.word	0x080070b0
 8002cc0:	08006e84 	.word	0x08006e84
 8002cc4:	20000ee4 	.word	0x20000ee4
 8002cc8:	08006e98 	.word	0x08006e98
 8002ccc:	2000014c 	.word	0x2000014c
 8002cd0:	080070c8 	.word	0x080070c8
 8002cd4:	08006eac 	.word	0x08006eac
 8002cd8:	20000150 	.word	0x20000150
 8002cdc:	080070e0 	.word	0x080070e0
 8002ce0:	08006e90 	.word	0x08006e90
 8002ce4:	080070fc 	.word	0x080070fc
 8002ce8:	480f      	ldr	r0, [pc, #60]	; (8002d28 <execute+0x31c>)
 8002cea:	f7ff fe41 	bl	8002970 <print>
 8002cee:	697b      	ldr	r3, [r7, #20]
 8002cf0:	ea4f 0383 	mov.w	r3, r3, lsl #2
 8002cf4:	683a      	ldr	r2, [r7, #0]
 8002cf6:	18d3      	adds	r3, r2, r3
 8002cf8:	681b      	ldr	r3, [r3, #0]
 8002cfa:	4618      	mov	r0, r3
 8002cfc:	f7ff fe38 	bl	8002970 <print>
 8002d00:	480a      	ldr	r0, [pc, #40]	; (8002d2c <execute+0x320>)
 8002d02:	f7ff fe35 	bl	8002970 <print>
 8002d06:	697b      	ldr	r3, [r7, #20]
 8002d08:	f103 0301 	add.w	r3, r3, #1
 8002d0c:	617b      	str	r3, [r7, #20]
 8002d0e:	697a      	ldr	r2, [r7, #20]
 8002d10:	687b      	ldr	r3, [r7, #4]
 8002d12:	429a      	cmp	r2, r3
 8002d14:	f6ff ae83 	blt.w	8002a1e <execute+0x12>
 8002d18:	f04f 0300 	mov.w	r3, #0
 8002d1c:	4618      	mov	r0, r3
 8002d1e:	f107 0718 	add.w	r7, r7, #24
 8002d22:	46bd      	mov	sp, r7
 8002d24:	bd80      	pop	{r7, pc}
 8002d26:	bf00      	nop
 8002d28:	08007110 	.word	0x08007110
 8002d2c:	0800711c 	.word	0x0800711c

08002d30 <complet>:
 8002d30:	b580      	push	{r7, lr}
 8002d32:	b086      	sub	sp, #24
 8002d34:	af00      	add	r7, sp, #0
 8002d36:	6078      	str	r0, [r7, #4]
 8002d38:	6039      	str	r1, [r7, #0]
 8002d3a:	f04f 0300 	mov.w	r3, #0
 8002d3e:	617b      	str	r3, [r7, #20]
 8002d40:	4b28      	ldr	r3, [pc, #160]	; (8002de4 <complet+0xb4>)
 8002d42:	f04f 0200 	mov.w	r2, #0
 8002d46:	601a      	str	r2, [r3, #0]
 8002d48:	687b      	ldr	r3, [r7, #4]
 8002d4a:	2b01      	cmp	r3, #1
 8002d4c:	d13b      	bne.n	8002dc6 <complet+0x96>
 8002d4e:	687b      	ldr	r3, [r7, #4]
 8002d50:	f103 33ff 	add.w	r3, r3, #4294967295
 8002d54:	ea4f 0383 	mov.w	r3, r3, lsl #2
 8002d58:	683a      	ldr	r2, [r7, #0]
 8002d5a:	18d3      	adds	r3, r2, r3
 8002d5c:	681b      	ldr	r3, [r3, #0]
 8002d5e:	60fb      	str	r3, [r7, #12]
 8002d60:	f04f 0300 	mov.w	r3, #0
 8002d64:	613b      	str	r3, [r7, #16]
 8002d66:	e01e      	b.n	8002da6 <complet+0x76>
 8002d68:	4b1f      	ldr	r3, [pc, #124]	; (8002de8 <complet+0xb8>)
 8002d6a:	693a      	ldr	r2, [r7, #16]
 8002d6c:	f853 3022 	ldr.w	r3, [r3, r2, lsl #2]
 8002d70:	4618      	mov	r0, r3
 8002d72:	68f9      	ldr	r1, [r7, #12]
 8002d74:	f003 f972 	bl	800605c <strstr>
 8002d78:	4602      	mov	r2, r0
 8002d7a:	4b1b      	ldr	r3, [pc, #108]	; (8002de8 <complet+0xb8>)
 8002d7c:	6939      	ldr	r1, [r7, #16]
 8002d7e:	f853 3021 	ldr.w	r3, [r3, r1, lsl #2]
 8002d82:	429a      	cmp	r2, r3
 8002d84:	d10b      	bne.n	8002d9e <complet+0x6e>
 8002d86:	4b18      	ldr	r3, [pc, #96]	; (8002de8 <complet+0xb8>)
 8002d88:	693a      	ldr	r2, [r7, #16]
 8002d8a:	f853 1022 	ldr.w	r1, [r3, r2, lsl #2]
 8002d8e:	4b15      	ldr	r3, [pc, #84]	; (8002de4 <complet+0xb4>)
 8002d90:	697a      	ldr	r2, [r7, #20]
 8002d92:	f843 1022 	str.w	r1, [r3, r2, lsl #2]
 8002d96:	697b      	ldr	r3, [r7, #20]
 8002d98:	f103 0301 	add.w	r3, r3, #1
 8002d9c:	617b      	str	r3, [r7, #20]
 8002d9e:	693b      	ldr	r3, [r7, #16]
 8002da0:	f103 0301 	add.w	r3, r3, #1
 8002da4:	613b      	str	r3, [r7, #16]
 8002da6:	693b      	ldr	r3, [r7, #16]
 8002da8:	2b07      	cmp	r3, #7
 8002daa:	dddd      	ble.n	8002d68 <complet+0x38>
 8002dac:	e00e      	b.n	8002dcc <complet+0x9c>
 8002dae:	4b0e      	ldr	r3, [pc, #56]	; (8002de8 <complet+0xb8>)
 8002db0:	697a      	ldr	r2, [r7, #20]
 8002db2:	f853 1022 	ldr.w	r1, [r3, r2, lsl #2]
 8002db6:	4b0b      	ldr	r3, [pc, #44]	; (8002de4 <complet+0xb4>)
 8002db8:	697a      	ldr	r2, [r7, #20]
 8002dba:	f843 1022 	str.w	r1, [r3, r2, lsl #2]
 8002dbe:	697b      	ldr	r3, [r7, #20]
 8002dc0:	f103 0301 	add.w	r3, r3, #1
 8002dc4:	617b      	str	r3, [r7, #20]
 8002dc6:	697b      	ldr	r3, [r7, #20]
 8002dc8:	2b07      	cmp	r3, #7
 8002dca:	ddf0      	ble.n	8002dae <complet+0x7e>
 8002dcc:	4b05      	ldr	r3, [pc, #20]	; (8002de4 <complet+0xb4>)
 8002dce:	697a      	ldr	r2, [r7, #20]
 8002dd0:	f04f 0100 	mov.w	r1, #0
 8002dd4:	f843 1022 	str.w	r1, [r3, r2, lsl #2]
 8002dd8:	4b02      	ldr	r3, [pc, #8]	; (8002de4 <complet+0xb4>)
 8002dda:	4618      	mov	r0, r3
 8002ddc:	f107 0718 	add.w	r7, r7, #24
 8002de0:	46bd      	mov	sp, r7
 8002de2:	bd80      	pop	{r7, pc}
 8002de4:	20001f1c 	.word	0x20001f1c
 8002de8:	20000024 	.word	0x20000024

08002dec <sigint>:
 8002dec:	b580      	push	{r7, lr}
 8002dee:	af00      	add	r7, sp, #0
 8002df0:	4801      	ldr	r0, [pc, #4]	; (8002df8 <sigint+0xc>)
 8002df2:	f7ff fdbd 	bl	8002970 <print>
 8002df6:	bd80      	pop	{r7, pc}
 8002df8:	0800712c 	.word	0x0800712c

08002dfc <PrintChar>:
 8002dfc:	b580      	push	{r7, lr}
 8002dfe:	b082      	sub	sp, #8
 8002e00:	af00      	add	r7, sp, #0
 8002e02:	4603      	mov	r3, r0
 8002e04:	71fb      	strb	r3, [r7, #7]
 8002e06:	bf00      	nop
 8002e08:	4808      	ldr	r0, [pc, #32]	; (8002e2c <PrintChar+0x30>)
 8002e0a:	f04f 0180 	mov.w	r1, #128	; 0x80
 8002e0e:	f000 fee7 	bl	8003be0 <USART_GetFlagStatus>
 8002e12:	4603      	mov	r3, r0
 8002e14:	2b00      	cmp	r3, #0
 8002e16:	d0f7      	beq.n	8002e08 <PrintChar+0xc>
 8002e18:	79fb      	ldrb	r3, [r7, #7]
 8002e1a:	b29b      	uxth	r3, r3
 8002e1c:	4803      	ldr	r0, [pc, #12]	; (8002e2c <PrintChar+0x30>)
 8002e1e:	4619      	mov	r1, r3
 8002e20:	f000 feb8 	bl	8003b94 <USART_SendData>
 8002e24:	f107 0708 	add.w	r7, r7, #8
 8002e28:	46bd      	mov	sp, r7
 8002e2a:	bd80      	pop	{r7, pc}
 8002e2c:	40013800 	.word	0x40013800

08002e30 <PutChar>:
 8002e30:	b480      	push	{r7}
 8002e32:	b083      	sub	sp, #12
 8002e34:	af00      	add	r7, sp, #0
 8002e36:	6078      	str	r0, [r7, #4]
 8002e38:	460b      	mov	r3, r1
 8002e3a:	70fb      	strb	r3, [r7, #3]
 8002e3c:	687b      	ldr	r3, [r7, #4]
 8002e3e:	78fa      	ldrb	r2, [r7, #3]
 8002e40:	701a      	strb	r2, [r3, #0]
 8002e42:	f04f 0301 	mov.w	r3, #1
 8002e46:	4618      	mov	r0, r3
 8002e48:	f107 070c 	add.w	r7, r7, #12
 8002e4c:	46bd      	mov	sp, r7
 8002e4e:	bc80      	pop	{r7}
 8002e50:	4770      	bx	lr
 8002e52:	bf00      	nop

08002e54 <PutString>:
 8002e54:	b480      	push	{r7}
 8002e56:	b085      	sub	sp, #20
 8002e58:	af00      	add	r7, sp, #0
 8002e5a:	6078      	str	r0, [r7, #4]
 8002e5c:	6039      	str	r1, [r7, #0]
 8002e5e:	f04f 0300 	mov.w	r3, #0
 8002e62:	60fb      	str	r3, [r7, #12]
 8002e64:	e00f      	b.n	8002e86 <PutString+0x32>
 8002e66:	683b      	ldr	r3, [r7, #0]
 8002e68:	781a      	ldrb	r2, [r3, #0]
 8002e6a:	687b      	ldr	r3, [r7, #4]
 8002e6c:	701a      	strb	r2, [r3, #0]
 8002e6e:	687b      	ldr	r3, [r7, #4]
 8002e70:	f103 0301 	add.w	r3, r3, #1
 8002e74:	607b      	str	r3, [r7, #4]
 8002e76:	683b      	ldr	r3, [r7, #0]
 8002e78:	f103 0301 	add.w	r3, r3, #1
 8002e7c:	603b      	str	r3, [r7, #0]
 8002e7e:	68fb      	ldr	r3, [r7, #12]
 8002e80:	f103 0301 	add.w	r3, r3, #1
 8002e84:	60fb      	str	r3, [r7, #12]
 8002e86:	683b      	ldr	r3, [r7, #0]
 8002e88:	781b      	ldrb	r3, [r3, #0]
 8002e8a:	2b00      	cmp	r3, #0
 8002e8c:	d1eb      	bne.n	8002e66 <PutString+0x12>
 8002e8e:	68fb      	ldr	r3, [r7, #12]
 8002e90:	4618      	mov	r0, r3
 8002e92:	f107 0714 	add.w	r7, r7, #20
 8002e96:	46bd      	mov	sp, r7
 8002e98:	bc80      	pop	{r7}
 8002e9a:	4770      	bx	lr

08002e9c <PutUnsignedInt>:
 8002e9c:	b580      	push	{r7, lr}
 8002e9e:	b086      	sub	sp, #24
 8002ea0:	af00      	add	r7, sp, #0
 8002ea2:	60f8      	str	r0, [r7, #12]
 8002ea4:	607a      	str	r2, [r7, #4]
 8002ea6:	603b      	str	r3, [r7, #0]
 8002ea8:	460b      	mov	r3, r1
 8002eaa:	72fb      	strb	r3, [r7, #11]
 8002eac:	f04f 0300 	mov.w	r3, #0
 8002eb0:	617b      	str	r3, [r7, #20]
 8002eb2:	687b      	ldr	r3, [r7, #4]
 8002eb4:	f103 33ff 	add.w	r3, r3, #4294967295
 8002eb8:	607b      	str	r3, [r7, #4]
 8002eba:	683b      	ldr	r3, [r7, #0]
 8002ebc:	2b09      	cmp	r3, #9
 8002ebe:	d922      	bls.n	8002f06 <PutUnsignedInt+0x6a>
 8002ec0:	683a      	ldr	r2, [r7, #0]
 8002ec2:	4b22      	ldr	r3, [pc, #136]	; (8002f4c <PutUnsignedInt+0xb0>)
 8002ec4:	fba3 1302 	umull	r1, r3, r3, r2
 8002ec8:	ea4f 03d3 	mov.w	r3, r3, lsr #3
 8002ecc:	7afa      	ldrb	r2, [r7, #11]
 8002ece:	68f8      	ldr	r0, [r7, #12]
 8002ed0:	4611      	mov	r1, r2
 8002ed2:	687a      	ldr	r2, [r7, #4]
 8002ed4:	f7ff ffe2 	bl	8002e9c <PutUnsignedInt>
 8002ed8:	6178      	str	r0, [r7, #20]
 8002eda:	697b      	ldr	r3, [r7, #20]
 8002edc:	68fa      	ldr	r2, [r7, #12]
 8002ede:	18d3      	adds	r3, r2, r3
 8002ee0:	60fb      	str	r3, [r7, #12]
 8002ee2:	e013      	b.n	8002f0c <PutUnsignedInt+0x70>
 8002ee4:	7afb      	ldrb	r3, [r7, #11]
 8002ee6:	68f8      	ldr	r0, [r7, #12]
 8002ee8:	4619      	mov	r1, r3
 8002eea:	f7ff ffa1 	bl	8002e30 <PutChar>
 8002eee:	68fb      	ldr	r3, [r7, #12]
 8002ef0:	f103 0301 	add.w	r3, r3, #1
 8002ef4:	60fb      	str	r3, [r7, #12]
 8002ef6:	697b      	ldr	r3, [r7, #20]
 8002ef8:	f103 0301 	add.w	r3, r3, #1
 8002efc:	617b      	str	r3, [r7, #20]
 8002efe:	687b      	ldr	r3, [r7, #4]
 8002f00:	f103 33ff 	add.w	r3, r3, #4294967295
 8002f04:	607b      	str	r3, [r7, #4]
 8002f06:	687b      	ldr	r3, [r7, #4]
 8002f08:	2b00      	cmp	r3, #0
 8002f0a:	dceb      	bgt.n	8002ee4 <PutUnsignedInt+0x48>
 8002f0c:	6839      	ldr	r1, [r7, #0]
 8002f0e:	4b0f      	ldr	r3, [pc, #60]	; (8002f4c <PutUnsignedInt+0xb0>)
 8002f10:	fba3 2301 	umull	r2, r3, r3, r1
 8002f14:	ea4f 02d3 	mov.w	r2, r3, lsr #3
 8002f18:	4613      	mov	r3, r2
 8002f1a:	ea4f 0383 	mov.w	r3, r3, lsl #2
 8002f1e:	189b      	adds	r3, r3, r2
 8002f20:	ea4f 0343 	mov.w	r3, r3, lsl #1
 8002f24:	1aca      	subs	r2, r1, r3
 8002f26:	b2d3      	uxtb	r3, r2
 8002f28:	f103 0330 	add.w	r3, r3, #48	; 0x30
 8002f2c:	b2db      	uxtb	r3, r3
 8002f2e:	68f8      	ldr	r0, [r7, #12]
 8002f30:	4619      	mov	r1, r3
 8002f32:	f7ff ff7d 	bl	8002e30 <PutChar>
 8002f36:	4603      	mov	r3, r0
 8002f38:	697a      	ldr	r2, [r7, #20]
 8002f3a:	18d3      	adds	r3, r2, r3
 8002f3c:	617b      	str	r3, [r7, #20]
 8002f3e:	697b      	ldr	r3, [r7, #20]
 8002f40:	4618      	mov	r0, r3
 8002f42:	f107 0718 	add.w	r7, r7, #24
 8002f46:	46bd      	mov	sp, r7
 8002f48:	bd80      	pop	{r7, pc}
 8002f4a:	bf00      	nop
 8002f4c:	cccccccd 	.word	0xcccccccd

08002f50 <PutSignedInt>:
 8002f50:	b580      	push	{r7, lr}
 8002f52:	b086      	sub	sp, #24
 8002f54:	af00      	add	r7, sp, #0
 8002f56:	60f8      	str	r0, [r7, #12]
 8002f58:	607a      	str	r2, [r7, #4]
 8002f5a:	603b      	str	r3, [r7, #0]
 8002f5c:	460b      	mov	r3, r1
 8002f5e:	72fb      	strb	r3, [r7, #11]
 8002f60:	f04f 0300 	mov.w	r3, #0
 8002f64:	617b      	str	r3, [r7, #20]
 8002f66:	683b      	ldr	r3, [r7, #0]
 8002f68:	2b00      	cmp	r3, #0
 8002f6a:	da04      	bge.n	8002f76 <PutSignedInt+0x26>
 8002f6c:	683b      	ldr	r3, [r7, #0]
 8002f6e:	f1c3 0300 	rsb	r3, r3, #0
 8002f72:	613b      	str	r3, [r7, #16]
 8002f74:	e001      	b.n	8002f7a <PutSignedInt+0x2a>
 8002f76:	683b      	ldr	r3, [r7, #0]
 8002f78:	613b      	str	r3, [r7, #16]
 8002f7a:	687b      	ldr	r3, [r7, #4]
 8002f7c:	f103 33ff 	add.w	r3, r3, #4294967295
 8002f80:	607b      	str	r3, [r7, #4]
 8002f82:	693b      	ldr	r3, [r7, #16]
 8002f84:	2b09      	cmp	r3, #9
 8002f86:	d924      	bls.n	8002fd2 <PutSignedInt+0x82>
 8002f88:	683b      	ldr	r3, [r7, #0]
 8002f8a:	2b00      	cmp	r3, #0
 8002f8c:	da0f      	bge.n	8002fae <PutSignedInt+0x5e>
 8002f8e:	693a      	ldr	r2, [r7, #16]
 8002f90:	4b35      	ldr	r3, [pc, #212]	; (8003068 <PutSignedInt+0x118>)
 8002f92:	fba3 1302 	umull	r1, r3, r3, r2
 8002f96:	ea4f 03d3 	mov.w	r3, r3, lsr #3
 8002f9a:	f1c3 0300 	rsb	r3, r3, #0
 8002f9e:	7afa      	ldrb	r2, [r7, #11]
 8002fa0:	68f8      	ldr	r0, [r7, #12]
 8002fa2:	4611      	mov	r1, r2
 8002fa4:	687a      	ldr	r2, [r7, #4]
 8002fa6:	f7ff ffd3 	bl	8002f50 <PutSignedInt>
 8002faa:	6178      	str	r0, [r7, #20]
 8002fac:	e00c      	b.n	8002fc8 <PutSignedInt+0x78>
 8002fae:	693a      	ldr	r2, [r7, #16]
 8002fb0:	4b2d      	ldr	r3, [pc, #180]	; (8003068 <PutSignedInt+0x118>)
 8002fb2:	fba3 1302 	umull	r1, r3, r3, r2
 8002fb6:	ea4f 03d3 	mov.w	r3, r3, lsr #3
 8002fba:	7afa      	ldrb	r2, [r7, #11]
 8002fbc:	68f8      	ldr	r0, [r7, #12]
 8002fbe:	4611      	mov	r1, r2
 8002fc0:	687a      	ldr	r2, [r7, #4]
 8002fc2:	f7ff ffc5 	bl	8002f50 <PutSignedInt>
 8002fc6:	6178      	str	r0, [r7, #20]
 8002fc8:	697b      	ldr	r3, [r7, #20]
 8002fca:	68fa      	ldr	r2, [r7, #12]
 8002fcc:	18d3      	adds	r3, r2, r3
 8002fce:	60fb      	str	r3, [r7, #12]
 8002fd0:	e02b      	b.n	800302a <PutSignedInt+0xda>
 8002fd2:	683b      	ldr	r3, [r7, #0]
 8002fd4:	2b00      	cmp	r3, #0
 8002fd6:	da15      	bge.n	8003004 <PutSignedInt+0xb4>
 8002fd8:	687b      	ldr	r3, [r7, #4]
 8002fda:	f103 33ff 	add.w	r3, r3, #4294967295
 8002fde:	607b      	str	r3, [r7, #4]
 8002fe0:	e010      	b.n	8003004 <PutSignedInt+0xb4>
 8002fe2:	7afb      	ldrb	r3, [r7, #11]
 8002fe4:	68f8      	ldr	r0, [r7, #12]
 8002fe6:	4619      	mov	r1, r3
 8002fe8:	f7ff ff22 	bl	8002e30 <PutChar>
 8002fec:	68fb      	ldr	r3, [r7, #12]
 8002fee:	f103 0301 	add.w	r3, r3, #1
 8002ff2:	60fb      	str	r3, [r7, #12]
 8002ff4:	697b      	ldr	r3, [r7, #20]
 8002ff6:	f103 0301 	add.w	r3, r3, #1
 8002ffa:	617b      	str	r3, [r7, #20]
 8002ffc:	687b      	ldr	r3, [r7, #4]
 8002ffe:	f103 33ff 	add.w	r3, r3, #4294967295
 8003002:	607b      	str	r3, [r7, #4]
 8003004:	687b      	ldr	r3, [r7, #4]
 8003006:	2b00      	cmp	r3, #0
 8003008:	dceb      	bgt.n	8002fe2 <PutSignedInt+0x92>
 800300a:	683b      	ldr	r3, [r7, #0]
 800300c:	2b00      	cmp	r3, #0
 800300e:	da0c      	bge.n	800302a <PutSignedInt+0xda>
 8003010:	68f8      	ldr	r0, [r7, #12]
 8003012:	f04f 012d 	mov.w	r1, #45	; 0x2d
 8003016:	f7ff ff0b 	bl	8002e30 <PutChar>
 800301a:	4603      	mov	r3, r0
 800301c:	697a      	ldr	r2, [r7, #20]
 800301e:	18d3      	adds	r3, r2, r3
 8003020:	617b      	str	r3, [r7, #20]
 8003022:	68fb      	ldr	r3, [r7, #12]
 8003024:	f103 0301 	add.w	r3, r3, #1
 8003028:	60fb      	str	r3, [r7, #12]
 800302a:	6939      	ldr	r1, [r7, #16]
 800302c:	4b0e      	ldr	r3, [pc, #56]	; (8003068 <PutSignedInt+0x118>)
 800302e:	fba3 2301 	umull	r2, r3, r3, r1
 8003032:	ea4f 02d3 	mov.w	r2, r3, lsr #3
 8003036:	4613      	mov	r3, r2
 8003038:	ea4f 0383 	mov.w	r3, r3, lsl #2
 800303c:	189b      	adds	r3, r3, r2
 800303e:	ea4f 0343 	mov.w	r3, r3, lsl #1
 8003042:	1aca      	subs	r2, r1, r3
 8003044:	b2d3      	uxtb	r3, r2
 8003046:	f103 0330 	add.w	r3, r3, #48	; 0x30
 800304a:	b2db      	uxtb	r3, r3
 800304c:	68f8      	ldr	r0, [r7, #12]
 800304e:	4619      	mov	r1, r3
 8003050:	f7ff feee 	bl	8002e30 <PutChar>
 8003054:	4603      	mov	r3, r0
 8003056:	697a      	ldr	r2, [r7, #20]
 8003058:	18d3      	adds	r3, r2, r3
 800305a:	617b      	str	r3, [r7, #20]
 800305c:	697b      	ldr	r3, [r7, #20]
 800305e:	4618      	mov	r0, r3
 8003060:	f107 0718 	add.w	r7, r7, #24
 8003064:	46bd      	mov	sp, r7
 8003066:	bd80      	pop	{r7, pc}
 8003068:	cccccccd 	.word	0xcccccccd

0800306c <PutHexa>:
 800306c:	b580      	push	{r7, lr}
 800306e:	b088      	sub	sp, #32
 8003070:	af02      	add	r7, sp, #8
 8003072:	60f8      	str	r0, [r7, #12]
 8003074:	607a      	str	r2, [r7, #4]
 8003076:	460a      	mov	r2, r1
 8003078:	72fa      	strb	r2, [r7, #11]
 800307a:	70fb      	strb	r3, [r7, #3]
 800307c:	f04f 0300 	mov.w	r3, #0
 8003080:	617b      	str	r3, [r7, #20]
 8003082:	687b      	ldr	r3, [r7, #4]
 8003084:	f103 33ff 	add.w	r3, r3, #4294967295
 8003088:	607b      	str	r3, [r7, #4]
 800308a:	6a3b      	ldr	r3, [r7, #32]
 800308c:	ea4f 1313 	mov.w	r3, r3, lsr #4
 8003090:	2b00      	cmp	r3, #0
 8003092:	d024      	beq.n	80030de <PutHexa+0x72>
 8003094:	6a3b      	ldr	r3, [r7, #32]
 8003096:	ea4f 1113 	mov.w	r1, r3, lsr #4
 800309a:	7afa      	ldrb	r2, [r7, #11]
 800309c:	78fb      	ldrb	r3, [r7, #3]
 800309e:	9100      	str	r1, [sp, #0]
 80030a0:	68f8      	ldr	r0, [r7, #12]
 80030a2:	4611      	mov	r1, r2
 80030a4:	687a      	ldr	r2, [r7, #4]
 80030a6:	f7ff ffe1 	bl	800306c <PutHexa>
 80030aa:	4603      	mov	r3, r0
 80030ac:	697a      	ldr	r2, [r7, #20]
 80030ae:	18d3      	adds	r3, r2, r3
 80030b0:	617b      	str	r3, [r7, #20]
 80030b2:	697b      	ldr	r3, [r7, #20]
 80030b4:	68fa      	ldr	r2, [r7, #12]
 80030b6:	18d3      	adds	r3, r2, r3
 80030b8:	60fb      	str	r3, [r7, #12]
 80030ba:	e013      	b.n	80030e4 <PutHexa+0x78>
 80030bc:	7afb      	ldrb	r3, [r7, #11]
 80030be:	68f8      	ldr	r0, [r7, #12]
 80030c0:	4619      	mov	r1, r3
 80030c2:	f7ff feb5 	bl	8002e30 <PutChar>
 80030c6:	68fb      	ldr	r3, [r7, #12]
 80030c8:	f103 0301 	add.w	r3, r3, #1
 80030cc:	60fb      	str	r3, [r7, #12]
 80030ce:	697b      	ldr	r3, [r7, #20]
 80030d0:	f103 0301 	add.w	r3, r3, #1
 80030d4:	617b      	str	r3, [r7, #20]
 80030d6:	687b      	ldr	r3, [r7, #4]
 80030d8:	f103 33ff 	add.w	r3, r3, #4294967295
 80030dc:	607b      	str	r3, [r7, #4]
 80030de:	687b      	ldr	r3, [r7, #4]
 80030e0:	2b00      	cmp	r3, #0
 80030e2:	dceb      	bgt.n	80030bc <PutHexa+0x50>
 80030e4:	6a3b      	ldr	r3, [r7, #32]
 80030e6:	f003 030f 	and.w	r3, r3, #15
 80030ea:	2b09      	cmp	r3, #9
 80030ec:	d80c      	bhi.n	8003108 <PutHexa+0x9c>
 80030ee:	6a3b      	ldr	r3, [r7, #32]
 80030f0:	b2db      	uxtb	r3, r3
 80030f2:	f003 030f 	and.w	r3, r3, #15
 80030f6:	b2db      	uxtb	r3, r3
 80030f8:	f103 0330 	add.w	r3, r3, #48	; 0x30
 80030fc:	b2db      	uxtb	r3, r3
 80030fe:	68f8      	ldr	r0, [r7, #12]
 8003100:	4619      	mov	r1, r3
 8003102:	f7ff fe95 	bl	8002e30 <PutChar>
 8003106:	e01b      	b.n	8003140 <PutHexa+0xd4>
 8003108:	78fb      	ldrb	r3, [r7, #3]
 800310a:	2b00      	cmp	r3, #0
 800310c:	d00c      	beq.n	8003128 <PutHexa+0xbc>
 800310e:	6a3b      	ldr	r3, [r7, #32]
 8003110:	b2db      	uxtb	r3, r3
 8003112:	f003 030f 	and.w	r3, r3, #15
 8003116:	b2db      	uxtb	r3, r3
 8003118:	f103 0337 	add.w	r3, r3, #55	; 0x37
 800311c:	b2db      	uxtb	r3, r3
 800311e:	68f8      	ldr	r0, [r7, #12]
 8003120:	4619      	mov	r1, r3
 8003122:	f7ff fe85 	bl	8002e30 <PutChar>
 8003126:	e00b      	b.n	8003140 <PutHexa+0xd4>
 8003128:	6a3b      	ldr	r3, [r7, #32]
 800312a:	b2db      	uxtb	r3, r3
 800312c:	f003 030f 	and.w	r3, r3, #15
 8003130:	b2db      	uxtb	r3, r3
 8003132:	f103 0357 	add.w	r3, r3, #87	; 0x57
 8003136:	b2db      	uxtb	r3, r3
 8003138:	68f8      	ldr	r0, [r7, #12]
 800313a:	4619      	mov	r1, r3
 800313c:	f7ff fe78 	bl	8002e30 <PutChar>
 8003140:	697b      	ldr	r3, [r7, #20]
 8003142:	f103 0301 	add.w	r3, r3, #1
 8003146:	617b      	str	r3, [r7, #20]
 8003148:	697b      	ldr	r3, [r7, #20]
 800314a:	4618      	mov	r0, r3
 800314c:	f107 0718 	add.w	r7, r7, #24
 8003150:	46bd      	mov	sp, r7
 8003152:	bd80      	pop	{r7, pc}

08003154 <vsnprintf>:
 8003154:	b580      	push	{r7, lr}
 8003156:	b08a      	sub	sp, #40	; 0x28
 8003158:	af02      	add	r7, sp, #8
 800315a:	60f8      	str	r0, [r7, #12]
 800315c:	60b9      	str	r1, [r7, #8]
 800315e:	607a      	str	r2, [r7, #4]
 8003160:	603b      	str	r3, [r7, #0]
 8003162:	f04f 0300 	mov.w	r3, #0
 8003166:	61bb      	str	r3, [r7, #24]
 8003168:	f04f 0300 	mov.w	r3, #0
 800316c:	617b      	str	r3, [r7, #20]
 800316e:	68fb      	ldr	r3, [r7, #12]
 8003170:	2b00      	cmp	r3, #0
 8003172:	f000 811c 	beq.w	80033ae <vsnprintf+0x25a>
 8003176:	68fb      	ldr	r3, [r7, #12]
 8003178:	f04f 0200 	mov.w	r2, #0
 800317c:	701a      	strb	r2, [r3, #0]
 800317e:	e117      	b.n	80033b0 <vsnprintf+0x25c>
 8003180:	687b      	ldr	r3, [r7, #4]
 8003182:	781b      	ldrb	r3, [r3, #0]
 8003184:	2b25      	cmp	r3, #37	; 0x25
 8003186:	d010      	beq.n	80031aa <vsnprintf+0x56>
 8003188:	687b      	ldr	r3, [r7, #4]
 800318a:	781a      	ldrb	r2, [r3, #0]
 800318c:	68fb      	ldr	r3, [r7, #12]
 800318e:	701a      	strb	r2, [r3, #0]
 8003190:	68fb      	ldr	r3, [r7, #12]
 8003192:	f103 0301 	add.w	r3, r3, #1
 8003196:	60fb      	str	r3, [r7, #12]
 8003198:	687b      	ldr	r3, [r7, #4]
 800319a:	f103 0301 	add.w	r3, r3, #1
 800319e:	607b      	str	r3, [r7, #4]
 80031a0:	697b      	ldr	r3, [r7, #20]
 80031a2:	f103 0301 	add.w	r3, r3, #1
 80031a6:	617b      	str	r3, [r7, #20]
 80031a8:	e102      	b.n	80033b0 <vsnprintf+0x25c>
 80031aa:	687b      	ldr	r3, [r7, #4]
 80031ac:	f103 0301 	add.w	r3, r3, #1
 80031b0:	781b      	ldrb	r3, [r3, #0]
 80031b2:	2b25      	cmp	r3, #37	; 0x25
 80031b4:	d110      	bne.n	80031d8 <vsnprintf+0x84>
 80031b6:	68fb      	ldr	r3, [r7, #12]
 80031b8:	f04f 0225 	mov.w	r2, #37	; 0x25
 80031bc:	701a      	strb	r2, [r3, #0]
 80031be:	68fb      	ldr	r3, [r7, #12]
 80031c0:	f103 0301 	add.w	r3, r3, #1
 80031c4:	60fb      	str	r3, [r7, #12]
 80031c6:	687b      	ldr	r3, [r7, #4]
 80031c8:	f103 0302 	add.w	r3, r3, #2
 80031cc:	607b      	str	r3, [r7, #4]
 80031ce:	697b      	ldr	r3, [r7, #20]
 80031d0:	f103 0301 	add.w	r3, r3, #1
 80031d4:	617b      	str	r3, [r7, #20]
 80031d6:	e0eb      	b.n	80033b0 <vsnprintf+0x25c>
 80031d8:	f04f 0320 	mov.w	r3, #32
 80031dc:	77fb      	strb	r3, [r7, #31]
 80031de:	f04f 0300 	mov.w	r3, #0
 80031e2:	77bb      	strb	r3, [r7, #30]
 80031e4:	687b      	ldr	r3, [r7, #4]
 80031e6:	f103 0301 	add.w	r3, r3, #1
 80031ea:	607b      	str	r3, [r7, #4]
 80031ec:	687b      	ldr	r3, [r7, #4]
 80031ee:	781b      	ldrb	r3, [r3, #0]
 80031f0:	2b30      	cmp	r3, #48	; 0x30
 80031f2:	d11b      	bne.n	800322c <vsnprintf+0xd8>
 80031f4:	f04f 0330 	mov.w	r3, #48	; 0x30
 80031f8:	77fb      	strb	r3, [r7, #31]
 80031fa:	687b      	ldr	r3, [r7, #4]
 80031fc:	f103 0301 	add.w	r3, r3, #1
 8003200:	607b      	str	r3, [r7, #4]
 8003202:	e014      	b.n	800322e <vsnprintf+0xda>
 8003204:	7fbb      	ldrb	r3, [r7, #30]
 8003206:	461a      	mov	r2, r3
 8003208:	ea4f 0282 	mov.w	r2, r2, lsl #2
 800320c:	18d3      	adds	r3, r2, r3
 800320e:	ea4f 0343 	mov.w	r3, r3, lsl #1
 8003212:	b2da      	uxtb	r2, r3
 8003214:	687b      	ldr	r3, [r7, #4]
 8003216:	781b      	ldrb	r3, [r3, #0]
 8003218:	18d3      	adds	r3, r2, r3
 800321a:	b2db      	uxtb	r3, r3
 800321c:	f1a3 0330 	sub.w	r3, r3, #48	; 0x30
 8003220:	77bb      	strb	r3, [r7, #30]
 8003222:	687b      	ldr	r3, [r7, #4]
 8003224:	f103 0301 	add.w	r3, r3, #1
 8003228:	607b      	str	r3, [r7, #4]
 800322a:	e000      	b.n	800322e <vsnprintf+0xda>
 800322c:	bf00      	nop
 800322e:	687b      	ldr	r3, [r7, #4]
 8003230:	781b      	ldrb	r3, [r3, #0]
 8003232:	2b2f      	cmp	r3, #47	; 0x2f
 8003234:	d903      	bls.n	800323e <vsnprintf+0xea>
 8003236:	687b      	ldr	r3, [r7, #4]
 8003238:	781b      	ldrb	r3, [r3, #0]
 800323a:	2b39      	cmp	r3, #57	; 0x39
 800323c:	d9e2      	bls.n	8003204 <vsnprintf+0xb0>
 800323e:	7fba      	ldrb	r2, [r7, #30]
 8003240:	697b      	ldr	r3, [r7, #20]
 8003242:	18d3      	adds	r3, r2, r3
 8003244:	461a      	mov	r2, r3
 8003246:	68bb      	ldr	r3, [r7, #8]
 8003248:	429a      	cmp	r2, r3
 800324a:	d905      	bls.n	8003258 <vsnprintf+0x104>
 800324c:	68bb      	ldr	r3, [r7, #8]
 800324e:	b2da      	uxtb	r2, r3
 8003250:	697b      	ldr	r3, [r7, #20]
 8003252:	b2db      	uxtb	r3, r3
 8003254:	1ad3      	subs	r3, r2, r3
 8003256:	77bb      	strb	r3, [r7, #30]
 8003258:	687b      	ldr	r3, [r7, #4]
 800325a:	781b      	ldrb	r3, [r3, #0]
 800325c:	f1a3 0358 	sub.w	r3, r3, #88	; 0x58
 8003260:	2b20      	cmp	r3, #32
 8003262:	f200 8094 	bhi.w	800338e <vsnprintf+0x23a>
 8003266:	a201      	add	r2, pc, #4	; (adr r2, 800326c <vsnprintf+0x118>)
 8003268:	f852 f023 	ldr.w	pc, [r2, r3, lsl #2]
 800326c:	08003341 	.word	0x08003341
 8003270:	0800338f 	.word	0x0800338f
 8003274:	0800338f 	.word	0x0800338f
 8003278:	0800338f 	.word	0x0800338f
 800327c:	0800338f 	.word	0x0800338f
 8003280:	0800338f 	.word	0x0800338f
 8003284:	0800338f 	.word	0x0800338f
 8003288:	0800338f 	.word	0x0800338f
 800328c:	0800338f 	.word	0x0800338f
 8003290:	0800338f 	.word	0x0800338f
 8003294:	0800338f 	.word	0x0800338f
 8003298:	08003377 	.word	0x08003377
 800329c:	080032f1 	.word	0x080032f1
 80032a0:	0800338f 	.word	0x0800338f
 80032a4:	0800338f 	.word	0x0800338f
 80032a8:	0800338f 	.word	0x0800338f
 80032ac:	0800338f 	.word	0x0800338f
 80032b0:	080032f1 	.word	0x080032f1
 80032b4:	0800338f 	.word	0x0800338f
 80032b8:	0800338f 	.word	0x0800338f
 80032bc:	0800338f 	.word	0x0800338f
 80032c0:	0800338f 	.word	0x0800338f
 80032c4:	0800338f 	.word	0x0800338f
 80032c8:	0800338f 	.word	0x0800338f
 80032cc:	0800338f 	.word	0x0800338f
 80032d0:	0800338f 	.word	0x0800338f
 80032d4:	0800338f 	.word	0x0800338f
 80032d8:	08003361 	.word	0x08003361
 80032dc:	0800338f 	.word	0x0800338f
 80032e0:	08003309 	.word	0x08003309
 80032e4:	0800338f 	.word	0x0800338f
 80032e8:	0800338f 	.word	0x0800338f
 80032ec:	08003321 	.word	0x08003321
 80032f0:	7fba      	ldrb	r2, [r7, #30]
 80032f2:	683b      	ldr	r3, [r7, #0]
 80032f4:	f103 0104 	add.w	r1, r3, #4
 80032f8:	6039      	str	r1, [r7, #0]
 80032fa:	681b      	ldr	r3, [r3, #0]
 80032fc:	7ff9      	ldrb	r1, [r7, #31]
 80032fe:	68f8      	ldr	r0, [r7, #12]
 8003300:	f7ff fe26 	bl	8002f50 <PutSignedInt>
 8003304:	61b8      	str	r0, [r7, #24]
 8003306:	e045      	b.n	8003394 <vsnprintf+0x240>
 8003308:	7fba      	ldrb	r2, [r7, #30]
 800330a:	683b      	ldr	r3, [r7, #0]
 800330c:	f103 0104 	add.w	r1, r3, #4
 8003310:	6039      	str	r1, [r7, #0]
 8003312:	681b      	ldr	r3, [r3, #0]
 8003314:	7ff9      	ldrb	r1, [r7, #31]
 8003316:	68f8      	ldr	r0, [r7, #12]
 8003318:	f7ff fdc0 	bl	8002e9c <PutUnsignedInt>
 800331c:	61b8      	str	r0, [r7, #24]
 800331e:	e039      	b.n	8003394 <vsnprintf+0x240>
 8003320:	7fba      	ldrb	r2, [r7, #30]
 8003322:	683b      	ldr	r3, [r7, #0]
 8003324:	f103 0104 	add.w	r1, r3, #4
 8003328:	6039      	str	r1, [r7, #0]
 800332a:	6819      	ldr	r1, [r3, #0]
 800332c:	7ffb      	ldrb	r3, [r7, #31]
 800332e:	9100      	str	r1, [sp, #0]
 8003330:	68f8      	ldr	r0, [r7, #12]
 8003332:	4619      	mov	r1, r3
 8003334:	f04f 0300 	mov.w	r3, #0
 8003338:	f7ff fe98 	bl	800306c <PutHexa>
 800333c:	61b8      	str	r0, [r7, #24]
 800333e:	e029      	b.n	8003394 <vsnprintf+0x240>
 8003340:	7fba      	ldrb	r2, [r7, #30]
 8003342:	683b      	ldr	r3, [r7, #0]
 8003344:	f103 0104 	add.w	r1, r3, #4
 8003348:	6039      	str	r1, [r7, #0]
 800334a:	6819      	ldr	r1, [r3, #0]
 800334c:	7ffb      	ldrb	r3, [r7, #31]
 800334e:	9100      	str	r1, [sp, #0]
 8003350:	68f8      	ldr	r0, [r7, #12]
 8003352:	4619      	mov	r1, r3
 8003354:	f04f 0301 	mov.w	r3, #1
 8003358:	f7ff fe88 	bl	800306c <PutHexa>
 800335c:	61b8      	str	r0, [r7, #24]
 800335e:	e019      	b.n	8003394 <vsnprintf+0x240>
 8003360:	683b      	ldr	r3, [r7, #0]
 8003362:	f103 0204 	add.w	r2, r3, #4
 8003366:	603a      	str	r2, [r7, #0]
 8003368:	681b      	ldr	r3, [r3, #0]
 800336a:	68f8      	ldr	r0, [r7, #12]
 800336c:	4619      	mov	r1, r3
 800336e:	f7ff fd71 	bl	8002e54 <PutString>
 8003372:	61b8      	str	r0, [r7, #24]
 8003374:	e00e      	b.n	8003394 <vsnprintf+0x240>
 8003376:	683b      	ldr	r3, [r7, #0]
 8003378:	f103 0204 	add.w	r2, r3, #4
 800337c:	603a      	str	r2, [r7, #0]
 800337e:	681b      	ldr	r3, [r3, #0]
 8003380:	b2db      	uxtb	r3, r3
 8003382:	68f8      	ldr	r0, [r7, #12]
 8003384:	4619      	mov	r1, r3
 8003386:	f7ff fd53 	bl	8002e30 <PutChar>
 800338a:	61b8      	str	r0, [r7, #24]
 800338c:	e002      	b.n	8003394 <vsnprintf+0x240>
 800338e:	f04f 33ff 	mov.w	r3, #4294967295
 8003392:	e02c      	b.n	80033ee <vsnprintf+0x29a>
 8003394:	687b      	ldr	r3, [r7, #4]
 8003396:	f103 0301 	add.w	r3, r3, #1
 800339a:	607b      	str	r3, [r7, #4]
 800339c:	69bb      	ldr	r3, [r7, #24]
 800339e:	68fa      	ldr	r2, [r7, #12]
 80033a0:	18d3      	adds	r3, r2, r3
 80033a2:	60fb      	str	r3, [r7, #12]
 80033a4:	697a      	ldr	r2, [r7, #20]
 80033a6:	69bb      	ldr	r3, [r7, #24]
 80033a8:	18d3      	adds	r3, r2, r3
 80033aa:	617b      	str	r3, [r7, #20]
 80033ac:	e000      	b.n	80033b0 <vsnprintf+0x25c>
 80033ae:	bf00      	nop
 80033b0:	687b      	ldr	r3, [r7, #4]
 80033b2:	781b      	ldrb	r3, [r3, #0]
 80033b4:	2b00      	cmp	r3, #0
 80033b6:	d004      	beq.n	80033c2 <vsnprintf+0x26e>
 80033b8:	697a      	ldr	r2, [r7, #20]
 80033ba:	68bb      	ldr	r3, [r7, #8]
 80033bc:	429a      	cmp	r2, r3
 80033be:	f4ff aedf 	bcc.w	8003180 <vsnprintf+0x2c>
 80033c2:	697a      	ldr	r2, [r7, #20]
 80033c4:	68bb      	ldr	r3, [r7, #8]
 80033c6:	429a      	cmp	r2, r3
 80033c8:	d204      	bcs.n	80033d4 <vsnprintf+0x280>
 80033ca:	68fb      	ldr	r3, [r7, #12]
 80033cc:	f04f 0200 	mov.w	r2, #0
 80033d0:	701a      	strb	r2, [r3, #0]
 80033d2:	e00b      	b.n	80033ec <vsnprintf+0x298>
 80033d4:	68fb      	ldr	r3, [r7, #12]
 80033d6:	f103 33ff 	add.w	r3, r3, #4294967295
 80033da:	60fb      	str	r3, [r7, #12]
 80033dc:	68fb      	ldr	r3, [r7, #12]
 80033de:	f04f 0200 	mov.w	r2, #0
 80033e2:	701a      	strb	r2, [r3, #0]
 80033e4:	697b      	ldr	r3, [r7, #20]
 80033e6:	f103 33ff 	add.w	r3, r3, #4294967295
 80033ea:	617b      	str	r3, [r7, #20]
 80033ec:	697b      	ldr	r3, [r7, #20]
 80033ee:	4618      	mov	r0, r3
 80033f0:	f107 0720 	add.w	r7, r7, #32
 80033f4:	46bd      	mov	sp, r7
 80033f6:	bd80      	pop	{r7, pc}

080033f8 <snprintf>:
 80033f8:	b40c      	push	{r2, r3}
 80033fa:	b580      	push	{r7, lr}
 80033fc:	b084      	sub	sp, #16
 80033fe:	af00      	add	r7, sp, #0
 8003400:	6078      	str	r0, [r7, #4]
 8003402:	6039      	str	r1, [r7, #0]
 8003404:	f107 031c 	add.w	r3, r7, #28
 8003408:	60bb      	str	r3, [r7, #8]
 800340a:	6878      	ldr	r0, [r7, #4]
 800340c:	6839      	ldr	r1, [r7, #0]
 800340e:	69ba      	ldr	r2, [r7, #24]
 8003410:	68bb      	ldr	r3, [r7, #8]
 8003412:	f7ff fe9f 	bl	8003154 <vsnprintf>
 8003416:	60f8      	str	r0, [r7, #12]
 8003418:	68fb      	ldr	r3, [r7, #12]
 800341a:	4618      	mov	r0, r3
 800341c:	f107 0710 	add.w	r7, r7, #16
 8003420:	46bd      	mov	sp, r7
 8003422:	e8bd 4080 	ldmia.w	sp!, {r7, lr}
 8003426:	b002      	add	sp, #8
 8003428:	4770      	bx	lr
 800342a:	bf00      	nop

0800342c <vsprintf>:
 800342c:	b580      	push	{r7, lr}
 800342e:	b084      	sub	sp, #16
 8003430:	af00      	add	r7, sp, #0
 8003432:	60f8      	str	r0, [r7, #12]
 8003434:	60b9      	str	r1, [r7, #8]
 8003436:	607a      	str	r2, [r7, #4]
 8003438:	68f8      	ldr	r0, [r7, #12]
 800343a:	f04f 01ff 	mov.w	r1, #255	; 0xff
 800343e:	68ba      	ldr	r2, [r7, #8]
 8003440:	687b      	ldr	r3, [r7, #4]
 8003442:	f7ff fe87 	bl	8003154 <vsnprintf>
 8003446:	4603      	mov	r3, r0
 8003448:	4618      	mov	r0, r3
 800344a:	f107 0710 	add.w	r7, r7, #16
 800344e:	46bd      	mov	sp, r7
 8003450:	bd80      	pop	{r7, pc}
 8003452:	bf00      	nop

08003454 <vfprintf>:
 8003454:	b5b0      	push	{r4, r5, r7, lr}
 8003456:	b0ce      	sub	sp, #312	; 0x138
 8003458:	af00      	add	r7, sp, #0
 800345a:	f107 030c 	add.w	r3, r7, #12
 800345e:	6018      	str	r0, [r3, #0]
 8003460:	f107 0308 	add.w	r3, r7, #8
 8003464:	6019      	str	r1, [r3, #0]
 8003466:	f107 0304 	add.w	r3, r7, #4
 800346a:	601a      	str	r2, [r3, #0]
 800346c:	f107 0214 	add.w	r2, r7, #20
 8003470:	4b17      	ldr	r3, [pc, #92]	; (80034d0 <vfprintf+0x7c>)
 8003472:	4614      	mov	r4, r2
 8003474:	461d      	mov	r5, r3
 8003476:	cd0f      	ldmia	r5!, {r0, r1, r2, r3}
 8003478:	c40f      	stmia	r4!, {r0, r1, r2, r3}
 800347a:	cd0f      	ldmia	r5!, {r0, r1, r2, r3}
 800347c:	c40f      	stmia	r4!, {r0, r1, r2, r3}
 800347e:	682b      	ldr	r3, [r5, #0]
 8003480:	6023      	str	r3, [r4, #0]
 8003482:	f107 0138 	add.w	r1, r7, #56	; 0x38
 8003486:	f107 0208 	add.w	r2, r7, #8
 800348a:	f107 0304 	add.w	r3, r7, #4
 800348e:	4608      	mov	r0, r1
 8003490:	6811      	ldr	r1, [r2, #0]
 8003492:	681a      	ldr	r2, [r3, #0]
 8003494:	f7ff ffca 	bl	800342c <vsprintf>
 8003498:	4603      	mov	r3, r0
 800349a:	2bfe      	cmp	r3, #254	; 0xfe
 800349c:	dd09      	ble.n	80034b2 <vfprintf+0x5e>
 800349e:	4b0d      	ldr	r3, [pc, #52]	; (80034d4 <vfprintf+0x80>)
 80034a0:	681b      	ldr	r3, [r3, #0]
 80034a2:	68db      	ldr	r3, [r3, #12]
 80034a4:	f107 0214 	add.w	r2, r7, #20
 80034a8:	4610      	mov	r0, r2
 80034aa:	4619      	mov	r1, r3
 80034ac:	f000 f862 	bl	8003574 <fputs>
 80034b0:	e7fe      	b.n	80034b0 <vfprintf+0x5c>
 80034b2:	f107 0238 	add.w	r2, r7, #56	; 0x38
 80034b6:	f107 030c 	add.w	r3, r7, #12
 80034ba:	4610      	mov	r0, r2
 80034bc:	6819      	ldr	r1, [r3, #0]
 80034be:	f000 f859 	bl	8003574 <fputs>
 80034c2:	4603      	mov	r3, r0
 80034c4:	4618      	mov	r0, r3
 80034c6:	f507 779c 	add.w	r7, r7, #312	; 0x138
 80034ca:	46bd      	mov	sp, r7
 80034cc:	bdb0      	pop	{r4, r5, r7, pc}
 80034ce:	bf00      	nop
 80034d0:	0800713c 	.word	0x0800713c
 80034d4:	20000134 	.word	0x20000134

080034d8 <vprintf>:
 80034d8:	b580      	push	{r7, lr}
 80034da:	b082      	sub	sp, #8
 80034dc:	af00      	add	r7, sp, #0
 80034de:	6078      	str	r0, [r7, #4]
 80034e0:	6039      	str	r1, [r7, #0]
 80034e2:	4b07      	ldr	r3, [pc, #28]	; (8003500 <vprintf+0x28>)
 80034e4:	681b      	ldr	r3, [r3, #0]
 80034e6:	689b      	ldr	r3, [r3, #8]
 80034e8:	4618      	mov	r0, r3
 80034ea:	6879      	ldr	r1, [r7, #4]
 80034ec:	683a      	ldr	r2, [r7, #0]
 80034ee:	f7ff ffb1 	bl	8003454 <vfprintf>
 80034f2:	4603      	mov	r3, r0
 80034f4:	4618      	mov	r0, r3
 80034f6:	f107 0708 	add.w	r7, r7, #8
 80034fa:	46bd      	mov	sp, r7
 80034fc:	bd80      	pop	{r7, pc}
 80034fe:	bf00      	nop
 8003500:	20000134 	.word	0x20000134

08003504 <printf>:
 8003504:	b40f      	push	{r0, r1, r2, r3}
 8003506:	b580      	push	{r7, lr}
 8003508:	b082      	sub	sp, #8
 800350a:	af00      	add	r7, sp, #0
 800350c:	f107 0314 	add.w	r3, r7, #20
 8003510:	603b      	str	r3, [r7, #0]
 8003512:	6938      	ldr	r0, [r7, #16]
 8003514:	6839      	ldr	r1, [r7, #0]
 8003516:	f7ff ffdf 	bl	80034d8 <vprintf>
 800351a:	6078      	str	r0, [r7, #4]
 800351c:	687b      	ldr	r3, [r7, #4]
 800351e:	4618      	mov	r0, r3
 8003520:	f107 0708 	add.w	r7, r7, #8
 8003524:	46bd      	mov	sp, r7
 8003526:	e8bd 4080 	ldmia.w	sp!, {r7, lr}
 800352a:	b004      	add	sp, #16
 800352c:	4770      	bx	lr
 800352e:	bf00      	nop

08003530 <fputc>:
 8003530:	b580      	push	{r7, lr}
 8003532:	b082      	sub	sp, #8
 8003534:	af00      	add	r7, sp, #0
 8003536:	6078      	str	r0, [r7, #4]
 8003538:	6039      	str	r1, [r7, #0]
 800353a:	4b0d      	ldr	r3, [pc, #52]	; (8003570 <fputc+0x40>)
 800353c:	681b      	ldr	r3, [r3, #0]
 800353e:	689a      	ldr	r2, [r3, #8]
 8003540:	683b      	ldr	r3, [r7, #0]
 8003542:	429a      	cmp	r2, r3
 8003544:	d005      	beq.n	8003552 <fputc+0x22>
 8003546:	4b0a      	ldr	r3, [pc, #40]	; (8003570 <fputc+0x40>)
 8003548:	681b      	ldr	r3, [r3, #0]
 800354a:	68da      	ldr	r2, [r3, #12]
 800354c:	683b      	ldr	r3, [r7, #0]
 800354e:	429a      	cmp	r2, r3
 8003550:	d106      	bne.n	8003560 <fputc+0x30>
 8003552:	687b      	ldr	r3, [r7, #4]
 8003554:	b2db      	uxtb	r3, r3
 8003556:	4618      	mov	r0, r3
 8003558:	f7ff fc50 	bl	8002dfc <PrintChar>
 800355c:	687b      	ldr	r3, [r7, #4]
 800355e:	e001      	b.n	8003564 <fputc+0x34>
 8003560:	f04f 33ff 	mov.w	r3, #4294967295
 8003564:	4618      	mov	r0, r3
 8003566:	f107 0708 	add.w	r7, r7, #8
 800356a:	46bd      	mov	sp, r7
 800356c:	bd80      	pop	{r7, pc}
 800356e:	bf00      	nop
 8003570:	20000134 	.word	0x20000134

08003574 <fputs>:
 8003574:	b580      	push	{r7, lr}
 8003576:	b084      	sub	sp, #16
 8003578:	af00      	add	r7, sp, #0
 800357a:	6078      	str	r0, [r7, #4]
 800357c:	6039      	str	r1, [r7, #0]
 800357e:	f04f 0300 	mov.w	r3, #0
 8003582:	60fb      	str	r3, [r7, #12]
 8003584:	e014      	b.n	80035b0 <fputs+0x3c>
 8003586:	687b      	ldr	r3, [r7, #4]
 8003588:	781b      	ldrb	r3, [r3, #0]
 800358a:	4618      	mov	r0, r3
 800358c:	6839      	ldr	r1, [r7, #0]
 800358e:	f7ff ffcf 	bl	8003530 <fputc>
 8003592:	4603      	mov	r3, r0
 8003594:	f1b3 3fff 	cmp.w	r3, #4294967295
 8003598:	d102      	bne.n	80035a0 <fputs+0x2c>
 800359a:	f04f 33ff 	mov.w	r3, #4294967295
 800359e:	e00c      	b.n	80035ba <fputs+0x46>
 80035a0:	68fb      	ldr	r3, [r7, #12]
 80035a2:	f103 0301 	add.w	r3, r3, #1
 80035a6:	60fb      	str	r3, [r7, #12]
 80035a8:	687b      	ldr	r3, [r7, #4]
 80035aa:	f103 0301 	add.w	r3, r3, #1
 80035ae:	607b      	str	r3, [r7, #4]
 80035b0:	687b      	ldr	r3, [r7, #4]
 80035b2:	781b      	ldrb	r3, [r3, #0]
 80035b4:	2b00      	cmp	r3, #0
 80035b6:	d1e6      	bne.n	8003586 <fputs+0x12>
 80035b8:	68fb      	ldr	r3, [r7, #12]
 80035ba:	4618      	mov	r0, r3
 80035bc:	f107 0710 	add.w	r7, r7, #16
 80035c0:	46bd      	mov	sp, r7
 80035c2:	bd80      	pop	{r7, pc}

080035c4 <RCC_GetClocksFreq>:
 80035c4:	b480      	push	{r7}
 80035c6:	b087      	sub	sp, #28
 80035c8:	af00      	add	r7, sp, #0
 80035ca:	6078      	str	r0, [r7, #4]
 80035cc:	f04f 0300 	mov.w	r3, #0
 80035d0:	617b      	str	r3, [r7, #20]
 80035d2:	f04f 0300 	mov.w	r3, #0
 80035d6:	613b      	str	r3, [r7, #16]
 80035d8:	f04f 0300 	mov.w	r3, #0
 80035dc:	60fb      	str	r3, [r7, #12]
 80035de:	f04f 0300 	mov.w	r3, #0
 80035e2:	60bb      	str	r3, [r7, #8]
 80035e4:	4b51      	ldr	r3, [pc, #324]	; (800372c <RCC_GetClocksFreq+0x168>)
 80035e6:	685b      	ldr	r3, [r3, #4]
 80035e8:	f003 030c 	and.w	r3, r3, #12
 80035ec:	617b      	str	r3, [r7, #20]
 80035ee:	697b      	ldr	r3, [r7, #20]
 80035f0:	2b04      	cmp	r3, #4
 80035f2:	d007      	beq.n	8003604 <RCC_GetClocksFreq+0x40>
 80035f4:	2b08      	cmp	r3, #8
 80035f6:	d009      	beq.n	800360c <RCC_GetClocksFreq+0x48>
 80035f8:	2b00      	cmp	r3, #0
 80035fa:	d135      	bne.n	8003668 <RCC_GetClocksFreq+0xa4>
 80035fc:	687b      	ldr	r3, [r7, #4]
 80035fe:	4a4c      	ldr	r2, [pc, #304]	; (8003730 <RCC_GetClocksFreq+0x16c>)
 8003600:	601a      	str	r2, [r3, #0]
 8003602:	e035      	b.n	8003670 <RCC_GetClocksFreq+0xac>
 8003604:	687b      	ldr	r3, [r7, #4]
 8003606:	4a4a      	ldr	r2, [pc, #296]	; (8003730 <RCC_GetClocksFreq+0x16c>)
 8003608:	601a      	str	r2, [r3, #0]
 800360a:	e031      	b.n	8003670 <RCC_GetClocksFreq+0xac>
 800360c:	4b47      	ldr	r3, [pc, #284]	; (800372c <RCC_GetClocksFreq+0x168>)
 800360e:	685b      	ldr	r3, [r3, #4]
 8003610:	f403 1370 	and.w	r3, r3, #3932160	; 0x3c0000
 8003614:	613b      	str	r3, [r7, #16]
 8003616:	4b45      	ldr	r3, [pc, #276]	; (800372c <RCC_GetClocksFreq+0x168>)
 8003618:	685b      	ldr	r3, [r3, #4]
 800361a:	f403 3380 	and.w	r3, r3, #65536	; 0x10000
 800361e:	60fb      	str	r3, [r7, #12]
 8003620:	693b      	ldr	r3, [r7, #16]
 8003622:	ea4f 4393 	mov.w	r3, r3, lsr #18
 8003626:	f103 0302 	add.w	r3, r3, #2
 800362a:	613b      	str	r3, [r7, #16]
 800362c:	68fb      	ldr	r3, [r7, #12]
 800362e:	2b00      	cmp	r3, #0
 8003630:	d106      	bne.n	8003640 <RCC_GetClocksFreq+0x7c>
 8003632:	693b      	ldr	r3, [r7, #16]
 8003634:	4a3f      	ldr	r2, [pc, #252]	; (8003734 <RCC_GetClocksFreq+0x170>)
 8003636:	fb02 f203 	mul.w	r2, r2, r3
 800363a:	687b      	ldr	r3, [r7, #4]
 800363c:	601a      	str	r2, [r3, #0]
 800363e:	e017      	b.n	8003670 <RCC_GetClocksFreq+0xac>
 8003640:	4b3a      	ldr	r3, [pc, #232]	; (800372c <RCC_GetClocksFreq+0x168>)
 8003642:	685b      	ldr	r3, [r3, #4]
 8003644:	f403 3300 	and.w	r3, r3, #131072	; 0x20000
 8003648:	2b00      	cmp	r3, #0
 800364a:	d006      	beq.n	800365a <RCC_GetClocksFreq+0x96>
 800364c:	693b      	ldr	r3, [r7, #16]
 800364e:	4a39      	ldr	r2, [pc, #228]	; (8003734 <RCC_GetClocksFreq+0x170>)
 8003650:	fb02 f203 	mul.w	r2, r2, r3
 8003654:	687b      	ldr	r3, [r7, #4]
 8003656:	601a      	str	r2, [r3, #0]
 8003658:	e00a      	b.n	8003670 <RCC_GetClocksFreq+0xac>
 800365a:	693b      	ldr	r3, [r7, #16]
 800365c:	4a34      	ldr	r2, [pc, #208]	; (8003730 <RCC_GetClocksFreq+0x16c>)
 800365e:	fb02 f203 	mul.w	r2, r2, r3
 8003662:	687b      	ldr	r3, [r7, #4]
 8003664:	601a      	str	r2, [r3, #0]
 8003666:	e003      	b.n	8003670 <RCC_GetClocksFreq+0xac>
 8003668:	687b      	ldr	r3, [r7, #4]
 800366a:	4a31      	ldr	r2, [pc, #196]	; (8003730 <RCC_GetClocksFreq+0x16c>)
 800366c:	601a      	str	r2, [r3, #0]
 800366e:	bf00      	nop
 8003670:	4b2e      	ldr	r3, [pc, #184]	; (800372c <RCC_GetClocksFreq+0x168>)
 8003672:	685b      	ldr	r3, [r3, #4]
 8003674:	f003 03f0 	and.w	r3, r3, #240	; 0xf0
 8003678:	617b      	str	r3, [r7, #20]
 800367a:	697b      	ldr	r3, [r7, #20]
 800367c:	ea4f 1313 	mov.w	r3, r3, lsr #4
 8003680:	617b      	str	r3, [r7, #20]
 8003682:	4a2d      	ldr	r2, [pc, #180]	; (8003738 <RCC_GetClocksFreq+0x174>)
 8003684:	697b      	ldr	r3, [r7, #20]
 8003686:	18d3      	adds	r3, r2, r3
 8003688:	781b      	ldrb	r3, [r3, #0]
 800368a:	b2db      	uxtb	r3, r3
 800368c:	60bb      	str	r3, [r7, #8]
 800368e:	687b      	ldr	r3, [r7, #4]
 8003690:	681a      	ldr	r2, [r3, #0]
 8003692:	68bb      	ldr	r3, [r7, #8]
 8003694:	fa22 f203 	lsr.w	r2, r2, r3
 8003698:	687b      	ldr	r3, [r7, #4]
 800369a:	605a      	str	r2, [r3, #4]
 800369c:	4b23      	ldr	r3, [pc, #140]	; (800372c <RCC_GetClocksFreq+0x168>)
 800369e:	685b      	ldr	r3, [r3, #4]
 80036a0:	f403 63e0 	and.w	r3, r3, #1792	; 0x700
 80036a4:	617b      	str	r3, [r7, #20]
 80036a6:	697b      	ldr	r3, [r7, #20]
 80036a8:	ea4f 2313 	mov.w	r3, r3, lsr #8
 80036ac:	617b      	str	r3, [r7, #20]
 80036ae:	4a22      	ldr	r2, [pc, #136]	; (8003738 <RCC_GetClocksFreq+0x174>)
 80036b0:	697b      	ldr	r3, [r7, #20]
 80036b2:	18d3      	adds	r3, r2, r3
 80036b4:	781b      	ldrb	r3, [r3, #0]
 80036b6:	b2db      	uxtb	r3, r3
 80036b8:	60bb      	str	r3, [r7, #8]
 80036ba:	687b      	ldr	r3, [r7, #4]
 80036bc:	685a      	ldr	r2, [r3, #4]
 80036be:	68bb      	ldr	r3, [r7, #8]
 80036c0:	fa22 f203 	lsr.w	r2, r2, r3
 80036c4:	687b      	ldr	r3, [r7, #4]
 80036c6:	609a      	str	r2, [r3, #8]
 80036c8:	4b18      	ldr	r3, [pc, #96]	; (800372c <RCC_GetClocksFreq+0x168>)
 80036ca:	685b      	ldr	r3, [r3, #4]
 80036cc:	f403 5360 	and.w	r3, r3, #14336	; 0x3800
 80036d0:	617b      	str	r3, [r7, #20]
 80036d2:	697b      	ldr	r3, [r7, #20]
 80036d4:	ea4f 23d3 	mov.w	r3, r3, lsr #11
 80036d8:	617b      	str	r3, [r7, #20]
 80036da:	4a17      	ldr	r2, [pc, #92]	; (8003738 <RCC_GetClocksFreq+0x174>)
 80036dc:	697b      	ldr	r3, [r7, #20]
 80036de:	18d3      	adds	r3, r2, r3
 80036e0:	781b      	ldrb	r3, [r3, #0]
 80036e2:	b2db      	uxtb	r3, r3
 80036e4:	60bb      	str	r3, [r7, #8]
 80036e6:	687b      	ldr	r3, [r7, #4]
 80036e8:	685a      	ldr	r2, [r3, #4]
 80036ea:	68bb      	ldr	r3, [r7, #8]
 80036ec:	fa22 f203 	lsr.w	r2, r2, r3
 80036f0:	687b      	ldr	r3, [r7, #4]
 80036f2:	60da      	str	r2, [r3, #12]
 80036f4:	4b0d      	ldr	r3, [pc, #52]	; (800372c <RCC_GetClocksFreq+0x168>)
 80036f6:	685b      	ldr	r3, [r3, #4]
 80036f8:	f403 4340 	and.w	r3, r3, #49152	; 0xc000
 80036fc:	617b      	str	r3, [r7, #20]
 80036fe:	697b      	ldr	r3, [r7, #20]
 8003700:	ea4f 3393 	mov.w	r3, r3, lsr #14
 8003704:	617b      	str	r3, [r7, #20]
 8003706:	4a0d      	ldr	r2, [pc, #52]	; (800373c <RCC_GetClocksFreq+0x178>)
 8003708:	697b      	ldr	r3, [r7, #20]
 800370a:	18d3      	adds	r3, r2, r3
 800370c:	781b      	ldrb	r3, [r3, #0]
 800370e:	b2db      	uxtb	r3, r3
 8003710:	60bb      	str	r3, [r7, #8]
 8003712:	687b      	ldr	r3, [r7, #4]
 8003714:	68da      	ldr	r2, [r3, #12]
 8003716:	68bb      	ldr	r3, [r7, #8]
 8003718:	fbb2 f2f3 	udiv	r2, r2, r3
 800371c:	687b      	ldr	r3, [r7, #4]
 800371e:	611a      	str	r2, [r3, #16]
 8003720:	f107 071c 	add.w	r7, r7, #28
 8003724:	46bd      	mov	sp, r7
 8003726:	bc80      	pop	{r7}
 8003728:	4770      	bx	lr
 800372a:	bf00      	nop
 800372c:	40021000 	.word	0x40021000
 8003730:	007a1200 	.word	0x007a1200
 8003734:	003d0900 	.word	0x003d0900
 8003738:	20000138 	.word	0x20000138
 800373c:	20000148 	.word	0x20000148

08003740 <RCC_APB2PeriphClockCmd>:
 8003740:	b480      	push	{r7}
 8003742:	b083      	sub	sp, #12
 8003744:	af00      	add	r7, sp, #0
 8003746:	6078      	str	r0, [r7, #4]
 8003748:	460b      	mov	r3, r1
 800374a:	70fb      	strb	r3, [r7, #3]
 800374c:	78fb      	ldrb	r3, [r7, #3]
 800374e:	2b00      	cmp	r3, #0
 8003750:	d007      	beq.n	8003762 <RCC_APB2PeriphClockCmd+0x22>
 8003752:	4b0b      	ldr	r3, [pc, #44]	; (8003780 <RCC_APB2PeriphClockCmd+0x40>)
 8003754:	4a0a      	ldr	r2, [pc, #40]	; (8003780 <RCC_APB2PeriphClockCmd+0x40>)
 8003756:	6991      	ldr	r1, [r2, #24]
 8003758:	687a      	ldr	r2, [r7, #4]
 800375a:	ea41 0202 	orr.w	r2, r1, r2
 800375e:	619a      	str	r2, [r3, #24]
 8003760:	e008      	b.n	8003774 <RCC_APB2PeriphClockCmd+0x34>
 8003762:	4b07      	ldr	r3, [pc, #28]	; (8003780 <RCC_APB2PeriphClockCmd+0x40>)
 8003764:	4a06      	ldr	r2, [pc, #24]	; (8003780 <RCC_APB2PeriphClockCmd+0x40>)
 8003766:	6991      	ldr	r1, [r2, #24]
 8003768:	687a      	ldr	r2, [r7, #4]
 800376a:	ea6f 0202 	mvn.w	r2, r2
 800376e:	ea01 0202 	and.w	r2, r1, r2
 8003772:	619a      	str	r2, [r3, #24]
 8003774:	f107 070c 	add.w	r7, r7, #12
 8003778:	46bd      	mov	sp, r7
 800377a:	bc80      	pop	{r7}
 800377c:	4770      	bx	lr
 800377e:	bf00      	nop
 8003780:	40021000 	.word	0x40021000

08003784 <RCC_APB1PeriphClockCmd>:
 8003784:	b480      	push	{r7}
 8003786:	b083      	sub	sp, #12
 8003788:	af00      	add	r7, sp, #0
 800378a:	6078      	str	r0, [r7, #4]
 800378c:	460b      	mov	r3, r1
 800378e:	70fb      	strb	r3, [r7, #3]
 8003790:	78fb      	ldrb	r3, [r7, #3]
 8003792:	2b00      	cmp	r3, #0
 8003794:	d007      	beq.n	80037a6 <RCC_APB1PeriphClockCmd+0x22>
 8003796:	4b0b      	ldr	r3, [pc, #44]	; (80037c4 <RCC_APB1PeriphClockCmd+0x40>)
 8003798:	4a0a      	ldr	r2, [pc, #40]	; (80037c4 <RCC_APB1PeriphClockCmd+0x40>)
 800379a:	69d1      	ldr	r1, [r2, #28]
 800379c:	687a      	ldr	r2, [r7, #4]
 800379e:	ea41 0202 	orr.w	r2, r1, r2
 80037a2:	61da      	str	r2, [r3, #28]
 80037a4:	e008      	b.n	80037b8 <RCC_APB1PeriphClockCmd+0x34>
 80037a6:	4b07      	ldr	r3, [pc, #28]	; (80037c4 <RCC_APB1PeriphClockCmd+0x40>)
 80037a8:	4a06      	ldr	r2, [pc, #24]	; (80037c4 <RCC_APB1PeriphClockCmd+0x40>)
 80037aa:	69d1      	ldr	r1, [r2, #28]
 80037ac:	687a      	ldr	r2, [r7, #4]
 80037ae:	ea6f 0202 	mvn.w	r2, r2
 80037b2:	ea01 0202 	and.w	r2, r1, r2
 80037b6:	61da      	str	r2, [r3, #28]
 80037b8:	f107 070c 	add.w	r7, r7, #12
 80037bc:	46bd      	mov	sp, r7
 80037be:	bc80      	pop	{r7}
 80037c0:	4770      	bx	lr
 80037c2:	bf00      	nop
 80037c4:	40021000 	.word	0x40021000

080037c8 <EXTI_Init>:
 80037c8:	b480      	push	{r7}
 80037ca:	b085      	sub	sp, #20
 80037cc:	af00      	add	r7, sp, #0
 80037ce:	6078      	str	r0, [r7, #4]
 80037d0:	f04f 0300 	mov.w	r3, #0
 80037d4:	60fb      	str	r3, [r7, #12]
 80037d6:	4b3a      	ldr	r3, [pc, #232]	; (80038c0 <EXTI_Init+0xf8>)
 80037d8:	60fb      	str	r3, [r7, #12]
 80037da:	687b      	ldr	r3, [r7, #4]
 80037dc:	799b      	ldrb	r3, [r3, #6]
 80037de:	2b00      	cmp	r3, #0
 80037e0:	d059      	beq.n	8003896 <EXTI_Init+0xce>
 80037e2:	4b37      	ldr	r3, [pc, #220]	; (80038c0 <EXTI_Init+0xf8>)
 80037e4:	4a36      	ldr	r2, [pc, #216]	; (80038c0 <EXTI_Init+0xf8>)
 80037e6:	6811      	ldr	r1, [r2, #0]
 80037e8:	687a      	ldr	r2, [r7, #4]
 80037ea:	6812      	ldr	r2, [r2, #0]
 80037ec:	ea6f 0202 	mvn.w	r2, r2
 80037f0:	ea01 0202 	and.w	r2, r1, r2
 80037f4:	601a      	str	r2, [r3, #0]
 80037f6:	4b32      	ldr	r3, [pc, #200]	; (80038c0 <EXTI_Init+0xf8>)
 80037f8:	4a31      	ldr	r2, [pc, #196]	; (80038c0 <EXTI_Init+0xf8>)
 80037fa:	6851      	ldr	r1, [r2, #4]
 80037fc:	687a      	ldr	r2, [r7, #4]
 80037fe:	6812      	ldr	r2, [r2, #0]
 8003800:	ea6f 0202 	mvn.w	r2, r2
 8003804:	ea01 0202 	and.w	r2, r1, r2
 8003808:	605a      	str	r2, [r3, #4]
 800380a:	687b      	ldr	r3, [r7, #4]
 800380c:	791b      	ldrb	r3, [r3, #4]
 800380e:	68fa      	ldr	r2, [r7, #12]
 8003810:	18d3      	adds	r3, r2, r3
 8003812:	60fb      	str	r3, [r7, #12]
 8003814:	68fb      	ldr	r3, [r7, #12]
 8003816:	68fa      	ldr	r2, [r7, #12]
 8003818:	6811      	ldr	r1, [r2, #0]
 800381a:	687a      	ldr	r2, [r7, #4]
 800381c:	6812      	ldr	r2, [r2, #0]
 800381e:	ea41 0202 	orr.w	r2, r1, r2
 8003822:	601a      	str	r2, [r3, #0]
 8003824:	4b26      	ldr	r3, [pc, #152]	; (80038c0 <EXTI_Init+0xf8>)
 8003826:	4a26      	ldr	r2, [pc, #152]	; (80038c0 <EXTI_Init+0xf8>)
 8003828:	6891      	ldr	r1, [r2, #8]
 800382a:	687a      	ldr	r2, [r7, #4]
 800382c:	6812      	ldr	r2, [r2, #0]
 800382e:	ea6f 0202 	mvn.w	r2, r2
 8003832:	ea01 0202 	and.w	r2, r1, r2
 8003836:	609a      	str	r2, [r3, #8]
 8003838:	4b21      	ldr	r3, [pc, #132]	; (80038c0 <EXTI_Init+0xf8>)
 800383a:	4a21      	ldr	r2, [pc, #132]	; (80038c0 <EXTI_Init+0xf8>)
 800383c:	68d1      	ldr	r1, [r2, #12]
 800383e:	687a      	ldr	r2, [r7, #4]
 8003840:	6812      	ldr	r2, [r2, #0]
 8003842:	ea6f 0202 	mvn.w	r2, r2
 8003846:	ea01 0202 	and.w	r2, r1, r2
 800384a:	60da      	str	r2, [r3, #12]
 800384c:	687b      	ldr	r3, [r7, #4]
 800384e:	795b      	ldrb	r3, [r3, #5]
 8003850:	2b10      	cmp	r3, #16
 8003852:	d110      	bne.n	8003876 <EXTI_Init+0xae>
 8003854:	4b1a      	ldr	r3, [pc, #104]	; (80038c0 <EXTI_Init+0xf8>)
 8003856:	4a1a      	ldr	r2, [pc, #104]	; (80038c0 <EXTI_Init+0xf8>)
 8003858:	6891      	ldr	r1, [r2, #8]
 800385a:	687a      	ldr	r2, [r7, #4]
 800385c:	6812      	ldr	r2, [r2, #0]
 800385e:	ea41 0202 	orr.w	r2, r1, r2
 8003862:	609a      	str	r2, [r3, #8]
 8003864:	4b16      	ldr	r3, [pc, #88]	; (80038c0 <EXTI_Init+0xf8>)
 8003866:	4a16      	ldr	r2, [pc, #88]	; (80038c0 <EXTI_Init+0xf8>)
 8003868:	68d1      	ldr	r1, [r2, #12]
 800386a:	687a      	ldr	r2, [r7, #4]
 800386c:	6812      	ldr	r2, [r2, #0]
 800386e:	ea41 0202 	orr.w	r2, r1, r2
 8003872:	60da      	str	r2, [r3, #12]
 8003874:	e01e      	b.n	80038b4 <EXTI_Init+0xec>
 8003876:	4b12      	ldr	r3, [pc, #72]	; (80038c0 <EXTI_Init+0xf8>)
 8003878:	60fb      	str	r3, [r7, #12]
 800387a:	687b      	ldr	r3, [r7, #4]
 800387c:	795b      	ldrb	r3, [r3, #5]
 800387e:	68fa      	ldr	r2, [r7, #12]
 8003880:	18d3      	adds	r3, r2, r3
 8003882:	60fb      	str	r3, [r7, #12]
 8003884:	68fb      	ldr	r3, [r7, #12]
 8003886:	68fa      	ldr	r2, [r7, #12]
 8003888:	6811      	ldr	r1, [r2, #0]
 800388a:	687a      	ldr	r2, [r7, #4]
 800388c:	6812      	ldr	r2, [r2, #0]
 800388e:	ea41 0202 	orr.w	r2, r1, r2
 8003892:	601a      	str	r2, [r3, #0]
 8003894:	e00e      	b.n	80038b4 <EXTI_Init+0xec>
 8003896:	687b      	ldr	r3, [r7, #4]
 8003898:	791b      	ldrb	r3, [r3, #4]
 800389a:	68fa      	ldr	r2, [r7, #12]
 800389c:	18d3      	adds	r3, r2, r3
 800389e:	60fb      	str	r3, [r7, #12]
 80038a0:	68fb      	ldr	r3, [r7, #12]
 80038a2:	68fa      	ldr	r2, [r7, #12]
 80038a4:	6811      	ldr	r1, [r2, #0]
 80038a6:	687a      	ldr	r2, [r7, #4]
 80038a8:	6812      	ldr	r2, [r2, #0]
 80038aa:	ea6f 0202 	mvn.w	r2, r2
 80038ae:	ea01 0202 	and.w	r2, r1, r2
 80038b2:	601a      	str	r2, [r3, #0]
 80038b4:	f107 0714 	add.w	r7, r7, #20
 80038b8:	46bd      	mov	sp, r7
 80038ba:	bc80      	pop	{r7}
 80038bc:	4770      	bx	lr
 80038be:	bf00      	nop
 80038c0:	40010400 	.word	0x40010400

080038c4 <EXTI_ClearFlag>:
 80038c4:	b480      	push	{r7}
 80038c6:	b083      	sub	sp, #12
 80038c8:	af00      	add	r7, sp, #0
 80038ca:	6078      	str	r0, [r7, #4]
 80038cc:	4b03      	ldr	r3, [pc, #12]	; (80038dc <EXTI_ClearFlag+0x18>)
 80038ce:	687a      	ldr	r2, [r7, #4]
 80038d0:	615a      	str	r2, [r3, #20]
 80038d2:	f107 070c 	add.w	r7, r7, #12
 80038d6:	46bd      	mov	sp, r7
 80038d8:	bc80      	pop	{r7}
 80038da:	4770      	bx	lr
 80038dc:	40010400 	.word	0x40010400

080038e0 <EXTI_ClearITPendingBit>:
 80038e0:	b480      	push	{r7}
 80038e2:	b083      	sub	sp, #12
 80038e4:	af00      	add	r7, sp, #0
 80038e6:	6078      	str	r0, [r7, #4]
 80038e8:	4b03      	ldr	r3, [pc, #12]	; (80038f8 <EXTI_ClearITPendingBit+0x18>)
 80038ea:	687a      	ldr	r2, [r7, #4]
 80038ec:	615a      	str	r2, [r3, #20]
 80038ee:	f107 070c 	add.w	r7, r7, #12
 80038f2:	46bd      	mov	sp, r7
 80038f4:	bc80      	pop	{r7}
 80038f6:	4770      	bx	lr
 80038f8:	40010400 	.word	0x40010400

080038fc <USART_Init>:
 80038fc:	b580      	push	{r7, lr}
 80038fe:	b08c      	sub	sp, #48	; 0x30
 8003900:	af00      	add	r7, sp, #0
 8003902:	6078      	str	r0, [r7, #4]
 8003904:	6039      	str	r1, [r7, #0]
 8003906:	f04f 0300 	mov.w	r3, #0
 800390a:	62fb      	str	r3, [r7, #44]	; 0x2c
 800390c:	f04f 0300 	mov.w	r3, #0
 8003910:	62bb      	str	r3, [r7, #40]	; 0x28
 8003912:	f04f 0300 	mov.w	r3, #0
 8003916:	627b      	str	r3, [r7, #36]	; 0x24
 8003918:	f04f 0300 	mov.w	r3, #0
 800391c:	623b      	str	r3, [r7, #32]
 800391e:	f04f 0300 	mov.w	r3, #0
 8003922:	61fb      	str	r3, [r7, #28]
 8003924:	687b      	ldr	r3, [r7, #4]
 8003926:	61fb      	str	r3, [r7, #28]
 8003928:	687b      	ldr	r3, [r7, #4]
 800392a:	8a1b      	ldrh	r3, [r3, #16]
 800392c:	b29b      	uxth	r3, r3
 800392e:	62fb      	str	r3, [r7, #44]	; 0x2c
 8003930:	6afa      	ldr	r2, [r7, #44]	; 0x2c
 8003932:	f64c 73ff 	movw	r3, #53247	; 0xcfff
 8003936:	ea02 0303 	and.w	r3, r2, r3
 800393a:	62fb      	str	r3, [r7, #44]	; 0x2c
 800393c:	683b      	ldr	r3, [r7, #0]
 800393e:	88db      	ldrh	r3, [r3, #6]
 8003940:	6afa      	ldr	r2, [r7, #44]	; 0x2c
 8003942:	ea42 0303 	orr.w	r3, r2, r3
 8003946:	62fb      	str	r3, [r7, #44]	; 0x2c
 8003948:	6afb      	ldr	r3, [r7, #44]	; 0x2c
 800394a:	b29a      	uxth	r2, r3
 800394c:	687b      	ldr	r3, [r7, #4]
 800394e:	821a      	strh	r2, [r3, #16]
 8003950:	687b      	ldr	r3, [r7, #4]
 8003952:	899b      	ldrh	r3, [r3, #12]
 8003954:	b29b      	uxth	r3, r3
 8003956:	62fb      	str	r3, [r7, #44]	; 0x2c
 8003958:	6afa      	ldr	r2, [r7, #44]	; 0x2c
 800395a:	f64e 13f3 	movw	r3, #59891	; 0xe9f3
 800395e:	ea02 0303 	and.w	r3, r2, r3
 8003962:	62fb      	str	r3, [r7, #44]	; 0x2c
 8003964:	683b      	ldr	r3, [r7, #0]
 8003966:	889a      	ldrh	r2, [r3, #4]
 8003968:	683b      	ldr	r3, [r7, #0]
 800396a:	891b      	ldrh	r3, [r3, #8]
 800396c:	ea42 0303 	orr.w	r3, r2, r3
 8003970:	b29a      	uxth	r2, r3
 8003972:	683b      	ldr	r3, [r7, #0]
 8003974:	895b      	ldrh	r3, [r3, #10]
 8003976:	ea42 0303 	orr.w	r3, r2, r3
 800397a:	b29b      	uxth	r3, r3
 800397c:	6afa      	ldr	r2, [r7, #44]	; 0x2c
 800397e:	ea42 0303 	orr.w	r3, r2, r3
 8003982:	62fb      	str	r3, [r7, #44]	; 0x2c
 8003984:	6afb      	ldr	r3, [r7, #44]	; 0x2c
 8003986:	b29a      	uxth	r2, r3
 8003988:	687b      	ldr	r3, [r7, #4]
 800398a:	819a      	strh	r2, [r3, #12]
 800398c:	687b      	ldr	r3, [r7, #4]
 800398e:	8a9b      	ldrh	r3, [r3, #20]
 8003990:	b29b      	uxth	r3, r3
 8003992:	62fb      	str	r3, [r7, #44]	; 0x2c
 8003994:	6afa      	ldr	r2, [r7, #44]	; 0x2c
 8003996:	f64f 43ff 	movw	r3, #64767	; 0xfcff
 800399a:	ea02 0303 	and.w	r3, r2, r3
 800399e:	62fb      	str	r3, [r7, #44]	; 0x2c
 80039a0:	683b      	ldr	r3, [r7, #0]
 80039a2:	899b      	ldrh	r3, [r3, #12]
 80039a4:	6afa      	ldr	r2, [r7, #44]	; 0x2c
 80039a6:	ea42 0303 	orr.w	r3, r2, r3
 80039aa:	62fb      	str	r3, [r7, #44]	; 0x2c
 80039ac:	6afb      	ldr	r3, [r7, #44]	; 0x2c
 80039ae:	b29a      	uxth	r2, r3
 80039b0:	687b      	ldr	r3, [r7, #4]
 80039b2:	829a      	strh	r2, [r3, #20]
 80039b4:	f107 0308 	add.w	r3, r7, #8
 80039b8:	4618      	mov	r0, r3
 80039ba:	f7ff fe03 	bl	80035c4 <RCC_GetClocksFreq>
 80039be:	69fa      	ldr	r2, [r7, #28]
 80039c0:	4b38      	ldr	r3, [pc, #224]	; (8003aa4 <USART_Init+0x1a8>)
 80039c2:	429a      	cmp	r2, r3
 80039c4:	d102      	bne.n	80039cc <USART_Init+0xd0>
 80039c6:	697b      	ldr	r3, [r7, #20]
 80039c8:	62bb      	str	r3, [r7, #40]	; 0x28
 80039ca:	e001      	b.n	80039d0 <USART_Init+0xd4>
 80039cc:	693b      	ldr	r3, [r7, #16]
 80039ce:	62bb      	str	r3, [r7, #40]	; 0x28
 80039d0:	687b      	ldr	r3, [r7, #4]
 80039d2:	899b      	ldrh	r3, [r3, #12]
 80039d4:	b29b      	uxth	r3, r3
 80039d6:	b29b      	uxth	r3, r3
 80039d8:	b21b      	sxth	r3, r3
 80039da:	2b00      	cmp	r3, #0
 80039dc:	da0f      	bge.n	80039fe <USART_Init+0x102>
 80039de:	6aba      	ldr	r2, [r7, #40]	; 0x28
 80039e0:	4613      	mov	r3, r2
 80039e2:	ea4f 0383 	mov.w	r3, r3, lsl #2
 80039e6:	189b      	adds	r3, r3, r2
 80039e8:	ea4f 0283 	mov.w	r2, r3, lsl #2
 80039ec:	189a      	adds	r2, r3, r2
 80039ee:	683b      	ldr	r3, [r7, #0]
 80039f0:	681b      	ldr	r3, [r3, #0]
 80039f2:	ea4f 0343 	mov.w	r3, r3, lsl #1
 80039f6:	fbb2 f3f3 	udiv	r3, r2, r3
 80039fa:	627b      	str	r3, [r7, #36]	; 0x24
 80039fc:	e00e      	b.n	8003a1c <USART_Init+0x120>
 80039fe:	6aba      	ldr	r2, [r7, #40]	; 0x28
 8003a00:	4613      	mov	r3, r2
 8003a02:	ea4f 0383 	mov.w	r3, r3, lsl #2
 8003a06:	189b      	adds	r3, r3, r2
 8003a08:	ea4f 0283 	mov.w	r2, r3, lsl #2
 8003a0c:	189a      	adds	r2, r3, r2
 8003a0e:	683b      	ldr	r3, [r7, #0]
 8003a10:	681b      	ldr	r3, [r3, #0]
 8003a12:	ea4f 0383 	mov.w	r3, r3, lsl #2
 8003a16:	fbb2 f3f3 	udiv	r3, r2, r3
 8003a1a:	627b      	str	r3, [r7, #36]	; 0x24
 8003a1c:	6a7a      	ldr	r2, [r7, #36]	; 0x24
 8003a1e:	4b22      	ldr	r3, [pc, #136]	; (8003aa8 <USART_Init+0x1ac>)
 8003a20:	fba3 1302 	umull	r1, r3, r3, r2
 8003a24:	ea4f 1353 	mov.w	r3, r3, lsr #5
 8003a28:	ea4f 1303 	mov.w	r3, r3, lsl #4
 8003a2c:	62fb      	str	r3, [r7, #44]	; 0x2c
 8003a2e:	6afb      	ldr	r3, [r7, #44]	; 0x2c
 8003a30:	ea4f 1313 	mov.w	r3, r3, lsr #4
 8003a34:	f04f 0264 	mov.w	r2, #100	; 0x64
 8003a38:	fb02 f303 	mul.w	r3, r2, r3
 8003a3c:	6a7a      	ldr	r2, [r7, #36]	; 0x24
 8003a3e:	1ad3      	subs	r3, r2, r3
 8003a40:	623b      	str	r3, [r7, #32]
 8003a42:	687b      	ldr	r3, [r7, #4]
 8003a44:	899b      	ldrh	r3, [r3, #12]
 8003a46:	b29b      	uxth	r3, r3
 8003a48:	b29b      	uxth	r3, r3
 8003a4a:	b21b      	sxth	r3, r3
 8003a4c:	2b00      	cmp	r3, #0
 8003a4e:	da10      	bge.n	8003a72 <USART_Init+0x176>
 8003a50:	6a3b      	ldr	r3, [r7, #32]
 8003a52:	ea4f 03c3 	mov.w	r3, r3, lsl #3
 8003a56:	f103 0232 	add.w	r2, r3, #50	; 0x32
 8003a5a:	4b13      	ldr	r3, [pc, #76]	; (8003aa8 <USART_Init+0x1ac>)
 8003a5c:	fba3 1302 	umull	r1, r3, r3, r2
 8003a60:	ea4f 1353 	mov.w	r3, r3, lsr #5
 8003a64:	f003 0307 	and.w	r3, r3, #7
 8003a68:	6afa      	ldr	r2, [r7, #44]	; 0x2c
 8003a6a:	ea42 0303 	orr.w	r3, r2, r3
 8003a6e:	62fb      	str	r3, [r7, #44]	; 0x2c
 8003a70:	e00f      	b.n	8003a92 <USART_Init+0x196>
 8003a72:	6a3b      	ldr	r3, [r7, #32]
 8003a74:	ea4f 1303 	mov.w	r3, r3, lsl #4
 8003a78:	f103 0232 	add.w	r2, r3, #50	; 0x32
 8003a7c:	4b0a      	ldr	r3, [pc, #40]	; (8003aa8 <USART_Init+0x1ac>)
 8003a7e:	fba3 1302 	umull	r1, r3, r3, r2
 8003a82:	ea4f 1353 	mov.w	r3, r3, lsr #5
 8003a86:	f003 030f 	and.w	r3, r3, #15
 8003a8a:	6afa      	ldr	r2, [r7, #44]	; 0x2c
 8003a8c:	ea42 0303 	orr.w	r3, r2, r3
 8003a90:	62fb      	str	r3, [r7, #44]	; 0x2c
 8003a92:	6afb      	ldr	r3, [r7, #44]	; 0x2c
 8003a94:	b29a      	uxth	r2, r3
 8003a96:	687b      	ldr	r3, [r7, #4]
 8003a98:	811a      	strh	r2, [r3, #8]
 8003a9a:	f107 0730 	add.w	r7, r7, #48	; 0x30
 8003a9e:	46bd      	mov	sp, r7
 8003aa0:	bd80      	pop	{r7, pc}
 8003aa2:	bf00      	nop
 8003aa4:	40013800 	.word	0x40013800
 8003aa8:	51eb851f 	.word	0x51eb851f

08003aac <USART_Cmd>:
 8003aac:	b480      	push	{r7}
 8003aae:	b083      	sub	sp, #12
 8003ab0:	af00      	add	r7, sp, #0
 8003ab2:	6078      	str	r0, [r7, #4]
 8003ab4:	460b      	mov	r3, r1
 8003ab6:	70fb      	strb	r3, [r7, #3]
 8003ab8:	78fb      	ldrb	r3, [r7, #3]
 8003aba:	2b00      	cmp	r3, #0
 8003abc:	d008      	beq.n	8003ad0 <USART_Cmd+0x24>
 8003abe:	687b      	ldr	r3, [r7, #4]
 8003ac0:	899b      	ldrh	r3, [r3, #12]
 8003ac2:	b29b      	uxth	r3, r3
 8003ac4:	f443 5300 	orr.w	r3, r3, #8192	; 0x2000
 8003ac8:	b29a      	uxth	r2, r3
 8003aca:	687b      	ldr	r3, [r7, #4]
 8003acc:	819a      	strh	r2, [r3, #12]
 8003ace:	e007      	b.n	8003ae0 <USART_Cmd+0x34>
 8003ad0:	687b      	ldr	r3, [r7, #4]
 8003ad2:	899b      	ldrh	r3, [r3, #12]
 8003ad4:	b29b      	uxth	r3, r3
 8003ad6:	f423 5300 	bic.w	r3, r3, #8192	; 0x2000
 8003ada:	b29a      	uxth	r2, r3
 8003adc:	687b      	ldr	r3, [r7, #4]
 8003ade:	819a      	strh	r2, [r3, #12]
 8003ae0:	f107 070c 	add.w	r7, r7, #12
 8003ae4:	46bd      	mov	sp, r7
 8003ae6:	bc80      	pop	{r7}
 8003ae8:	4770      	bx	lr
 8003aea:	bf00      	nop

08003aec <USART_ITConfig>:
 8003aec:	b480      	push	{r7}
 8003aee:	b087      	sub	sp, #28
 8003af0:	af00      	add	r7, sp, #0
 8003af2:	6078      	str	r0, [r7, #4]
 8003af4:	4613      	mov	r3, r2
 8003af6:	460a      	mov	r2, r1
 8003af8:	807a      	strh	r2, [r7, #2]
 8003afa:	707b      	strb	r3, [r7, #1]
 8003afc:	f04f 0300 	mov.w	r3, #0
 8003b00:	613b      	str	r3, [r7, #16]
 8003b02:	f04f 0300 	mov.w	r3, #0
 8003b06:	60fb      	str	r3, [r7, #12]
 8003b08:	f04f 0300 	mov.w	r3, #0
 8003b0c:	60bb      	str	r3, [r7, #8]
 8003b0e:	f04f 0300 	mov.w	r3, #0
 8003b12:	617b      	str	r3, [r7, #20]
 8003b14:	687b      	ldr	r3, [r7, #4]
 8003b16:	617b      	str	r3, [r7, #20]
 8003b18:	887b      	ldrh	r3, [r7, #2]
 8003b1a:	b2db      	uxtb	r3, r3
 8003b1c:	ea4f 1353 	mov.w	r3, r3, lsr #5
 8003b20:	b2db      	uxtb	r3, r3
 8003b22:	613b      	str	r3, [r7, #16]
 8003b24:	887b      	ldrh	r3, [r7, #2]
 8003b26:	f003 031f 	and.w	r3, r3, #31
 8003b2a:	60fb      	str	r3, [r7, #12]
 8003b2c:	68fb      	ldr	r3, [r7, #12]
 8003b2e:	f04f 0201 	mov.w	r2, #1
 8003b32:	fa02 f303 	lsl.w	r3, r2, r3
 8003b36:	60bb      	str	r3, [r7, #8]
 8003b38:	693b      	ldr	r3, [r7, #16]
 8003b3a:	2b01      	cmp	r3, #1
 8003b3c:	d104      	bne.n	8003b48 <USART_ITConfig+0x5c>
 8003b3e:	697b      	ldr	r3, [r7, #20]
 8003b40:	f103 030c 	add.w	r3, r3, #12
 8003b44:	617b      	str	r3, [r7, #20]
 8003b46:	e00b      	b.n	8003b60 <USART_ITConfig+0x74>
 8003b48:	693b      	ldr	r3, [r7, #16]
 8003b4a:	2b02      	cmp	r3, #2
 8003b4c:	d104      	bne.n	8003b58 <USART_ITConfig+0x6c>
 8003b4e:	697b      	ldr	r3, [r7, #20]
 8003b50:	f103 0310 	add.w	r3, r3, #16
 8003b54:	617b      	str	r3, [r7, #20]
 8003b56:	e003      	b.n	8003b60 <USART_ITConfig+0x74>
 8003b58:	697b      	ldr	r3, [r7, #20]
 8003b5a:	f103 0314 	add.w	r3, r3, #20
 8003b5e:	617b      	str	r3, [r7, #20]
 8003b60:	787b      	ldrb	r3, [r7, #1]
 8003b62:	2b00      	cmp	r3, #0
 8003b64:	d007      	beq.n	8003b76 <USART_ITConfig+0x8a>
 8003b66:	697b      	ldr	r3, [r7, #20]
 8003b68:	697a      	ldr	r2, [r7, #20]
 8003b6a:	6811      	ldr	r1, [r2, #0]
 8003b6c:	68ba      	ldr	r2, [r7, #8]
 8003b6e:	ea41 0202 	orr.w	r2, r1, r2
 8003b72:	601a      	str	r2, [r3, #0]
 8003b74:	e008      	b.n	8003b88 <USART_ITConfig+0x9c>
 8003b76:	697b      	ldr	r3, [r7, #20]
 8003b78:	697a      	ldr	r2, [r7, #20]
 8003b7a:	6811      	ldr	r1, [r2, #0]
 8003b7c:	68ba      	ldr	r2, [r7, #8]
 8003b7e:	ea6f 0202 	mvn.w	r2, r2
 8003b82:	ea01 0202 	and.w	r2, r1, r2
 8003b86:	601a      	str	r2, [r3, #0]
 8003b88:	f107 071c 	add.w	r7, r7, #28
 8003b8c:	46bd      	mov	sp, r7
 8003b8e:	bc80      	pop	{r7}
 8003b90:	4770      	bx	lr
 8003b92:	bf00      	nop

08003b94 <USART_SendData>:
 8003b94:	b480      	push	{r7}
 8003b96:	b083      	sub	sp, #12
 8003b98:	af00      	add	r7, sp, #0
 8003b9a:	6078      	str	r0, [r7, #4]
 8003b9c:	460b      	mov	r3, r1
 8003b9e:	807b      	strh	r3, [r7, #2]
 8003ba0:	887b      	ldrh	r3, [r7, #2]
 8003ba2:	ea4f 53c3 	mov.w	r3, r3, lsl #23
 8003ba6:	ea4f 53d3 	mov.w	r3, r3, lsr #23
 8003baa:	b29a      	uxth	r2, r3
 8003bac:	687b      	ldr	r3, [r7, #4]
 8003bae:	809a      	strh	r2, [r3, #4]
 8003bb0:	f107 070c 	add.w	r7, r7, #12
 8003bb4:	46bd      	mov	sp, r7
 8003bb6:	bc80      	pop	{r7}
 8003bb8:	4770      	bx	lr
 8003bba:	bf00      	nop

08003bbc <USART_ReceiveData>:
 8003bbc:	b480      	push	{r7}
 8003bbe:	b083      	sub	sp, #12
 8003bc0:	af00      	add	r7, sp, #0
 8003bc2:	6078      	str	r0, [r7, #4]
 8003bc4:	687b      	ldr	r3, [r7, #4]
 8003bc6:	889b      	ldrh	r3, [r3, #4]
 8003bc8:	b29b      	uxth	r3, r3
 8003bca:	ea4f 53c3 	mov.w	r3, r3, lsl #23
 8003bce:	ea4f 53d3 	mov.w	r3, r3, lsr #23
 8003bd2:	b29b      	uxth	r3, r3
 8003bd4:	4618      	mov	r0, r3
 8003bd6:	f107 070c 	add.w	r7, r7, #12
 8003bda:	46bd      	mov	sp, r7
 8003bdc:	bc80      	pop	{r7}
 8003bde:	4770      	bx	lr

08003be0 <USART_GetFlagStatus>:
 8003be0:	b480      	push	{r7}
 8003be2:	b085      	sub	sp, #20
 8003be4:	af00      	add	r7, sp, #0
 8003be6:	6078      	str	r0, [r7, #4]
 8003be8:	460b      	mov	r3, r1
 8003bea:	807b      	strh	r3, [r7, #2]
 8003bec:	f04f 0300 	mov.w	r3, #0
 8003bf0:	73fb      	strb	r3, [r7, #15]
 8003bf2:	687b      	ldr	r3, [r7, #4]
 8003bf4:	881b      	ldrh	r3, [r3, #0]
 8003bf6:	b29a      	uxth	r2, r3
 8003bf8:	887b      	ldrh	r3, [r7, #2]
 8003bfa:	ea02 0303 	and.w	r3, r2, r3
 8003bfe:	b29b      	uxth	r3, r3
 8003c00:	2b00      	cmp	r3, #0
 8003c02:	d003      	beq.n	8003c0c <USART_GetFlagStatus+0x2c>
 8003c04:	f04f 0301 	mov.w	r3, #1
 8003c08:	73fb      	strb	r3, [r7, #15]
 8003c0a:	e002      	b.n	8003c12 <USART_GetFlagStatus+0x32>
 8003c0c:	f04f 0300 	mov.w	r3, #0
 8003c10:	73fb      	strb	r3, [r7, #15]
 8003c12:	7bfb      	ldrb	r3, [r7, #15]
 8003c14:	4618      	mov	r0, r3
 8003c16:	f107 0714 	add.w	r7, r7, #20
 8003c1a:	46bd      	mov	sp, r7
 8003c1c:	bc80      	pop	{r7}
 8003c1e:	4770      	bx	lr

08003c20 <USART_GetITStatus>:
 8003c20:	b480      	push	{r7}
 8003c22:	b087      	sub	sp, #28
 8003c24:	af00      	add	r7, sp, #0
 8003c26:	6078      	str	r0, [r7, #4]
 8003c28:	460b      	mov	r3, r1
 8003c2a:	807b      	strh	r3, [r7, #2]
 8003c2c:	f04f 0300 	mov.w	r3, #0
 8003c30:	60fb      	str	r3, [r7, #12]
 8003c32:	f04f 0300 	mov.w	r3, #0
 8003c36:	617b      	str	r3, [r7, #20]
 8003c38:	f04f 0300 	mov.w	r3, #0
 8003c3c:	60bb      	str	r3, [r7, #8]
 8003c3e:	f04f 0300 	mov.w	r3, #0
 8003c42:	74fb      	strb	r3, [r7, #19]
 8003c44:	887b      	ldrh	r3, [r7, #2]
 8003c46:	b2db      	uxtb	r3, r3
 8003c48:	ea4f 1353 	mov.w	r3, r3, lsr #5
 8003c4c:	b2db      	uxtb	r3, r3
 8003c4e:	60bb      	str	r3, [r7, #8]
 8003c50:	887b      	ldrh	r3, [r7, #2]
 8003c52:	f003 031f 	and.w	r3, r3, #31
 8003c56:	617b      	str	r3, [r7, #20]
 8003c58:	697b      	ldr	r3, [r7, #20]
 8003c5a:	f04f 0201 	mov.w	r2, #1
 8003c5e:	fa02 f303 	lsl.w	r3, r2, r3
 8003c62:	617b      	str	r3, [r7, #20]
 8003c64:	68bb      	ldr	r3, [r7, #8]
 8003c66:	2b01      	cmp	r3, #1
 8003c68:	d107      	bne.n	8003c7a <USART_GetITStatus+0x5a>
 8003c6a:	687b      	ldr	r3, [r7, #4]
 8003c6c:	899b      	ldrh	r3, [r3, #12]
 8003c6e:	b29b      	uxth	r3, r3
 8003c70:	697a      	ldr	r2, [r7, #20]
 8003c72:	ea02 0303 	and.w	r3, r2, r3
 8003c76:	617b      	str	r3, [r7, #20]
 8003c78:	e011      	b.n	8003c9e <USART_GetITStatus+0x7e>
 8003c7a:	68bb      	ldr	r3, [r7, #8]
 8003c7c:	2b02      	cmp	r3, #2
 8003c7e:	d107      	bne.n	8003c90 <USART_GetITStatus+0x70>
 8003c80:	687b      	ldr	r3, [r7, #4]
 8003c82:	8a1b      	ldrh	r3, [r3, #16]
 8003c84:	b29b      	uxth	r3, r3
 8003c86:	697a      	ldr	r2, [r7, #20]
 8003c88:	ea02 0303 	and.w	r3, r2, r3
 8003c8c:	617b      	str	r3, [r7, #20]
 8003c8e:	e006      	b.n	8003c9e <USART_GetITStatus+0x7e>
 8003c90:	687b      	ldr	r3, [r7, #4]
 8003c92:	8a9b      	ldrh	r3, [r3, #20]
 8003c94:	b29b      	uxth	r3, r3
 8003c96:	697a      	ldr	r2, [r7, #20]
 8003c98:	ea02 0303 	and.w	r3, r2, r3
 8003c9c:	617b      	str	r3, [r7, #20]
 8003c9e:	887b      	ldrh	r3, [r7, #2]
 8003ca0:	ea4f 2313 	mov.w	r3, r3, lsr #8
 8003ca4:	b29b      	uxth	r3, r3
 8003ca6:	60fb      	str	r3, [r7, #12]
 8003ca8:	68fb      	ldr	r3, [r7, #12]
 8003caa:	f04f 0201 	mov.w	r2, #1
 8003cae:	fa02 f303 	lsl.w	r3, r2, r3
 8003cb2:	60fb      	str	r3, [r7, #12]
 8003cb4:	687b      	ldr	r3, [r7, #4]
 8003cb6:	881b      	ldrh	r3, [r3, #0]
 8003cb8:	b29b      	uxth	r3, r3
 8003cba:	68fa      	ldr	r2, [r7, #12]
 8003cbc:	ea02 0303 	and.w	r3, r2, r3
 8003cc0:	60fb      	str	r3, [r7, #12]
 8003cc2:	697b      	ldr	r3, [r7, #20]
 8003cc4:	2b00      	cmp	r3, #0
 8003cc6:	d006      	beq.n	8003cd6 <USART_GetITStatus+0xb6>
 8003cc8:	68fb      	ldr	r3, [r7, #12]
 8003cca:	2b00      	cmp	r3, #0
 8003ccc:	d003      	beq.n	8003cd6 <USART_GetITStatus+0xb6>
 8003cce:	f04f 0301 	mov.w	r3, #1
 8003cd2:	74fb      	strb	r3, [r7, #19]
 8003cd4:	e002      	b.n	8003cdc <USART_GetITStatus+0xbc>
 8003cd6:	f04f 0300 	mov.w	r3, #0
 8003cda:	74fb      	strb	r3, [r7, #19]
 8003cdc:	7cfb      	ldrb	r3, [r7, #19]
 8003cde:	4618      	mov	r0, r3
 8003ce0:	f107 071c 	add.w	r7, r7, #28
 8003ce4:	46bd      	mov	sp, r7
 8003ce6:	bc80      	pop	{r7}
 8003ce8:	4770      	bx	lr
 8003cea:	bf00      	nop

08003cec <USART_ClearITPendingBit>:
 8003cec:	b480      	push	{r7}
 8003cee:	b085      	sub	sp, #20
 8003cf0:	af00      	add	r7, sp, #0
 8003cf2:	6078      	str	r0, [r7, #4]
 8003cf4:	460b      	mov	r3, r1
 8003cf6:	807b      	strh	r3, [r7, #2]
 8003cf8:	f04f 0300 	mov.w	r3, #0
 8003cfc:	81fb      	strh	r3, [r7, #14]
 8003cfe:	f04f 0300 	mov.w	r3, #0
 8003d02:	81bb      	strh	r3, [r7, #12]
 8003d04:	887b      	ldrh	r3, [r7, #2]
 8003d06:	ea4f 2313 	mov.w	r3, r3, lsr #8
 8003d0a:	81fb      	strh	r3, [r7, #14]
 8003d0c:	89fb      	ldrh	r3, [r7, #14]
 8003d0e:	f04f 0201 	mov.w	r2, #1
 8003d12:	fa02 f303 	lsl.w	r3, r2, r3
 8003d16:	81bb      	strh	r3, [r7, #12]
 8003d18:	89bb      	ldrh	r3, [r7, #12]
 8003d1a:	ea6f 0303 	mvn.w	r3, r3
 8003d1e:	b29a      	uxth	r2, r3
 8003d20:	687b      	ldr	r3, [r7, #4]
 8003d22:	801a      	strh	r2, [r3, #0]
 8003d24:	f107 0714 	add.w	r7, r7, #20
 8003d28:	46bd      	mov	sp, r7
 8003d2a:	bc80      	pop	{r7}
 8003d2c:	4770      	bx	lr
 8003d2e:	bf00      	nop

08003d30 <_sbrk>:
 8003d30:	b480      	push	{r7}
 8003d32:	b085      	sub	sp, #20
 8003d34:	af00      	add	r7, sp, #0
 8003d36:	6078      	str	r0, [r7, #4]
 8003d38:	4b0b      	ldr	r3, [pc, #44]	; (8003d68 <_sbrk+0x38>)
 8003d3a:	681b      	ldr	r3, [r3, #0]
 8003d3c:	2b00      	cmp	r3, #0
 8003d3e:	d102      	bne.n	8003d46 <_sbrk+0x16>
 8003d40:	4a0a      	ldr	r2, [pc, #40]	; (8003d6c <_sbrk+0x3c>)
 8003d42:	4b09      	ldr	r3, [pc, #36]	; (8003d68 <_sbrk+0x38>)
 8003d44:	601a      	str	r2, [r3, #0]
 8003d46:	4b08      	ldr	r3, [pc, #32]	; (8003d68 <_sbrk+0x38>)
 8003d48:	681b      	ldr	r3, [r3, #0]
 8003d4a:	60fb      	str	r3, [r7, #12]
 8003d4c:	4b06      	ldr	r3, [pc, #24]	; (8003d68 <_sbrk+0x38>)
 8003d4e:	681a      	ldr	r2, [r3, #0]
 8003d50:	687b      	ldr	r3, [r7, #4]
 8003d52:	18d2      	adds	r2, r2, r3
 8003d54:	4b04      	ldr	r3, [pc, #16]	; (8003d68 <_sbrk+0x38>)
 8003d56:	601a      	str	r2, [r3, #0]
 8003d58:	68fb      	ldr	r3, [r7, #12]
 8003d5a:	4618      	mov	r0, r3
 8003d5c:	f107 0714 	add.w	r7, r7, #20
 8003d60:	46bd      	mov	sp, r7
 8003d62:	bc80      	pop	{r7}
 8003d64:	4770      	bx	lr
 8003d66:	bf00      	nop
 8003d68:	2000066c 	.word	0x2000066c
 8003d6c:	20002548 	.word	0x20002548

08003d70 <cbInit>:
 8003d70:	b580      	push	{r7, lr}
 8003d72:	b082      	sub	sp, #8
 8003d74:	af00      	add	r7, sp, #0
 8003d76:	6078      	str	r0, [r7, #4]
 8003d78:	6039      	str	r1, [r7, #0]
 8003d7a:	683b      	ldr	r3, [r7, #0]
 8003d7c:	f103 0201 	add.w	r2, r3, #1
 8003d80:	687b      	ldr	r3, [r7, #4]
 8003d82:	601a      	str	r2, [r3, #0]
 8003d84:	687b      	ldr	r3, [r7, #4]
 8003d86:	f04f 0200 	mov.w	r2, #0
 8003d8a:	605a      	str	r2, [r3, #4]
 8003d8c:	687b      	ldr	r3, [r7, #4]
 8003d8e:	f04f 0200 	mov.w	r2, #0
 8003d92:	609a      	str	r2, [r3, #8]
 8003d94:	687b      	ldr	r3, [r7, #4]
 8003d96:	681b      	ldr	r3, [r3, #0]
 8003d98:	4618      	mov	r0, r3
 8003d9a:	f04f 0101 	mov.w	r1, #1
 8003d9e:	f001 fa5f 	bl	8005260 <calloc>
 8003da2:	4603      	mov	r3, r0
 8003da4:	461a      	mov	r2, r3
 8003da6:	687b      	ldr	r3, [r7, #4]
 8003da8:	60da      	str	r2, [r3, #12]
 8003daa:	f107 0708 	add.w	r7, r7, #8
 8003dae:	46bd      	mov	sp, r7
 8003db0:	bd80      	pop	{r7, pc}
 8003db2:	bf00      	nop

08003db4 <cbClear>:
 8003db4:	b480      	push	{r7}
 8003db6:	b083      	sub	sp, #12
 8003db8:	af00      	add	r7, sp, #0
 8003dba:	6078      	str	r0, [r7, #4]
 8003dbc:	687b      	ldr	r3, [r7, #4]
 8003dbe:	f04f 0200 	mov.w	r2, #0
 8003dc2:	609a      	str	r2, [r3, #8]
 8003dc4:	687b      	ldr	r3, [r7, #4]
 8003dc6:	689a      	ldr	r2, [r3, #8]
 8003dc8:	687b      	ldr	r3, [r7, #4]
 8003dca:	605a      	str	r2, [r3, #4]
 8003dcc:	f107 070c 	add.w	r7, r7, #12
 8003dd0:	46bd      	mov	sp, r7
 8003dd2:	bc80      	pop	{r7}
 8003dd4:	4770      	bx	lr
 8003dd6:	bf00      	nop

08003dd8 <cbIsEmpty>:
 8003dd8:	b480      	push	{r7}
 8003dda:	b083      	sub	sp, #12
 8003ddc:	af00      	add	r7, sp, #0
 8003dde:	6078      	str	r0, [r7, #4]
 8003de0:	687b      	ldr	r3, [r7, #4]
 8003de2:	689a      	ldr	r2, [r3, #8]
 8003de4:	687b      	ldr	r3, [r7, #4]
 8003de6:	685b      	ldr	r3, [r3, #4]
 8003de8:	429a      	cmp	r2, r3
 8003dea:	bf14      	ite	ne
 8003dec:	2300      	movne	r3, #0
 8003dee:	2301      	moveq	r3, #1
 8003df0:	4618      	mov	r0, r3
 8003df2:	f107 070c 	add.w	r7, r7, #12
 8003df6:	46bd      	mov	sp, r7
 8003df8:	bc80      	pop	{r7}
 8003dfa:	4770      	bx	lr

08003dfc <cbWrite>:
 8003dfc:	b480      	push	{r7}
 8003dfe:	b083      	sub	sp, #12
 8003e00:	af00      	add	r7, sp, #0
 8003e02:	6078      	str	r0, [r7, #4]
 8003e04:	6039      	str	r1, [r7, #0]
 8003e06:	687b      	ldr	r3, [r7, #4]
 8003e08:	68da      	ldr	r2, [r3, #12]
 8003e0a:	687b      	ldr	r3, [r7, #4]
 8003e0c:	689b      	ldr	r3, [r3, #8]
 8003e0e:	18d3      	adds	r3, r2, r3
 8003e10:	683a      	ldr	r2, [r7, #0]
 8003e12:	7812      	ldrb	r2, [r2, #0]
 8003e14:	701a      	strb	r2, [r3, #0]
 8003e16:	687b      	ldr	r3, [r7, #4]
 8003e18:	689b      	ldr	r3, [r3, #8]
 8003e1a:	f103 0301 	add.w	r3, r3, #1
 8003e1e:	687a      	ldr	r2, [r7, #4]
 8003e20:	6812      	ldr	r2, [r2, #0]
 8003e22:	fb93 f1f2 	sdiv	r1, r3, r2
 8003e26:	fb02 f201 	mul.w	r2, r2, r1
 8003e2a:	1a9a      	subs	r2, r3, r2
 8003e2c:	687b      	ldr	r3, [r7, #4]
 8003e2e:	609a      	str	r2, [r3, #8]
 8003e30:	687b      	ldr	r3, [r7, #4]
 8003e32:	689a      	ldr	r2, [r3, #8]
 8003e34:	687b      	ldr	r3, [r7, #4]
 8003e36:	685b      	ldr	r3, [r3, #4]
 8003e38:	429a      	cmp	r2, r3
 8003e3a:	d10c      	bne.n	8003e56 <cbWrite+0x5a>
 8003e3c:	687b      	ldr	r3, [r7, #4]
 8003e3e:	685b      	ldr	r3, [r3, #4]
 8003e40:	f103 0301 	add.w	r3, r3, #1
 8003e44:	687a      	ldr	r2, [r7, #4]
 8003e46:	6812      	ldr	r2, [r2, #0]
 8003e48:	fb93 f1f2 	sdiv	r1, r3, r2
 8003e4c:	fb02 f201 	mul.w	r2, r2, r1
 8003e50:	1a9a      	subs	r2, r3, r2
 8003e52:	687b      	ldr	r3, [r7, #4]
 8003e54:	605a      	str	r2, [r3, #4]
 8003e56:	f107 070c 	add.w	r7, r7, #12
 8003e5a:	46bd      	mov	sp, r7
 8003e5c:	bc80      	pop	{r7}
 8003e5e:	4770      	bx	lr

08003e60 <cbRead>:
 8003e60:	b480      	push	{r7}
 8003e62:	b083      	sub	sp, #12
 8003e64:	af00      	add	r7, sp, #0
 8003e66:	6078      	str	r0, [r7, #4]
 8003e68:	6039      	str	r1, [r7, #0]
 8003e6a:	687b      	ldr	r3, [r7, #4]
 8003e6c:	68da      	ldr	r2, [r3, #12]
 8003e6e:	687b      	ldr	r3, [r7, #4]
 8003e70:	685b      	ldr	r3, [r3, #4]
 8003e72:	18d3      	adds	r3, r2, r3
 8003e74:	781a      	ldrb	r2, [r3, #0]
 8003e76:	683b      	ldr	r3, [r7, #0]
 8003e78:	701a      	strb	r2, [r3, #0]
 8003e7a:	687b      	ldr	r3, [r7, #4]
 8003e7c:	685b      	ldr	r3, [r3, #4]
 8003e7e:	f103 0301 	add.w	r3, r3, #1
 8003e82:	687a      	ldr	r2, [r7, #4]
 8003e84:	6812      	ldr	r2, [r2, #0]
 8003e86:	fb93 f1f2 	sdiv	r1, r3, r2
 8003e8a:	fb02 f201 	mul.w	r2, r2, r1
 8003e8e:	1a9a      	subs	r2, r3, r2
 8003e90:	687b      	ldr	r3, [r7, #4]
 8003e92:	605a      	str	r2, [r3, #4]
 8003e94:	f107 070c 	add.w	r7, r7, #12
 8003e98:	46bd      	mov	sp, r7
 8003e9a:	bc80      	pop	{r7}
 8003e9c:	4770      	bx	lr
 8003e9e:	bf00      	nop

08003ea0 <NVIC_EnableIRQ>:
 8003ea0:	b480      	push	{r7}
 8003ea2:	b083      	sub	sp, #12
 8003ea4:	af00      	add	r7, sp, #0
 8003ea6:	4603      	mov	r3, r0
 8003ea8:	71fb      	strb	r3, [r7, #7]
 8003eaa:	4b09      	ldr	r3, [pc, #36]	; (8003ed0 <NVIC_EnableIRQ+0x30>)
 8003eac:	f997 2007 	ldrsb.w	r2, [r7, #7]
 8003eb0:	ea4f 1252 	mov.w	r2, r2, lsr #5
 8003eb4:	79f9      	ldrb	r1, [r7, #7]
 8003eb6:	f001 011f 	and.w	r1, r1, #31
 8003eba:	f04f 0001 	mov.w	r0, #1
 8003ebe:	fa00 f101 	lsl.w	r1, r0, r1
 8003ec2:	f843 1022 	str.w	r1, [r3, r2, lsl #2]
 8003ec6:	f107 070c 	add.w	r7, r7, #12
 8003eca:	46bd      	mov	sp, r7
 8003ecc:	bc80      	pop	{r7}
 8003ece:	4770      	bx	lr
 8003ed0:	e000e100 	.word	0xe000e100

08003ed4 <NVIC_SetPriority>:
 8003ed4:	b480      	push	{r7}
 8003ed6:	b083      	sub	sp, #12
 8003ed8:	af00      	add	r7, sp, #0
 8003eda:	4603      	mov	r3, r0
 8003edc:	6039      	str	r1, [r7, #0]
 8003ede:	71fb      	strb	r3, [r7, #7]
 8003ee0:	f997 3007 	ldrsb.w	r3, [r7, #7]
 8003ee4:	2b00      	cmp	r3, #0
 8003ee6:	da0d      	bge.n	8003f04 <NVIC_SetPriority+0x30>
 8003ee8:	490e      	ldr	r1, [pc, #56]	; (8003f24 <NVIC_SetPriority+0x50>)
 8003eea:	79fb      	ldrb	r3, [r7, #7]
 8003eec:	f003 030f 	and.w	r3, r3, #15
 8003ef0:	f1a3 0304 	sub.w	r3, r3, #4
 8003ef4:	683a      	ldr	r2, [r7, #0]
 8003ef6:	b2d2      	uxtb	r2, r2
 8003ef8:	ea4f 1202 	mov.w	r2, r2, lsl #4
 8003efc:	b2d2      	uxtb	r2, r2
 8003efe:	18cb      	adds	r3, r1, r3
 8003f00:	761a      	strb	r2, [r3, #24]
 8003f02:	e00a      	b.n	8003f1a <NVIC_SetPriority+0x46>
 8003f04:	4908      	ldr	r1, [pc, #32]	; (8003f28 <NVIC_SetPriority+0x54>)
 8003f06:	f997 3007 	ldrsb.w	r3, [r7, #7]
 8003f0a:	683a      	ldr	r2, [r7, #0]
 8003f0c:	b2d2      	uxtb	r2, r2
 8003f0e:	ea4f 1202 	mov.w	r2, r2, lsl #4
 8003f12:	b2d2      	uxtb	r2, r2
 8003f14:	18cb      	adds	r3, r1, r3
 8003f16:	f883 2300 	strb.w	r2, [r3, #768]	; 0x300
 8003f1a:	f107 070c 	add.w	r7, r7, #12
 8003f1e:	46bd      	mov	sp, r7
 8003f20:	bc80      	pop	{r7}
 8003f22:	4770      	bx	lr
 8003f24:	e000ed00 	.word	0xe000ed00
 8003f28:	e000e100 	.word	0xe000e100

08003f2c <GetNetworkState>:
 8003f2c:	b480      	push	{r7}
 8003f2e:	af00      	add	r7, sp, #0
 8003f30:	4b02      	ldr	r3, [pc, #8]	; (8003f3c <GetNetworkState+0x10>)
 8003f32:	781b      	ldrb	r3, [r3, #0]
 8003f34:	4618      	mov	r0, r3
 8003f36:	46bd      	mov	sp, r7
 8003f38:	bc80      	pop	{r7}
 8003f3a:	4770      	bx	lr
 8003f3c:	20000ec4 	.word	0x20000ec4

08003f40 <GetDeviceAddress>:
 8003f40:	b480      	push	{r7}
 8003f42:	af00      	add	r7, sp, #0
 8003f44:	4b02      	ldr	r3, [pc, #8]	; (8003f50 <GetDeviceAddress+0x10>)
 8003f46:	781b      	ldrb	r3, [r3, #0]
 8003f48:	4618      	mov	r0, r3
 8003f4a:	46bd      	mov	sp, r7
 8003f4c:	bc80      	pop	{r7}
 8003f4e:	4770      	bx	lr
 8003f50:	20000670 	.word	0x20000670

08003f54 <SetMode>:
 8003f54:	b580      	push	{r7, lr}
 8003f56:	b082      	sub	sp, #8
 8003f58:	af00      	add	r7, sp, #0
 8003f5a:	4603      	mov	r3, r0
 8003f5c:	71fb      	strb	r3, [r7, #7]
 8003f5e:	482f      	ldr	r0, [pc, #188]	; (800401c <SetMode+0xc8>)
 8003f60:	f04f 0100 	mov.w	r1, #0
 8003f64:	f7ff fda2 	bl	8003aac <USART_Cmd>
 8003f68:	482c      	ldr	r0, [pc, #176]	; (800401c <SetMode+0xc8>)
 8003f6a:	f240 5125 	movw	r1, #1317	; 0x525
 8003f6e:	f7ff febd 	bl	8003cec <USART_ClearITPendingBit>
 8003f72:	482a      	ldr	r0, [pc, #168]	; (800401c <SetMode+0xc8>)
 8003f74:	f240 6126 	movw	r1, #1574	; 0x626
 8003f78:	f7ff feb8 	bl	8003cec <USART_ClearITPendingBit>
 8003f7c:	79fb      	ldrb	r3, [r7, #7]
 8003f7e:	2b00      	cmp	r3, #0
 8003f80:	d11c      	bne.n	8003fbc <SetMode+0x68>
 8003f82:	4b27      	ldr	r3, [pc, #156]	; (8004020 <SetMode+0xcc>)
 8003f84:	4a26      	ldr	r2, [pc, #152]	; (8004020 <SetMode+0xcc>)
 8003f86:	6952      	ldr	r2, [r2, #20]
 8003f88:	f442 6280 	orr.w	r2, r2, #1024	; 0x400
 8003f8c:	615a      	str	r2, [r3, #20]
 8003f8e:	4b24      	ldr	r3, [pc, #144]	; (8004020 <SetMode+0xcc>)
 8003f90:	4a23      	ldr	r2, [pc, #140]	; (8004020 <SetMode+0xcc>)
 8003f92:	6952      	ldr	r2, [r2, #20]
 8003f94:	f442 6200 	orr.w	r2, r2, #2048	; 0x800
 8003f98:	615a      	str	r2, [r3, #20]
 8003f9a:	4820      	ldr	r0, [pc, #128]	; (800401c <SetMode+0xc8>)
 8003f9c:	f240 6126 	movw	r1, #1574	; 0x626
 8003fa0:	f04f 0200 	mov.w	r2, #0
 8003fa4:	f7ff fda2 	bl	8003aec <USART_ITConfig>
 8003fa8:	481c      	ldr	r0, [pc, #112]	; (800401c <SetMode+0xc8>)
 8003faa:	f240 5125 	movw	r1, #1317	; 0x525
 8003fae:	f04f 0201 	mov.w	r2, #1
 8003fb2:	f7ff fd9b 	bl	8003aec <USART_ITConfig>
 8003fb6:	f7fe f919 	bl	80021ec <NetworkLedOff>
 8003fba:	e01f      	b.n	8003ffc <SetMode+0xa8>
 8003fbc:	4b18      	ldr	r3, [pc, #96]	; (8004020 <SetMode+0xcc>)
 8003fbe:	4a18      	ldr	r2, [pc, #96]	; (8004020 <SetMode+0xcc>)
 8003fc0:	6912      	ldr	r2, [r2, #16]
 8003fc2:	f442 6200 	orr.w	r2, r2, #2048	; 0x800
 8003fc6:	611a      	str	r2, [r3, #16]
 8003fc8:	4b15      	ldr	r3, [pc, #84]	; (8004020 <SetMode+0xcc>)
 8003fca:	4a15      	ldr	r2, [pc, #84]	; (8004020 <SetMode+0xcc>)
 8003fcc:	6912      	ldr	r2, [r2, #16]
 8003fce:	f442 6280 	orr.w	r2, r2, #1024	; 0x400
 8003fd2:	611a      	str	r2, [r3, #16]
 8003fd4:	4811      	ldr	r0, [pc, #68]	; (800401c <SetMode+0xc8>)
 8003fd6:	f240 5125 	movw	r1, #1317	; 0x525
 8003fda:	f04f 0200 	mov.w	r2, #0
 8003fde:	f7ff fd85 	bl	8003aec <USART_ITConfig>
 8003fe2:	480e      	ldr	r0, [pc, #56]	; (800401c <SetMode+0xc8>)
 8003fe4:	f240 6126 	movw	r1, #1574	; 0x626
 8003fe8:	f04f 0201 	mov.w	r2, #1
 8003fec:	f7ff fd7e 	bl	8003aec <USART_ITConfig>
 8003ff0:	f7fe f8ee 	bl	80021d0 <NetworkLedOn>
 8003ff4:	4b0b      	ldr	r3, [pc, #44]	; (8004024 <SetMode+0xd0>)
 8003ff6:	f04f 0200 	mov.w	r2, #0
 8003ffa:	701a      	strb	r2, [r3, #0]
 8003ffc:	480a      	ldr	r0, [pc, #40]	; (8004028 <SetMode+0xd4>)
 8003ffe:	f7ff fed9 	bl	8003db4 <cbClear>
 8004002:	4b0a      	ldr	r3, [pc, #40]	; (800402c <SetMode+0xd8>)
 8004004:	79fa      	ldrb	r2, [r7, #7]
 8004006:	701a      	strb	r2, [r3, #0]
 8004008:	4804      	ldr	r0, [pc, #16]	; (800401c <SetMode+0xc8>)
 800400a:	f04f 0101 	mov.w	r1, #1
 800400e:	f7ff fd4d 	bl	8003aac <USART_Cmd>
 8004012:	f107 0708 	add.w	r7, r7, #8
 8004016:	46bd      	mov	sp, r7
 8004018:	bd80      	pop	{r7, pc}
 800401a:	bf00      	nop
 800401c:	40004400 	.word	0x40004400
 8004020:	40011000 	.word	0x40011000
 8004024:	20000ec5 	.word	0x20000ec5
 8004028:	20000674 	.word	0x20000674
 800402c:	20000ec4 	.word	0x20000ec4

08004030 <InitNetWork>:
 8004030:	b580      	push	{r7, lr}
 8004032:	b088      	sub	sp, #32
 8004034:	af00      	add	r7, sp, #0
 8004036:	6078      	str	r0, [r7, #4]
 8004038:	4613      	mov	r3, r2
 800403a:	460a      	mov	r2, r1
 800403c:	70fa      	strb	r2, [r7, #3]
 800403e:	70bb      	strb	r3, [r7, #2]
 8004040:	f44f 3000 	mov.w	r0, #131072	; 0x20000
 8004044:	f04f 0101 	mov.w	r1, #1
 8004048:	f7ff fb9c 	bl	8003784 <RCC_APB1PeriphClockCmd>
 800404c:	f04f 0001 	mov.w	r0, #1
 8004050:	f04f 0101 	mov.w	r1, #1
 8004054:	f7ff fb74 	bl	8003740 <RCC_APB2PeriphClockCmd>
 8004058:	f04f 0004 	mov.w	r0, #4
 800405c:	f04f 0101 	mov.w	r1, #1
 8004060:	f7ff fb6e 	bl	8003740 <RCC_APB2PeriphClockCmd>
 8004064:	f04f 0010 	mov.w	r0, #16
 8004068:	f04f 0101 	mov.w	r1, #1
 800406c:	f7ff fb68 	bl	8003740 <RCC_APB2PeriphClockCmd>
 8004070:	f107 030c 	add.w	r3, r7, #12
 8004074:	4618      	mov	r0, r3
 8004076:	f7fd ff39 	bl	8001eec <GPIO_StructInit>
 800407a:	f04f 0308 	mov.w	r3, #8
 800407e:	81bb      	strh	r3, [r7, #12]
 8004080:	f04f 0304 	mov.w	r3, #4
 8004084:	73fb      	strb	r3, [r7, #15]
 8004086:	f04f 0303 	mov.w	r3, #3
 800408a:	73bb      	strb	r3, [r7, #14]
 800408c:	f107 030c 	add.w	r3, r7, #12
 8004090:	483d      	ldr	r0, [pc, #244]	; (8004188 <InitNetWork+0x158>)
 8004092:	4619      	mov	r1, r3
 8004094:	f7fd fe4a 	bl	8001d2c <GPIO_Init>
 8004098:	f107 030c 	add.w	r3, r7, #12
 800409c:	4618      	mov	r0, r3
 800409e:	f7fd ff25 	bl	8001eec <GPIO_StructInit>
 80040a2:	f04f 0304 	mov.w	r3, #4
 80040a6:	81bb      	strh	r3, [r7, #12]
 80040a8:	f04f 0318 	mov.w	r3, #24
 80040ac:	73fb      	strb	r3, [r7, #15]
 80040ae:	f04f 0303 	mov.w	r3, #3
 80040b2:	73bb      	strb	r3, [r7, #14]
 80040b4:	f107 030c 	add.w	r3, r7, #12
 80040b8:	4833      	ldr	r0, [pc, #204]	; (8004188 <InitNetWork+0x158>)
 80040ba:	4619      	mov	r1, r3
 80040bc:	f7fd fe36 	bl	8001d2c <GPIO_Init>
 80040c0:	f107 030c 	add.w	r3, r7, #12
 80040c4:	4618      	mov	r0, r3
 80040c6:	f7fd ff11 	bl	8001eec <GPIO_StructInit>
 80040ca:	f44f 6300 	mov.w	r3, #2048	; 0x800
 80040ce:	81bb      	strh	r3, [r7, #12]
 80040d0:	f04f 0310 	mov.w	r3, #16
 80040d4:	73fb      	strb	r3, [r7, #15]
 80040d6:	f04f 0303 	mov.w	r3, #3
 80040da:	73bb      	strb	r3, [r7, #14]
 80040dc:	f107 030c 	add.w	r3, r7, #12
 80040e0:	482a      	ldr	r0, [pc, #168]	; (800418c <InitNetWork+0x15c>)
 80040e2:	4619      	mov	r1, r3
 80040e4:	f7fd fe22 	bl	8001d2c <GPIO_Init>
 80040e8:	f107 030c 	add.w	r3, r7, #12
 80040ec:	4618      	mov	r0, r3
 80040ee:	f7fd fefd 	bl	8001eec <GPIO_StructInit>
 80040f2:	f44f 6380 	mov.w	r3, #1024	; 0x400
 80040f6:	81bb      	strh	r3, [r7, #12]
 80040f8:	f04f 0310 	mov.w	r3, #16
 80040fc:	73fb      	strb	r3, [r7, #15]
 80040fe:	f04f 0303 	mov.w	r3, #3
 8004102:	73bb      	strb	r3, [r7, #14]
 8004104:	f107 030c 	add.w	r3, r7, #12
 8004108:	4820      	ldr	r0, [pc, #128]	; (800418c <InitNetWork+0x15c>)
 800410a:	4619      	mov	r1, r3
 800410c:	f7fd fe0e 	bl	8001d2c <GPIO_Init>
 8004110:	687b      	ldr	r3, [r7, #4]
 8004112:	613b      	str	r3, [r7, #16]
 8004114:	f04f 0300 	mov.w	r3, #0
 8004118:	83bb      	strh	r3, [r7, #28]
 800411a:	f04f 030c 	mov.w	r3, #12
 800411e:	837b      	strh	r3, [r7, #26]
 8004120:	f04f 0300 	mov.w	r3, #0
 8004124:	82fb      	strh	r3, [r7, #22]
 8004126:	f04f 0308 	mov.w	r3, #8
 800412a:	82bb      	strh	r3, [r7, #20]
 800412c:	f04f 0300 	mov.w	r3, #0
 8004130:	833b      	strh	r3, [r7, #24]
 8004132:	f107 0310 	add.w	r3, r7, #16
 8004136:	4816      	ldr	r0, [pc, #88]	; (8004190 <InitNetWork+0x160>)
 8004138:	4619      	mov	r1, r3
 800413a:	f7ff fbdf 	bl	80038fc <USART_Init>
 800413e:	4814      	ldr	r0, [pc, #80]	; (8004190 <InitNetWork+0x160>)
 8004140:	f240 5125 	movw	r1, #1317	; 0x525
 8004144:	f04f 0201 	mov.w	r2, #1
 8004148:	f7ff fcd0 	bl	8003aec <USART_ITConfig>
 800414c:	f04f 0026 	mov.w	r0, #38	; 0x26
 8004150:	f7ff fea6 	bl	8003ea0 <NVIC_EnableIRQ>
 8004154:	f04f 0026 	mov.w	r0, #38	; 0x26
 8004158:	f04f 0108 	mov.w	r1, #8
 800415c:	f7ff feba 	bl	8003ed4 <NVIC_SetPriority>
 8004160:	480c      	ldr	r0, [pc, #48]	; (8004194 <InitNetWork+0x164>)
 8004162:	f44f 6104 	mov.w	r1, #2112	; 0x840
 8004166:	f7ff fe03 	bl	8003d70 <cbInit>
 800416a:	4b0b      	ldr	r3, [pc, #44]	; (8004198 <InitNetWork+0x168>)
 800416c:	78fa      	ldrb	r2, [r7, #3]
 800416e:	701a      	strb	r2, [r3, #0]
 8004170:	4b0a      	ldr	r3, [pc, #40]	; (800419c <InitNetWork+0x16c>)
 8004172:	78ba      	ldrb	r2, [r7, #2]
 8004174:	701a      	strb	r2, [r3, #0]
 8004176:	f04f 0000 	mov.w	r0, #0
 800417a:	f7ff feeb 	bl	8003f54 <SetMode>
 800417e:	f107 0720 	add.w	r7, r7, #32
 8004182:	46bd      	mov	sp, r7
 8004184:	bd80      	pop	{r7, pc}
 8004186:	bf00      	nop
 8004188:	40010800 	.word	0x40010800
 800418c:	40011000 	.word	0x40011000
 8004190:	40004400 	.word	0x40004400
 8004194:	20000674 	.word	0x20000674
 8004198:	20000670 	.word	0x20000670
 800419c:	20000671 	.word	0x20000671

080041a0 <USART2_IRQHandler>:
 80041a0:	b580      	push	{r7, lr}
 80041a2:	b082      	sub	sp, #8
 80041a4:	af00      	add	r7, sp, #0
 80041a6:	482a      	ldr	r0, [pc, #168]	; (8004250 <USART2_IRQHandler+0xb0>)
 80041a8:	f240 5125 	movw	r1, #1317	; 0x525
 80041ac:	f7ff fd38 	bl	8003c20 <USART_GetITStatus>
 80041b0:	4603      	mov	r3, r0
 80041b2:	2b00      	cmp	r3, #0
 80041b4:	d01a      	beq.n	80041ec <USART2_IRQHandler+0x4c>
 80041b6:	4826      	ldr	r0, [pc, #152]	; (8004250 <USART2_IRQHandler+0xb0>)
 80041b8:	f240 5125 	movw	r1, #1317	; 0x525
 80041bc:	f7ff fd96 	bl	8003cec <USART_ClearITPendingBit>
 80041c0:	4b24      	ldr	r3, [pc, #144]	; (8004254 <USART2_IRQHandler+0xb4>)
 80041c2:	781b      	ldrb	r3, [r3, #0]
 80041c4:	2b00      	cmp	r3, #0
 80041c6:	d111      	bne.n	80041ec <USART2_IRQHandler+0x4c>
 80041c8:	4821      	ldr	r0, [pc, #132]	; (8004250 <USART2_IRQHandler+0xb0>)
 80041ca:	f7ff fcf7 	bl	8003bbc <USART_ReceiveData>
 80041ce:	4603      	mov	r3, r0
 80041d0:	b2db      	uxtb	r3, r3
 80041d2:	71fb      	strb	r3, [r7, #7]
 80041d4:	f107 0307 	add.w	r3, r7, #7
 80041d8:	481f      	ldr	r0, [pc, #124]	; (8004258 <USART2_IRQHandler+0xb8>)
 80041da:	4619      	mov	r1, r3
 80041dc:	f7ff fe0e 	bl	8003dfc <cbWrite>
 80041e0:	f04f 0000 	mov.w	r0, #0
 80041e4:	f04f 0164 	mov.w	r1, #100	; 0x64
 80041e8:	f7fd f8de 	bl	80013a8 <SetTimerValue>
 80041ec:	4818      	ldr	r0, [pc, #96]	; (8004250 <USART2_IRQHandler+0xb0>)
 80041ee:	f240 6126 	movw	r1, #1574	; 0x626
 80041f2:	f7ff fd15 	bl	8003c20 <USART_GetITStatus>
 80041f6:	4603      	mov	r3, r0
 80041f8:	2b00      	cmp	r3, #0
 80041fa:	d024      	beq.n	8004246 <USART2_IRQHandler+0xa6>
 80041fc:	4814      	ldr	r0, [pc, #80]	; (8004250 <USART2_IRQHandler+0xb0>)
 80041fe:	f240 6126 	movw	r1, #1574	; 0x626
 8004202:	f7ff fd73 	bl	8003cec <USART_ClearITPendingBit>
 8004206:	4b13      	ldr	r3, [pc, #76]	; (8004254 <USART2_IRQHandler+0xb4>)
 8004208:	781b      	ldrb	r3, [r3, #0]
 800420a:	2b01      	cmp	r3, #1
 800420c:	d11b      	bne.n	8004246 <USART2_IRQHandler+0xa6>
 800420e:	4812      	ldr	r0, [pc, #72]	; (8004258 <USART2_IRQHandler+0xb8>)
 8004210:	f7ff fde2 	bl	8003dd8 <cbIsEmpty>
 8004214:	4603      	mov	r3, r0
 8004216:	2b00      	cmp	r3, #0
 8004218:	d10b      	bne.n	8004232 <USART2_IRQHandler+0x92>
 800421a:	f107 0306 	add.w	r3, r7, #6
 800421e:	480e      	ldr	r0, [pc, #56]	; (8004258 <USART2_IRQHandler+0xb8>)
 8004220:	4619      	mov	r1, r3
 8004222:	f7ff fe1d 	bl	8003e60 <cbRead>
 8004226:	79bb      	ldrb	r3, [r7, #6]
 8004228:	4809      	ldr	r0, [pc, #36]	; (8004250 <USART2_IRQHandler+0xb0>)
 800422a:	4619      	mov	r1, r3
 800422c:	f7ff fcb2 	bl	8003b94 <USART_SendData>
 8004230:	e009      	b.n	8004246 <USART2_IRQHandler+0xa6>
 8004232:	f04f 0003 	mov.w	r0, #3
 8004236:	f04f 0102 	mov.w	r1, #2
 800423a:	f7fd f8b5 	bl	80013a8 <SetTimerValue>
 800423e:	4b07      	ldr	r3, [pc, #28]	; (800425c <USART2_IRQHandler+0xbc>)
 8004240:	f04f 0201 	mov.w	r2, #1
 8004244:	701a      	strb	r2, [r3, #0]
 8004246:	f107 0708 	add.w	r7, r7, #8
 800424a:	46bd      	mov	sp, r7
 800424c:	bd80      	pop	{r7, pc}
 800424e:	bf00      	nop
 8004250:	40004400 	.word	0x40004400
 8004254:	20000ec4 	.word	0x20000ec4
 8004258:	20000674 	.word	0x20000674
 800425c:	20000ec5 	.word	0x20000ec5

08004260 <ProcessNetwork>:
 8004260:	b580      	push	{r7, lr}
 8004262:	b084      	sub	sp, #16
 8004264:	af00      	add	r7, sp, #0
 8004266:	4b6f      	ldr	r3, [pc, #444]	; (8004424 <ProcessNetwork+0x1c4>)
 8004268:	781b      	ldrb	r3, [r3, #0]
 800426a:	2b00      	cmp	r3, #0
 800426c:	f040 80bd 	bne.w	80043ea <ProcessNetwork+0x18a>
 8004270:	486d      	ldr	r0, [pc, #436]	; (8004428 <ProcessNetwork+0x1c8>)
 8004272:	f7ff fdb1 	bl	8003dd8 <cbIsEmpty>
 8004276:	4603      	mov	r3, r0
 8004278:	2b00      	cmp	r3, #0
 800427a:	f040 80c6 	bne.w	800440a <ProcessNetwork+0x1aa>
 800427e:	f04f 0000 	mov.w	r0, #0
 8004282:	f7fd f847 	bl	8001314 <IsTimeout>
 8004286:	4603      	mov	r3, r0
 8004288:	2b00      	cmp	r3, #0
 800428a:	f000 80c0 	beq.w	800440e <ProcessNetwork+0x1ae>
 800428e:	f04f 0300 	mov.w	r3, #0
 8004292:	81fb      	strh	r3, [r7, #14]
 8004294:	f107 0308 	add.w	r3, r7, #8
 8004298:	4863      	ldr	r0, [pc, #396]	; (8004428 <ProcessNetwork+0x1c8>)
 800429a:	4619      	mov	r1, r3
 800429c:	f7ff fde0 	bl	8003e60 <cbRead>
 80042a0:	7a3a      	ldrb	r2, [r7, #8]
 80042a2:	4b62      	ldr	r3, [pc, #392]	; (800442c <ProcessNetwork+0x1cc>)
 80042a4:	781b      	ldrb	r3, [r3, #0]
 80042a6:	429a      	cmp	r2, r3
 80042a8:	d003      	beq.n	80042b2 <ProcessNetwork+0x52>
 80042aa:	485f      	ldr	r0, [pc, #380]	; (8004428 <ProcessNetwork+0x1c8>)
 80042ac:	f7ff fd82 	bl	8003db4 <cbClear>
 80042b0:	e0b4      	b.n	800441c <ProcessNetwork+0x1bc>
 80042b2:	485d      	ldr	r0, [pc, #372]	; (8004428 <ProcessNetwork+0x1c8>)
 80042b4:	f7ff fd90 	bl	8003dd8 <cbIsEmpty>
 80042b8:	4603      	mov	r3, r0
 80042ba:	2b00      	cmp	r3, #0
 80042bc:	f040 80a9 	bne.w	8004412 <ProcessNetwork+0x1b2>
 80042c0:	f107 0307 	add.w	r3, r7, #7
 80042c4:	4858      	ldr	r0, [pc, #352]	; (8004428 <ProcessNetwork+0x1c8>)
 80042c6:	4619      	mov	r1, r3
 80042c8:	f7ff fdca 	bl	8003e60 <cbRead>
 80042cc:	89fb      	ldrh	r3, [r7, #14]
 80042ce:	7a39      	ldrb	r1, [r7, #8]
 80042d0:	4a57      	ldr	r2, [pc, #348]	; (8004430 <ProcessNetwork+0x1d0>)
 80042d2:	54d1      	strb	r1, [r2, r3]
 80042d4:	89fb      	ldrh	r3, [r7, #14]
 80042d6:	f103 0301 	add.w	r3, r3, #1
 80042da:	81fb      	strh	r3, [r7, #14]
 80042dc:	89fb      	ldrh	r3, [r7, #14]
 80042de:	79f9      	ldrb	r1, [r7, #7]
 80042e0:	4a53      	ldr	r2, [pc, #332]	; (8004430 <ProcessNetwork+0x1d0>)
 80042e2:	54d1      	strb	r1, [r2, r3]
 80042e4:	89fb      	ldrh	r3, [r7, #14]
 80042e6:	f103 0301 	add.w	r3, r3, #1
 80042ea:	81fb      	strh	r3, [r7, #14]
 80042ec:	e00d      	b.n	800430a <ProcessNetwork+0xaa>
 80042ee:	f107 0306 	add.w	r3, r7, #6
 80042f2:	484d      	ldr	r0, [pc, #308]	; (8004428 <ProcessNetwork+0x1c8>)
 80042f4:	4619      	mov	r1, r3
 80042f6:	f7ff fdb3 	bl	8003e60 <cbRead>
 80042fa:	89fb      	ldrh	r3, [r7, #14]
 80042fc:	79b9      	ldrb	r1, [r7, #6]
 80042fe:	4a4c      	ldr	r2, [pc, #304]	; (8004430 <ProcessNetwork+0x1d0>)
 8004300:	54d1      	strb	r1, [r2, r3]
 8004302:	89fb      	ldrh	r3, [r7, #14]
 8004304:	f103 0301 	add.w	r3, r3, #1
 8004308:	81fb      	strh	r3, [r7, #14]
 800430a:	4847      	ldr	r0, [pc, #284]	; (8004428 <ProcessNetwork+0x1c8>)
 800430c:	f7ff fd64 	bl	8003dd8 <cbIsEmpty>
 8004310:	4603      	mov	r3, r0
 8004312:	2b00      	cmp	r3, #0
 8004314:	d104      	bne.n	8004320 <ProcessNetwork+0xc0>
 8004316:	89fa      	ldrh	r2, [r7, #14]
 8004318:	f640 033f 	movw	r3, #2111	; 0x83f
 800431c:	429a      	cmp	r2, r3
 800431e:	d9e6      	bls.n	80042ee <ProcessNetwork+0x8e>
 8004320:	89fb      	ldrh	r3, [r7, #14]
 8004322:	f103 33ff 	add.w	r3, r3, #4294967295
 8004326:	81fb      	strh	r3, [r7, #14]
 8004328:	89fb      	ldrh	r3, [r7, #14]
 800432a:	4a41      	ldr	r2, [pc, #260]	; (8004430 <ProcessNetwork+0x1d0>)
 800432c:	5cd3      	ldrb	r3, [r2, r3]
 800432e:	ea4f 2303 	mov.w	r3, r3, lsl #8
 8004332:	81bb      	strh	r3, [r7, #12]
 8004334:	89fb      	ldrh	r3, [r7, #14]
 8004336:	f103 33ff 	add.w	r3, r3, #4294967295
 800433a:	81fb      	strh	r3, [r7, #14]
 800433c:	89fb      	ldrh	r3, [r7, #14]
 800433e:	4a3c      	ldr	r2, [pc, #240]	; (8004430 <ProcessNetwork+0x1d0>)
 8004340:	5cd3      	ldrb	r3, [r2, r3]
 8004342:	461a      	mov	r2, r3
 8004344:	89bb      	ldrh	r3, [r7, #12]
 8004346:	ea42 0303 	orr.w	r3, r2, r3
 800434a:	81bb      	strh	r3, [r7, #12]
 800434c:	89fb      	ldrh	r3, [r7, #14]
 800434e:	4838      	ldr	r0, [pc, #224]	; (8004430 <ProcessNetwork+0x1d0>)
 8004350:	4619      	mov	r1, r3
 8004352:	f64f 72ff 	movw	r2, #65535	; 0xffff
 8004356:	f7fd fcb7 	bl	8001cc8 <Crc16>
 800435a:	4603      	mov	r3, r0
 800435c:	89ba      	ldrh	r2, [r7, #12]
 800435e:	429a      	cmp	r2, r3
 8004360:	d159      	bne.n	8004416 <ProcessNetwork+0x1b6>
 8004362:	79fb      	ldrb	r3, [r7, #7]
 8004364:	f103 33ff 	add.w	r3, r3, #4294967295
 8004368:	2b0e      	cmp	r3, #14
 800436a:	d856      	bhi.n	800441a <ProcessNetwork+0x1ba>
 800436c:	a201      	add	r2, pc, #4	; (adr r2, 8004374 <ProcessNetwork+0x114>)
 800436e:	f852 f023 	ldr.w	pc, [r2, r3, lsl #2]
 8004372:	bf00      	nop
 8004374:	080043b7 	.word	0x080043b7
 8004378:	080043e5 	.word	0x080043e5
 800437c:	0800441b 	.word	0x0800441b
 8004380:	0800441b 	.word	0x0800441b
 8004384:	0800441b 	.word	0x0800441b
 8004388:	0800441b 	.word	0x0800441b
 800438c:	0800441b 	.word	0x0800441b
 8004390:	0800441b 	.word	0x0800441b
 8004394:	0800441b 	.word	0x0800441b
 8004398:	0800441b 	.word	0x0800441b
 800439c:	0800441b 	.word	0x0800441b
 80043a0:	0800441b 	.word	0x0800441b
 80043a4:	0800441b 	.word	0x0800441b
 80043a8:	0800441b 	.word	0x0800441b
 80043ac:	080043b1 	.word	0x080043b1
 80043b0:	f000 f842 	bl	8004438 <RequestDeviceType>
 80043b4:	e032      	b.n	800441c <ProcessNetwork+0x1bc>
 80043b6:	4b1e      	ldr	r3, [pc, #120]	; (8004430 <ProcessNetwork+0x1d0>)
 80043b8:	78db      	ldrb	r3, [r3, #3]
 80043ba:	817b      	strh	r3, [r7, #10]
 80043bc:	4b1c      	ldr	r3, [pc, #112]	; (8004430 <ProcessNetwork+0x1d0>)
 80043be:	791b      	ldrb	r3, [r3, #4]
 80043c0:	727b      	strb	r3, [r7, #9]
 80043c2:	4b1b      	ldr	r3, [pc, #108]	; (8004430 <ProcessNetwork+0x1d0>)
 80043c4:	789b      	ldrb	r3, [r3, #2]
 80043c6:	ea4f 2303 	mov.w	r3, r3, lsl #8
 80043ca:	b29a      	uxth	r2, r3
 80043cc:	897b      	ldrh	r3, [r7, #10]
 80043ce:	ea42 0303 	orr.w	r3, r2, r3
 80043d2:	b29b      	uxth	r3, r3
 80043d4:	817b      	strh	r3, [r7, #10]
 80043d6:	897a      	ldrh	r2, [r7, #10]
 80043d8:	7a7b      	ldrb	r3, [r7, #9]
 80043da:	4610      	mov	r0, r2
 80043dc:	4619      	mov	r1, r3
 80043de:	f7fe fa25 	bl	800282c <RequestOnScan>
 80043e2:	e01b      	b.n	800441c <ProcessNetwork+0x1bc>
 80043e4:	f7fe fa56 	bl	8002894 <RequestOffScan>
 80043e8:	e018      	b.n	800441c <ProcessNetwork+0x1bc>
 80043ea:	4b12      	ldr	r3, [pc, #72]	; (8004434 <ProcessNetwork+0x1d4>)
 80043ec:	781b      	ldrb	r3, [r3, #0]
 80043ee:	2b00      	cmp	r3, #0
 80043f0:	d014      	beq.n	800441c <ProcessNetwork+0x1bc>
 80043f2:	f04f 0003 	mov.w	r0, #3
 80043f6:	f7fc ff8d 	bl	8001314 <IsTimeout>
 80043fa:	4603      	mov	r3, r0
 80043fc:	2b00      	cmp	r3, #0
 80043fe:	d00d      	beq.n	800441c <ProcessNetwork+0x1bc>
 8004400:	f04f 0000 	mov.w	r0, #0
 8004404:	f7ff fda6 	bl	8003f54 <SetMode>
 8004408:	e008      	b.n	800441c <ProcessNetwork+0x1bc>
 800440a:	bf00      	nop
 800440c:	e006      	b.n	800441c <ProcessNetwork+0x1bc>
 800440e:	bf00      	nop
 8004410:	e004      	b.n	800441c <ProcessNetwork+0x1bc>
 8004412:	bf00      	nop
 8004414:	e002      	b.n	800441c <ProcessNetwork+0x1bc>
 8004416:	bf00      	nop
 8004418:	e000      	b.n	800441c <ProcessNetwork+0x1bc>
 800441a:	bf00      	nop
 800441c:	f107 0710 	add.w	r7, r7, #16
 8004420:	46bd      	mov	sp, r7
 8004422:	bd80      	pop	{r7, pc}
 8004424:	20000ec4 	.word	0x20000ec4
 8004428:	20000674 	.word	0x20000674
 800442c:	20000670 	.word	0x20000670
 8004430:	20000684 	.word	0x20000684
 8004434:	20000ec5 	.word	0x20000ec5

08004438 <RequestDeviceType>:
 8004438:	b580      	push	{r7, lr}
 800443a:	b084      	sub	sp, #16
 800443c:	af02      	add	r7, sp, #8
 800443e:	4b0d      	ldr	r3, [pc, #52]	; (8004474 <RequestDeviceType+0x3c>)
 8004440:	781a      	ldrb	r2, [r3, #0]
 8004442:	4b0d      	ldr	r3, [pc, #52]	; (8004478 <RequestDeviceType+0x40>)
 8004444:	781b      	ldrb	r3, [r3, #0]
 8004446:	713a      	strb	r2, [r7, #4]
 8004448:	f04f 020f 	mov.w	r2, #15
 800444c:	717a      	strb	r2, [r7, #5]
 800444e:	71bb      	strb	r3, [r7, #6]
 8004450:	f107 0304 	add.w	r3, r7, #4
 8004454:	f04f 0201 	mov.w	r2, #1
 8004458:	9200      	str	r2, [sp, #0]
 800445a:	4618      	mov	r0, r3
 800445c:	f04f 0103 	mov.w	r1, #3
 8004460:	f04f 0200 	mov.w	r2, #0
 8004464:	f04f 0300 	mov.w	r3, #0
 8004468:	f000 f808 	bl	800447c <Answer>
 800446c:	f107 0708 	add.w	r7, r7, #8
 8004470:	46bd      	mov	sp, r7
 8004472:	bd80      	pop	{r7, pc}
 8004474:	20000670 	.word	0x20000670
 8004478:	20000671 	.word	0x20000671

0800447c <Answer>:
 800447c:	b580      	push	{r7, lr}
 800447e:	b088      	sub	sp, #32
 8004480:	af00      	add	r7, sp, #0
 8004482:	60f8      	str	r0, [r7, #12]
 8004484:	60b9      	str	r1, [r7, #8]
 8004486:	607a      	str	r2, [r7, #4]
 8004488:	603b      	str	r3, [r7, #0]
 800448a:	68ba      	ldr	r2, [r7, #8]
 800448c:	683b      	ldr	r3, [r7, #0]
 800448e:	18d2      	adds	r2, r2, r3
 8004490:	f897 3028 	ldrb.w	r3, [r7, #40]	; 0x28
 8004494:	2b00      	cmp	r3, #0
 8004496:	d002      	beq.n	800449e <Answer+0x22>
 8004498:	f04f 0302 	mov.w	r3, #2
 800449c:	e001      	b.n	80044a2 <Answer+0x26>
 800449e:	f04f 0300 	mov.w	r3, #0
 80044a2:	18d3      	adds	r3, r2, r3
 80044a4:	617b      	str	r3, [r7, #20]
 80044a6:	68fb      	ldr	r3, [r7, #12]
 80044a8:	2b00      	cmp	r3, #0
 80044aa:	d102      	bne.n	80044b2 <Answer+0x36>
 80044ac:	f04f 0300 	mov.w	r3, #0
 80044b0:	e070      	b.n	8004594 <Answer+0x118>
 80044b2:	697b      	ldr	r3, [r7, #20]
 80044b4:	f5b3 6f04 	cmp.w	r3, #2112	; 0x840
 80044b8:	d902      	bls.n	80044c0 <Answer+0x44>
 80044ba:	f04f 0300 	mov.w	r3, #0
 80044be:	e069      	b.n	8004594 <Answer+0x118>
 80044c0:	f04f 0001 	mov.w	r0, #1
 80044c4:	f7ff fd46 	bl	8003f54 <SetMode>
 80044c8:	f04f 0300 	mov.w	r3, #0
 80044cc:	61fb      	str	r3, [r7, #28]
 80044ce:	e00a      	b.n	80044e6 <Answer+0x6a>
 80044d0:	68fa      	ldr	r2, [r7, #12]
 80044d2:	69fb      	ldr	r3, [r7, #28]
 80044d4:	18d3      	adds	r3, r2, r3
 80044d6:	4832      	ldr	r0, [pc, #200]	; (80045a0 <Answer+0x124>)
 80044d8:	4619      	mov	r1, r3
 80044da:	f7ff fc8f 	bl	8003dfc <cbWrite>
 80044de:	69fb      	ldr	r3, [r7, #28]
 80044e0:	f103 0301 	add.w	r3, r3, #1
 80044e4:	61fb      	str	r3, [r7, #28]
 80044e6:	69fa      	ldr	r2, [r7, #28]
 80044e8:	68bb      	ldr	r3, [r7, #8]
 80044ea:	429a      	cmp	r2, r3
 80044ec:	d3f0      	bcc.n	80044d0 <Answer+0x54>
 80044ee:	f04f 0300 	mov.w	r3, #0
 80044f2:	61bb      	str	r3, [r7, #24]
 80044f4:	e00a      	b.n	800450c <Answer+0x90>
 80044f6:	687a      	ldr	r2, [r7, #4]
 80044f8:	69bb      	ldr	r3, [r7, #24]
 80044fa:	18d3      	adds	r3, r2, r3
 80044fc:	4828      	ldr	r0, [pc, #160]	; (80045a0 <Answer+0x124>)
 80044fe:	4619      	mov	r1, r3
 8004500:	f7ff fc7c 	bl	8003dfc <cbWrite>
 8004504:	69bb      	ldr	r3, [r7, #24]
 8004506:	f103 0301 	add.w	r3, r3, #1
 800450a:	61bb      	str	r3, [r7, #24]
 800450c:	69ba      	ldr	r2, [r7, #24]
 800450e:	683b      	ldr	r3, [r7, #0]
 8004510:	429a      	cmp	r2, r3
 8004512:	d3f0      	bcc.n	80044f6 <Answer+0x7a>
 8004514:	f897 3028 	ldrb.w	r3, [r7, #40]	; 0x28
 8004518:	2b00      	cmp	r3, #0
 800451a:	d028      	beq.n	800456e <Answer+0xf2>
 800451c:	68bb      	ldr	r3, [r7, #8]
 800451e:	b29b      	uxth	r3, r3
 8004520:	68f8      	ldr	r0, [r7, #12]
 8004522:	4619      	mov	r1, r3
 8004524:	f64f 72ff 	movw	r2, #65535	; 0xffff
 8004528:	f7fd fbce 	bl	8001cc8 <Crc16>
 800452c:	4603      	mov	r3, r0
 800452e:	827b      	strh	r3, [r7, #18]
 8004530:	683b      	ldr	r3, [r7, #0]
 8004532:	b29a      	uxth	r2, r3
 8004534:	8a7b      	ldrh	r3, [r7, #18]
 8004536:	6878      	ldr	r0, [r7, #4]
 8004538:	4611      	mov	r1, r2
 800453a:	461a      	mov	r2, r3
 800453c:	f7fd fbc4 	bl	8001cc8 <Crc16>
 8004540:	4603      	mov	r3, r0
 8004542:	827b      	strh	r3, [r7, #18]
 8004544:	8a7b      	ldrh	r3, [r7, #18]
 8004546:	b2db      	uxtb	r3, r3
 8004548:	747b      	strb	r3, [r7, #17]
 800454a:	f107 0311 	add.w	r3, r7, #17
 800454e:	4814      	ldr	r0, [pc, #80]	; (80045a0 <Answer+0x124>)
 8004550:	4619      	mov	r1, r3
 8004552:	f7ff fc53 	bl	8003dfc <cbWrite>
 8004556:	8a7b      	ldrh	r3, [r7, #18]
 8004558:	ea4f 2313 	mov.w	r3, r3, lsr #8
 800455c:	b29b      	uxth	r3, r3
 800455e:	b2db      	uxtb	r3, r3
 8004560:	747b      	strb	r3, [r7, #17]
 8004562:	f107 0311 	add.w	r3, r7, #17
 8004566:	480e      	ldr	r0, [pc, #56]	; (80045a0 <Answer+0x124>)
 8004568:	4619      	mov	r1, r3
 800456a:	f7ff fc47 	bl	8003dfc <cbWrite>
 800456e:	480c      	ldr	r0, [pc, #48]	; (80045a0 <Answer+0x124>)
 8004570:	f7ff fc32 	bl	8003dd8 <cbIsEmpty>
 8004574:	4603      	mov	r3, r0
 8004576:	2b00      	cmp	r3, #0
 8004578:	d10a      	bne.n	8004590 <Answer+0x114>
 800457a:	f107 0310 	add.w	r3, r7, #16
 800457e:	4808      	ldr	r0, [pc, #32]	; (80045a0 <Answer+0x124>)
 8004580:	4619      	mov	r1, r3
 8004582:	f7ff fc6d 	bl	8003e60 <cbRead>
 8004586:	7c3b      	ldrb	r3, [r7, #16]
 8004588:	4806      	ldr	r0, [pc, #24]	; (80045a4 <Answer+0x128>)
 800458a:	4619      	mov	r1, r3
 800458c:	f7ff fb02 	bl	8003b94 <USART_SendData>
 8004590:	f04f 0301 	mov.w	r3, #1
 8004594:	4618      	mov	r0, r3
 8004596:	f107 0720 	add.w	r7, r7, #32
 800459a:	46bd      	mov	sp, r7
 800459c:	bd80      	pop	{r7, pc}
 800459e:	bf00      	nop
 80045a0:	20000674 	.word	0x20000674
 80045a4:	40004400 	.word	0x40004400

080045a8 <AnswerError>:
 80045a8:	b580      	push	{r7, lr}
 80045aa:	b086      	sub	sp, #24
 80045ac:	af02      	add	r7, sp, #8
 80045ae:	4603      	mov	r3, r0
 80045b0:	71fb      	strb	r3, [r7, #7]
 80045b2:	f7ff fcc5 	bl	8003f40 <GetDeviceAddress>
 80045b6:	4603      	mov	r3, r0
 80045b8:	733b      	strb	r3, [r7, #12]
 80045ba:	f04f 030a 	mov.w	r3, #10
 80045be:	737b      	strb	r3, [r7, #13]
 80045c0:	79fb      	ldrb	r3, [r7, #7]
 80045c2:	73bb      	strb	r3, [r7, #14]
 80045c4:	f107 030c 	add.w	r3, r7, #12
 80045c8:	f04f 0201 	mov.w	r2, #1
 80045cc:	9200      	str	r2, [sp, #0]
 80045ce:	4618      	mov	r0, r3
 80045d0:	f04f 0103 	mov.w	r1, #3
 80045d4:	f04f 0200 	mov.w	r2, #0
 80045d8:	f04f 0300 	mov.w	r3, #0
 80045dc:	f7ff ff4e 	bl	800447c <Answer>
 80045e0:	4603      	mov	r3, r0
 80045e2:	4618      	mov	r0, r3
 80045e4:	f107 0710 	add.w	r7, r7, #16
 80045e8:	46bd      	mov	sp, r7
 80045ea:	bd80      	pop	{r7, pc}

080045ec <NVIC_EnableIRQ>:
 80045ec:	b480      	push	{r7}
 80045ee:	b083      	sub	sp, #12
 80045f0:	af00      	add	r7, sp, #0
 80045f2:	4603      	mov	r3, r0
 80045f4:	71fb      	strb	r3, [r7, #7]
 80045f6:	4b09      	ldr	r3, [pc, #36]	; (800461c <NVIC_EnableIRQ+0x30>)
 80045f8:	f997 2007 	ldrsb.w	r2, [r7, #7]
 80045fc:	ea4f 1252 	mov.w	r2, r2, lsr #5
 8004600:	79f9      	ldrb	r1, [r7, #7]
 8004602:	f001 011f 	and.w	r1, r1, #31
 8004606:	f04f 0001 	mov.w	r0, #1
 800460a:	fa00 f101 	lsl.w	r1, r0, r1
 800460e:	f843 1022 	str.w	r1, [r3, r2, lsl #2]
 8004612:	f107 070c 	add.w	r7, r7, #12
 8004616:	46bd      	mov	sp, r7
 8004618:	bc80      	pop	{r7}
 800461a:	4770      	bx	lr
 800461c:	e000e100 	.word	0xe000e100

08004620 <NVIC_DisableIRQ>:
 8004620:	b480      	push	{r7}
 8004622:	b083      	sub	sp, #12
 8004624:	af00      	add	r7, sp, #0
 8004626:	4603      	mov	r3, r0
 8004628:	71fb      	strb	r3, [r7, #7]
 800462a:	4b0a      	ldr	r3, [pc, #40]	; (8004654 <NVIC_DisableIRQ+0x34>)
 800462c:	f997 2007 	ldrsb.w	r2, [r7, #7]
 8004630:	ea4f 1252 	mov.w	r2, r2, lsr #5
 8004634:	79f9      	ldrb	r1, [r7, #7]
 8004636:	f001 011f 	and.w	r1, r1, #31
 800463a:	f04f 0001 	mov.w	r0, #1
 800463e:	fa00 f101 	lsl.w	r1, r0, r1
 8004642:	f102 0220 	add.w	r2, r2, #32
 8004646:	f843 1022 	str.w	r1, [r3, r2, lsl #2]
 800464a:	f107 070c 	add.w	r7, r7, #12
 800464e:	46bd      	mov	sp, r7
 8004650:	bc80      	pop	{r7}
 8004652:	4770      	bx	lr
 8004654:	e000e100 	.word	0xe000e100

08004658 <NVIC_SetPriority>:
 8004658:	b480      	push	{r7}
 800465a:	b083      	sub	sp, #12
 800465c:	af00      	add	r7, sp, #0
 800465e:	4603      	mov	r3, r0
 8004660:	6039      	str	r1, [r7, #0]
 8004662:	71fb      	strb	r3, [r7, #7]
 8004664:	f997 3007 	ldrsb.w	r3, [r7, #7]
 8004668:	2b00      	cmp	r3, #0
 800466a:	da0d      	bge.n	8004688 <NVIC_SetPriority+0x30>
 800466c:	490e      	ldr	r1, [pc, #56]	; (80046a8 <NVIC_SetPriority+0x50>)
 800466e:	79fb      	ldrb	r3, [r7, #7]
 8004670:	f003 030f 	and.w	r3, r3, #15
 8004674:	f1a3 0304 	sub.w	r3, r3, #4
 8004678:	683a      	ldr	r2, [r7, #0]
 800467a:	b2d2      	uxtb	r2, r2
 800467c:	ea4f 1202 	mov.w	r2, r2, lsl #4
 8004680:	b2d2      	uxtb	r2, r2
 8004682:	18cb      	adds	r3, r1, r3
 8004684:	761a      	strb	r2, [r3, #24]
 8004686:	e00a      	b.n	800469e <NVIC_SetPriority+0x46>
 8004688:	4908      	ldr	r1, [pc, #32]	; (80046ac <NVIC_SetPriority+0x54>)
 800468a:	f997 3007 	ldrsb.w	r3, [r7, #7]
 800468e:	683a      	ldr	r2, [r7, #0]
 8004690:	b2d2      	uxtb	r2, r2
 8004692:	ea4f 1202 	mov.w	r2, r2, lsl #4
 8004696:	b2d2      	uxtb	r2, r2
 8004698:	18cb      	adds	r3, r1, r3
 800469a:	f883 2300 	strb.w	r2, [r3, #768]	; 0x300
 800469e:	f107 070c 	add.w	r7, r7, #12
 80046a2:	46bd      	mov	sp, r7
 80046a4:	bc80      	pop	{r7}
 80046a6:	4770      	bx	lr
 80046a8:	e000ed00 	.word	0xe000ed00
 80046ac:	e000e100 	.word	0xe000e100

080046b0 <IsScanning>:
 80046b0:	b480      	push	{r7}
 80046b2:	af00      	add	r7, sp, #0
 80046b4:	4b04      	ldr	r3, [pc, #16]	; (80046c8 <IsScanning+0x18>)
 80046b6:	681b      	ldr	r3, [r3, #0]
 80046b8:	2b00      	cmp	r3, #0
 80046ba:	bf0c      	ite	eq
 80046bc:	2300      	moveq	r3, #0
 80046be:	2301      	movne	r3, #1
 80046c0:	4618      	mov	r0, r3
 80046c2:	46bd      	mov	sp, r7
 80046c4:	bc80      	pop	{r7}
 80046c6:	4770      	bx	lr
 80046c8:	20000ed0 	.word	0x20000ed0

080046cc <InitEXTI>:
 80046cc:	b580      	push	{r7, lr}
 80046ce:	b084      	sub	sp, #16
 80046d0:	af00      	add	r7, sp, #0
 80046d2:	f04f 0010 	mov.w	r0, #16
 80046d6:	f04f 0101 	mov.w	r1, #1
 80046da:	f7ff f831 	bl	8003740 <RCC_APB2PeriphClockCmd>
 80046de:	f04f 0001 	mov.w	r0, #1
 80046e2:	f04f 0101 	mov.w	r1, #1
 80046e6:	f7ff f82b 	bl	8003740 <RCC_APB2PeriphClockCmd>
 80046ea:	f107 030c 	add.w	r3, r7, #12
 80046ee:	4618      	mov	r0, r3
 80046f0:	f7fd fbfc 	bl	8001eec <GPIO_StructInit>
 80046f4:	f04f 0301 	mov.w	r3, #1
 80046f8:	81bb      	strh	r3, [r7, #12]
 80046fa:	f04f 0304 	mov.w	r3, #4
 80046fe:	73fb      	strb	r3, [r7, #15]
 8004700:	f04f 0303 	mov.w	r3, #3
 8004704:	73bb      	strb	r3, [r7, #14]
 8004706:	f107 030c 	add.w	r3, r7, #12
 800470a:	4816      	ldr	r0, [pc, #88]	; (8004764 <InitEXTI+0x98>)
 800470c:	4619      	mov	r1, r3
 800470e:	f7fd fb0d 	bl	8001d2c <GPIO_Init>
 8004712:	f04f 0006 	mov.w	r0, #6
 8004716:	f04f 0101 	mov.w	r1, #1
 800471a:	f7ff ff9d 	bl	8004658 <NVIC_SetPriority>
 800471e:	f04f 0002 	mov.w	r0, #2
 8004722:	f04f 0100 	mov.w	r1, #0
 8004726:	f7fd fc79 	bl	800201c <GPIO_EXTILineConfig>
 800472a:	f04f 0301 	mov.w	r3, #1
 800472e:	607b      	str	r3, [r7, #4]
 8004730:	f04f 0300 	mov.w	r3, #0
 8004734:	723b      	strb	r3, [r7, #8]
 8004736:	f04f 0310 	mov.w	r3, #16
 800473a:	727b      	strb	r3, [r7, #9]
 800473c:	f04f 0301 	mov.w	r3, #1
 8004740:	72bb      	strb	r3, [r7, #10]
 8004742:	f107 0304 	add.w	r3, r7, #4
 8004746:	4618      	mov	r0, r3
 8004748:	f7ff f83e 	bl	80037c8 <EXTI_Init>
 800474c:	4b06      	ldr	r3, [pc, #24]	; (8004768 <InitEXTI+0x9c>)
 800474e:	681a      	ldr	r2, [r3, #0]
 8004750:	4b06      	ldr	r3, [pc, #24]	; (800476c <InitEXTI+0xa0>)
 8004752:	681b      	ldr	r3, [r3, #0]
 8004754:	431a      	orrs	r2, r3
 8004756:	4b04      	ldr	r3, [pc, #16]	; (8004768 <InitEXTI+0x9c>)
 8004758:	601a      	str	r2, [r3, #0]
 800475a:	f107 0710 	add.w	r7, r7, #16
 800475e:	46bd      	mov	sp, r7
 8004760:	bd80      	pop	{r7, pc}
 8004762:	bf00      	nop
 8004764:	40011000 	.word	0x40011000
 8004768:	20000ec8 	.word	0x20000ec8
 800476c:	08007160 	.word	0x08007160

08004770 <InitTimers>:
 8004770:	b580      	push	{r7, lr}
 8004772:	b088      	sub	sp, #32
 8004774:	af00      	add	r7, sp, #0
 8004776:	4b4e      	ldr	r3, [pc, #312]	; (80048b0 <InitTimers+0x140>)
 8004778:	681a      	ldr	r2, [r3, #0]
 800477a:	4b4e      	ldr	r3, [pc, #312]	; (80048b4 <InitTimers+0x144>)
 800477c:	fba3 1302 	umull	r1, r3, r3, r2
 8004780:	ea4f 4393 	mov.w	r3, r3, lsr #18
 8004784:	b29b      	uxth	r3, r3
 8004786:	f103 33ff 	add.w	r3, r3, #4294967295
 800478a:	83fb      	strh	r3, [r7, #30]
 800478c:	f04f 0001 	mov.w	r0, #1
 8004790:	f04f 0101 	mov.w	r1, #1
 8004794:	f7fe fff6 	bl	8003784 <RCC_APB1PeriphClockCmd>
 8004798:	f04f 0002 	mov.w	r0, #2
 800479c:	f04f 0101 	mov.w	r1, #1
 80047a0:	f7fe fff0 	bl	8003784 <RCC_APB1PeriphClockCmd>
 80047a4:	f04f 0004 	mov.w	r0, #4
 80047a8:	f04f 0101 	mov.w	r1, #1
 80047ac:	f7fe ffc8 	bl	8003740 <RCC_APB2PeriphClockCmd>
 80047b0:	f04f 0001 	mov.w	r0, #1
 80047b4:	f04f 0101 	mov.w	r1, #1
 80047b8:	f7fe ffc2 	bl	8003740 <RCC_APB2PeriphClockCmd>
 80047bc:	f107 0318 	add.w	r3, r7, #24
 80047c0:	4618      	mov	r0, r3
 80047c2:	f7fd fb93 	bl	8001eec <GPIO_StructInit>
 80047c6:	f04f 0302 	mov.w	r3, #2
 80047ca:	833b      	strh	r3, [r7, #24]
 80047cc:	f04f 0304 	mov.w	r3, #4
 80047d0:	76fb      	strb	r3, [r7, #27]
 80047d2:	f04f 0303 	mov.w	r3, #3
 80047d6:	76bb      	strb	r3, [r7, #26]
 80047d8:	f107 0318 	add.w	r3, r7, #24
 80047dc:	4836      	ldr	r0, [pc, #216]	; (80048b8 <InitTimers+0x148>)
 80047de:	4619      	mov	r1, r3
 80047e0:	f7fd faa4 	bl	8001d2c <GPIO_Init>
 80047e4:	f64f 73ff 	movw	r3, #65535	; 0xffff
 80047e8:	823b      	strh	r3, [r7, #16]
 80047ea:	8bfb      	ldrh	r3, [r7, #30]
 80047ec:	81bb      	strh	r3, [r7, #12]
 80047ee:	f04f 0300 	mov.w	r3, #0
 80047f2:	827b      	strh	r3, [r7, #18]
 80047f4:	f04f 0300 	mov.w	r3, #0
 80047f8:	81fb      	strh	r3, [r7, #14]
 80047fa:	f107 030c 	add.w	r3, r7, #12
 80047fe:	482f      	ldr	r0, [pc, #188]	; (80048bc <InitTimers+0x14c>)
 8004800:	4619      	mov	r1, r3
 8004802:	f7fc fe2b 	bl	800145c <TIM_TimeBaseInit>
 8004806:	482d      	ldr	r0, [pc, #180]	; (80048bc <InitTimers+0x14c>)
 8004808:	f04f 0101 	mov.w	r1, #1
 800480c:	f04f 0201 	mov.w	r2, #1
 8004810:	f7fc ff26 	bl	8001660 <TIM_ITConfig>
 8004814:	f04f 0304 	mov.w	r3, #4
 8004818:	803b      	strh	r3, [r7, #0]
 800481a:	f04f 0300 	mov.w	r3, #0
 800481e:	807b      	strh	r3, [r7, #2]
 8004820:	f04f 0301 	mov.w	r3, #1
 8004824:	80bb      	strh	r3, [r7, #4]
 8004826:	f04f 0308 	mov.w	r3, #8
 800482a:	80fb      	strh	r3, [r7, #6]
 800482c:	f04f 0300 	mov.w	r3, #0
 8004830:	813b      	strh	r3, [r7, #8]
 8004832:	463b      	mov	r3, r7
 8004834:	f04f 4080 	mov.w	r0, #1073741824	; 0x40000000
 8004838:	4619      	mov	r1, r3
 800483a:	f7fc fe8f 	bl	800155c <TIM_PWMIConfig>
 800483e:	f04f 4080 	mov.w	r0, #1073741824	; 0x40000000
 8004842:	f04f 0160 	mov.w	r1, #96	; 0x60
 8004846:	f7fc ff31 	bl	80016ac <TIM_SelectInputTrigger>
 800484a:	f04f 4080 	mov.w	r0, #1073741824	; 0x40000000
 800484e:	f04f 0104 	mov.w	r1, #4
 8004852:	f7fc ff49 	bl	80016e8 <TIM_SelectSlaveMode>
 8004856:	f04f 4080 	mov.w	r0, #1073741824	; 0x40000000
 800485a:	f04f 0180 	mov.w	r1, #128	; 0x80
 800485e:	f7fc ff5f 	bl	8001720 <TIM_SelectMasterSlaveMode>
 8004862:	f04f 4080 	mov.w	r0, #1073741824	; 0x40000000
 8004866:	f04f 0104 	mov.w	r1, #4
 800486a:	f04f 0201 	mov.w	r2, #1
 800486e:	f7fc fef7 	bl	8001660 <TIM_ITConfig>
 8004872:	f04f 001c 	mov.w	r0, #28
 8004876:	f7ff feb9 	bl	80045ec <NVIC_EnableIRQ>
 800487a:	f04f 001d 	mov.w	r0, #29
 800487e:	f7ff feb5 	bl	80045ec <NVIC_EnableIRQ>
 8004882:	f04f 001c 	mov.w	r0, #28
 8004886:	f04f 0104 	mov.w	r1, #4
 800488a:	f7ff fee5 	bl	8004658 <NVIC_SetPriority>
 800488e:	f04f 001d 	mov.w	r0, #29
 8004892:	f04f 0103 	mov.w	r1, #3
 8004896:	f7ff fedf 	bl	8004658 <NVIC_SetPriority>
 800489a:	4b09      	ldr	r3, [pc, #36]	; (80048c0 <InitTimers+0x150>)
 800489c:	681a      	ldr	r2, [r3, #0]
 800489e:	4b09      	ldr	r3, [pc, #36]	; (80048c4 <InitTimers+0x154>)
 80048a0:	681b      	ldr	r3, [r3, #0]
 80048a2:	431a      	orrs	r2, r3
 80048a4:	4b06      	ldr	r3, [pc, #24]	; (80048c0 <InitTimers+0x150>)
 80048a6:	601a      	str	r2, [r3, #0]
 80048a8:	f107 0720 	add.w	r7, r7, #32
 80048ac:	46bd      	mov	sp, r7
 80048ae:	bd80      	pop	{r7, pc}
 80048b0:	20000004 	.word	0x20000004
 80048b4:	431bde83 	.word	0x431bde83
 80048b8:	40010800 	.word	0x40010800
 80048bc:	40000400 	.word	0x40000400
 80048c0:	20000ec8 	.word	0x20000ec8
 80048c4:	08007164 	.word	0x08007164

080048c8 <Scan>:
 80048c8:	b580      	push	{r7, lr}
 80048ca:	b082      	sub	sp, #8
 80048cc:	af00      	add	r7, sp, #0
 80048ce:	6078      	str	r0, [r7, #4]
 80048d0:	4b45      	ldr	r3, [pc, #276]	; (80049e8 <Scan+0x120>)
 80048d2:	681a      	ldr	r2, [r3, #0]
 80048d4:	4b45      	ldr	r3, [pc, #276]	; (80049ec <Scan+0x124>)
 80048d6:	681b      	ldr	r3, [r3, #0]
 80048d8:	401a      	ands	r2, r3
 80048da:	4b44      	ldr	r3, [pc, #272]	; (80049ec <Scan+0x124>)
 80048dc:	681b      	ldr	r3, [r3, #0]
 80048de:	429a      	cmp	r2, r3
 80048e0:	d001      	beq.n	80048e6 <Scan+0x1e>
 80048e2:	f7ff ff45 	bl	8004770 <InitTimers>
 80048e6:	4b40      	ldr	r3, [pc, #256]	; (80049e8 <Scan+0x120>)
 80048e8:	681a      	ldr	r2, [r3, #0]
 80048ea:	4b41      	ldr	r3, [pc, #260]	; (80049f0 <Scan+0x128>)
 80048ec:	681b      	ldr	r3, [r3, #0]
 80048ee:	401a      	ands	r2, r3
 80048f0:	4b3f      	ldr	r3, [pc, #252]	; (80049f0 <Scan+0x128>)
 80048f2:	681b      	ldr	r3, [r3, #0]
 80048f4:	429a      	cmp	r2, r3
 80048f6:	d001      	beq.n	80048fc <Scan+0x34>
 80048f8:	f7ff fee8 	bl	80046cc <InitEXTI>
 80048fc:	687b      	ldr	r3, [r7, #4]
 80048fe:	2b00      	cmp	r3, #0
 8004900:	d06d      	beq.n	80049de <Scan+0x116>
 8004902:	4b3c      	ldr	r3, [pc, #240]	; (80049f4 <Scan+0x12c>)
 8004904:	687a      	ldr	r2, [r7, #4]
 8004906:	601a      	str	r2, [r3, #0]
 8004908:	4b3a      	ldr	r3, [pc, #232]	; (80049f4 <Scan+0x12c>)
 800490a:	681b      	ldr	r3, [r3, #0]
 800490c:	4618      	mov	r0, r3
 800490e:	f04f 0100 	mov.w	r1, #0
 8004912:	f44f 6200 	mov.w	r2, #2048	; 0x800
 8004916:	f001 f89b 	bl	8005a50 <memset>
 800491a:	4b36      	ldr	r3, [pc, #216]	; (80049f4 <Scan+0x12c>)
 800491c:	681b      	ldr	r3, [r3, #0]
 800491e:	f103 0210 	add.w	r2, r3, #16
 8004922:	4b34      	ldr	r3, [pc, #208]	; (80049f4 <Scan+0x12c>)
 8004924:	681b      	ldr	r3, [r3, #0]
 8004926:	68db      	ldr	r3, [r3, #12]
 8004928:	ea4f 0383 	mov.w	r3, r3, lsl #2
 800492c:	18d2      	adds	r2, r2, r3
 800492e:	4b32      	ldr	r3, [pc, #200]	; (80049f8 <Scan+0x130>)
 8004930:	689b      	ldr	r3, [r3, #8]
 8004932:	f003 0301 	and.w	r3, r3, #1
 8004936:	b2db      	uxtb	r3, r3
 8004938:	2b00      	cmp	r3, #0
 800493a:	d002      	beq.n	8004942 <Scan+0x7a>
 800493c:	f04f 0300 	mov.w	r3, #0
 8004940:	e001      	b.n	8004946 <Scan+0x7e>
 8004942:	f04f 0301 	mov.w	r3, #1
 8004946:	4610      	mov	r0, r2
 8004948:	4619      	mov	r1, r3
 800494a:	f000 fa69 	bl	8004e20 <SetValue>
 800494e:	4b2b      	ldr	r3, [pc, #172]	; (80049fc <Scan+0x134>)
 8004950:	f04f 0200 	mov.w	r2, #0
 8004954:	601a      	str	r2, [r3, #0]
 8004956:	4b2a      	ldr	r3, [pc, #168]	; (8004a00 <Scan+0x138>)
 8004958:	f04f 0200 	mov.w	r2, #0
 800495c:	601a      	str	r2, [r3, #0]
 800495e:	4b29      	ldr	r3, [pc, #164]	; (8004a04 <Scan+0x13c>)
 8004960:	f04f 0200 	mov.w	r2, #0
 8004964:	801a      	strh	r2, [r3, #0]
 8004966:	f04f 4080 	mov.w	r0, #1073741824	; 0x40000000
 800496a:	f04f 0100 	mov.w	r1, #0
 800496e:	f7fc fef3 	bl	8001758 <TIM_SetCounter>
 8004972:	4825      	ldr	r0, [pc, #148]	; (8004a08 <Scan+0x140>)
 8004974:	f04f 0100 	mov.w	r1, #0
 8004978:	f7fc feee 	bl	8001758 <TIM_SetCounter>
 800497c:	f04f 4080 	mov.w	r0, #1073741824	; 0x40000000
 8004980:	f04f 0101 	mov.w	r1, #1
 8004984:	f7fc fe4c 	bl	8001620 <TIM_Cmd>
 8004988:	481f      	ldr	r0, [pc, #124]	; (8004a08 <Scan+0x140>)
 800498a:	f04f 0100 	mov.w	r1, #0
 800498e:	f7fc fe47 	bl	8001620 <TIM_Cmd>
 8004992:	f04f 4080 	mov.w	r0, #1073741824	; 0x40000000
 8004996:	f04f 0104 	mov.w	r1, #4
 800499a:	f7fc ff75 	bl	8001888 <TIM_ClearITPendingBit>
 800499e:	481a      	ldr	r0, [pc, #104]	; (8004a08 <Scan+0x140>)
 80049a0:	f04f 0101 	mov.w	r1, #1
 80049a4:	f7fc ff70 	bl	8001888 <TIM_ClearITPendingBit>
 80049a8:	f04f 0001 	mov.w	r0, #1
 80049ac:	f7fe ff98 	bl	80038e0 <EXTI_ClearITPendingBit>
 80049b0:	f04f 0001 	mov.w	r0, #1
 80049b4:	f7fe ff86 	bl	80038c4 <EXTI_ClearFlag>
 80049b8:	f04f 001d 	mov.w	r0, #29
 80049bc:	f7ff fe16 	bl	80045ec <NVIC_EnableIRQ>
 80049c0:	f04f 0006 	mov.w	r0, #6
 80049c4:	f7ff fe12 	bl	80045ec <NVIC_EnableIRQ>
 80049c8:	4b10      	ldr	r3, [pc, #64]	; (8004a0c <Scan+0x144>)
 80049ca:	4a10      	ldr	r2, [pc, #64]	; (8004a0c <Scan+0x144>)
 80049cc:	6812      	ldr	r2, [r2, #0]
 80049ce:	f042 0201 	orr.w	r2, r2, #1
 80049d2:	601a      	str	r2, [r3, #0]
 80049d4:	4b0e      	ldr	r3, [pc, #56]	; (8004a10 <Scan+0x148>)
 80049d6:	f04f 0201 	mov.w	r2, #1
 80049da:	601a      	str	r2, [r3, #0]
 80049dc:	e000      	b.n	80049e0 <Scan+0x118>
 80049de:	bf00      	nop
 80049e0:	f107 0708 	add.w	r7, r7, #8
 80049e4:	46bd      	mov	sp, r7
 80049e6:	bd80      	pop	{r7, pc}
 80049e8:	20000ec8 	.word	0x20000ec8
 80049ec:	08007164 	.word	0x08007164
 80049f0:	08007160 	.word	0x08007160
 80049f4:	20000ecc 	.word	0x20000ecc
 80049f8:	40011000 	.word	0x40011000
 80049fc:	20000ed4 	.word	0x20000ed4
 8004a00:	20000edc 	.word	0x20000edc
 8004a04:	20000ed8 	.word	0x20000ed8
 8004a08:	40000400 	.word	0x40000400
 8004a0c:	40010400 	.word	0x40010400
 8004a10:	20000ed0 	.word	0x20000ed0

08004a14 <StopScan>:
 8004a14:	b598      	push	{r3, r4, r7, lr}
 8004a16:	af00      	add	r7, sp, #0
 8004a18:	f04f 001d 	mov.w	r0, #29
 8004a1c:	f7ff fe00 	bl	8004620 <NVIC_DisableIRQ>
 8004a20:	f04f 0006 	mov.w	r0, #6
 8004a24:	f7ff fdfc 	bl	8004620 <NVIC_DisableIRQ>
 8004a28:	4b11      	ldr	r3, [pc, #68]	; (8004a70 <StopScan+0x5c>)
 8004a2a:	4a11      	ldr	r2, [pc, #68]	; (8004a70 <StopScan+0x5c>)
 8004a2c:	6812      	ldr	r2, [r2, #0]
 8004a2e:	f022 0201 	bic.w	r2, r2, #1
 8004a32:	601a      	str	r2, [r3, #0]
 8004a34:	f04f 4080 	mov.w	r0, #1073741824	; 0x40000000
 8004a38:	f04f 0100 	mov.w	r1, #0
 8004a3c:	f7fc fdf0 	bl	8001620 <TIM_Cmd>
 8004a40:	480c      	ldr	r0, [pc, #48]	; (8004a74 <StopScan+0x60>)
 8004a42:	f04f 0100 	mov.w	r1, #0
 8004a46:	f7fc fdeb 	bl	8001620 <TIM_Cmd>
 8004a4a:	4b0b      	ldr	r3, [pc, #44]	; (8004a78 <StopScan+0x64>)
 8004a4c:	681b      	ldr	r3, [r3, #0]
 8004a4e:	2b00      	cmp	r3, #0
 8004a50:	d008      	beq.n	8004a64 <StopScan+0x50>
 8004a52:	4b09      	ldr	r3, [pc, #36]	; (8004a78 <StopScan+0x64>)
 8004a54:	681c      	ldr	r4, [r3, #0]
 8004a56:	4b09      	ldr	r3, [pc, #36]	; (8004a7c <StopScan+0x68>)
 8004a58:	681b      	ldr	r3, [r3, #0]
 8004a5a:	4618      	mov	r0, r3
 8004a5c:	f000 f96c 	bl	8004d38 <GetFrequencyInterval>
 8004a60:	4603      	mov	r3, r0
 8004a62:	60a3      	str	r3, [r4, #8]
 8004a64:	4b06      	ldr	r3, [pc, #24]	; (8004a80 <StopScan+0x6c>)
 8004a66:	f04f 0200 	mov.w	r2, #0
 8004a6a:	601a      	str	r2, [r3, #0]
 8004a6c:	bd98      	pop	{r3, r4, r7, pc}
 8004a6e:	bf00      	nop
 8004a70:	40010400 	.word	0x40010400
 8004a74:	40000400 	.word	0x40000400
 8004a78:	20000ecc 	.word	0x20000ecc
 8004a7c:	20000edc 	.word	0x20000edc
 8004a80:	20000ed0 	.word	0x20000ed0

08004a84 <EXTI0_IRQHandler>:
 8004a84:	b580      	push	{r7, lr}
 8004a86:	b084      	sub	sp, #16
 8004a88:	af00      	add	r7, sp, #0
 8004a8a:	4b42      	ldr	r3, [pc, #264]	; (8004b94 <EXTI0_IRQHandler+0x110>)
 8004a8c:	681b      	ldr	r3, [r3, #0]
 8004a8e:	2b00      	cmp	r3, #0
 8004a90:	d077      	beq.n	8004b82 <EXTI0_IRQHandler+0xfe>
 8004a92:	4b41      	ldr	r3, [pc, #260]	; (8004b98 <EXTI0_IRQHandler+0x114>)
 8004a94:	681b      	ldr	r3, [r3, #0]
 8004a96:	2b00      	cmp	r3, #0
 8004a98:	d073      	beq.n	8004b82 <EXTI0_IRQHandler+0xfe>
 8004a9a:	4840      	ldr	r0, [pc, #256]	; (8004b9c <EXTI0_IRQHandler+0x118>)
 8004a9c:	f04f 0100 	mov.w	r1, #0
 8004aa0:	f7fc fdbe 	bl	8001620 <TIM_Cmd>
 8004aa4:	4b3b      	ldr	r3, [pc, #236]	; (8004b94 <EXTI0_IRQHandler+0x110>)
 8004aa6:	681b      	ldr	r3, [r3, #0]
 8004aa8:	68db      	ldr	r3, [r3, #12]
 8004aaa:	60fb      	str	r3, [r7, #12]
 8004aac:	483b      	ldr	r0, [pc, #236]	; (8004b9c <EXTI0_IRQHandler+0x118>)
 8004aae:	f7fc feab 	bl	8001808 <TIM_GetCounter>
 8004ab2:	4603      	mov	r3, r0
 8004ab4:	60bb      	str	r3, [r7, #8]
 8004ab6:	4b37      	ldr	r3, [pc, #220]	; (8004b94 <EXTI0_IRQHandler+0x110>)
 8004ab8:	681b      	ldr	r3, [r3, #0]
 8004aba:	68fa      	ldr	r2, [r7, #12]
 8004abc:	f102 0204 	add.w	r2, r2, #4
 8004ac0:	f853 3022 	ldr.w	r3, [r3, r2, lsl #2]
 8004ac4:	4618      	mov	r0, r3
 8004ac6:	f000 f9cd 	bl	8004e64 <GetTime>
 8004aca:	6078      	str	r0, [r7, #4]
 8004acc:	4b31      	ldr	r3, [pc, #196]	; (8004b94 <EXTI0_IRQHandler+0x110>)
 8004ace:	681b      	ldr	r3, [r3, #0]
 8004ad0:	f103 0210 	add.w	r2, r3, #16
 8004ad4:	68fb      	ldr	r3, [r7, #12]
 8004ad6:	ea4f 0383 	mov.w	r3, r3, lsl #2
 8004ada:	18d2      	adds	r2, r2, r3
 8004adc:	68fb      	ldr	r3, [r7, #12]
 8004ade:	f103 0301 	add.w	r3, r3, #1
 8004ae2:	60fb      	str	r3, [r7, #12]
 8004ae4:	6879      	ldr	r1, [r7, #4]
 8004ae6:	68bb      	ldr	r3, [r7, #8]
 8004ae8:	18cb      	adds	r3, r1, r3
 8004aea:	4610      	mov	r0, r2
 8004aec:	4619      	mov	r1, r3
 8004aee:	f000 f977 	bl	8004de0 <SetTime>
 8004af2:	4b28      	ldr	r3, [pc, #160]	; (8004b94 <EXTI0_IRQHandler+0x110>)
 8004af4:	681b      	ldr	r3, [r3, #0]
 8004af6:	f103 0210 	add.w	r2, r3, #16
 8004afa:	68fb      	ldr	r3, [r7, #12]
 8004afc:	ea4f 0383 	mov.w	r3, r3, lsl #2
 8004b00:	18d3      	adds	r3, r2, r3
 8004b02:	4618      	mov	r0, r3
 8004b04:	f04f 0100 	mov.w	r1, #0
 8004b08:	f000 f96a 	bl	8004de0 <SetTime>
 8004b0c:	4b21      	ldr	r3, [pc, #132]	; (8004b94 <EXTI0_IRQHandler+0x110>)
 8004b0e:	681b      	ldr	r3, [r3, #0]
 8004b10:	f103 0210 	add.w	r2, r3, #16
 8004b14:	68fb      	ldr	r3, [r7, #12]
 8004b16:	ea4f 0383 	mov.w	r3, r3, lsl #2
 8004b1a:	18d2      	adds	r2, r2, r3
 8004b1c:	4b20      	ldr	r3, [pc, #128]	; (8004ba0 <EXTI0_IRQHandler+0x11c>)
 8004b1e:	689b      	ldr	r3, [r3, #8]
 8004b20:	f003 0301 	and.w	r3, r3, #1
 8004b24:	b2db      	uxtb	r3, r3
 8004b26:	2b00      	cmp	r3, #0
 8004b28:	d002      	beq.n	8004b30 <EXTI0_IRQHandler+0xac>
 8004b2a:	f04f 0300 	mov.w	r3, #0
 8004b2e:	e001      	b.n	8004b34 <EXTI0_IRQHandler+0xb0>
 8004b30:	f04f 0301 	mov.w	r3, #1
 8004b34:	4610      	mov	r0, r2
 8004b36:	4619      	mov	r1, r3
 8004b38:	f000 f972 	bl	8004e20 <SetValue>
 8004b3c:	4b15      	ldr	r3, [pc, #84]	; (8004b94 <EXTI0_IRQHandler+0x110>)
 8004b3e:	681b      	ldr	r3, [r3, #0]
 8004b40:	68fa      	ldr	r2, [r7, #12]
 8004b42:	60da      	str	r2, [r3, #12]
 8004b44:	4815      	ldr	r0, [pc, #84]	; (8004b9c <EXTI0_IRQHandler+0x118>)
 8004b46:	f04f 0100 	mov.w	r1, #0
 8004b4a:	f7fc fe05 	bl	8001758 <TIM_SetCounter>
 8004b4e:	4813      	ldr	r0, [pc, #76]	; (8004b9c <EXTI0_IRQHandler+0x118>)
 8004b50:	f04f 0101 	mov.w	r1, #1
 8004b54:	f7fc fd64 	bl	8001620 <TIM_Cmd>
 8004b58:	4b12      	ldr	r3, [pc, #72]	; (8004ba4 <EXTI0_IRQHandler+0x120>)
 8004b5a:	681a      	ldr	r2, [r3, #0]
 8004b5c:	68bb      	ldr	r3, [r7, #8]
 8004b5e:	18d2      	adds	r2, r2, r3
 8004b60:	4b10      	ldr	r3, [pc, #64]	; (8004ba4 <EXTI0_IRQHandler+0x120>)
 8004b62:	601a      	str	r2, [r3, #0]
 8004b64:	4b0f      	ldr	r3, [pc, #60]	; (8004ba4 <EXTI0_IRQHandler+0x120>)
 8004b66:	681a      	ldr	r2, [r3, #0]
 8004b68:	4b0f      	ldr	r3, [pc, #60]	; (8004ba8 <EXTI0_IRQHandler+0x124>)
 8004b6a:	681b      	ldr	r3, [r3, #0]
 8004b6c:	429a      	cmp	r2, r3
 8004b6e:	d806      	bhi.n	8004b7e <EXTI0_IRQHandler+0xfa>
 8004b70:	4b08      	ldr	r3, [pc, #32]	; (8004b94 <EXTI0_IRQHandler+0x110>)
 8004b72:	681b      	ldr	r3, [r3, #0]
 8004b74:	68da      	ldr	r2, [r3, #12]
 8004b76:	f240 13fb 	movw	r3, #507	; 0x1fb
 8004b7a:	429a      	cmp	r2, r3
 8004b7c:	d901      	bls.n	8004b82 <EXTI0_IRQHandler+0xfe>
 8004b7e:	f7ff ff49 	bl	8004a14 <StopScan>
 8004b82:	4b0a      	ldr	r3, [pc, #40]	; (8004bac <EXTI0_IRQHandler+0x128>)
 8004b84:	f04f 0201 	mov.w	r2, #1
 8004b88:	615a      	str	r2, [r3, #20]
 8004b8a:	f107 0710 	add.w	r7, r7, #16
 8004b8e:	46bd      	mov	sp, r7
 8004b90:	bd80      	pop	{r7, pc}
 8004b92:	bf00      	nop
 8004b94:	20000ecc 	.word	0x20000ecc
 8004b98:	20000ed0 	.word	0x20000ed0
 8004b9c:	40000400 	.word	0x40000400
 8004ba0:	40011000 	.word	0x40011000
 8004ba4:	20000ed4 	.word	0x20000ed4
 8004ba8:	08007168 	.word	0x08007168
 8004bac:	40010400 	.word	0x40010400

08004bb0 <TIM3_IRQHandler>:
 8004bb0:	b580      	push	{r7, lr}
 8004bb2:	b082      	sub	sp, #8
 8004bb4:	af00      	add	r7, sp, #0
 8004bb6:	4b23      	ldr	r3, [pc, #140]	; (8004c44 <TIM3_IRQHandler+0x94>)
 8004bb8:	681b      	ldr	r3, [r3, #0]
 8004bba:	2b00      	cmp	r3, #0
 8004bbc:	d038      	beq.n	8004c30 <TIM3_IRQHandler+0x80>
 8004bbe:	4b22      	ldr	r3, [pc, #136]	; (8004c48 <TIM3_IRQHandler+0x98>)
 8004bc0:	681b      	ldr	r3, [r3, #0]
 8004bc2:	2b00      	cmp	r3, #0
 8004bc4:	d034      	beq.n	8004c30 <TIM3_IRQHandler+0x80>
 8004bc6:	4b1f      	ldr	r3, [pc, #124]	; (8004c44 <TIM3_IRQHandler+0x94>)
 8004bc8:	681b      	ldr	r3, [r3, #0]
 8004bca:	4a1e      	ldr	r2, [pc, #120]	; (8004c44 <TIM3_IRQHandler+0x94>)
 8004bcc:	6812      	ldr	r2, [r2, #0]
 8004bce:	68d2      	ldr	r2, [r2, #12]
 8004bd0:	f102 0204 	add.w	r2, r2, #4
 8004bd4:	f853 3022 	ldr.w	r3, [r3, r2, lsl #2]
 8004bd8:	4618      	mov	r0, r3
 8004bda:	f000 f943 	bl	8004e64 <GetTime>
 8004bde:	6078      	str	r0, [r7, #4]
 8004be0:	4b18      	ldr	r3, [pc, #96]	; (8004c44 <TIM3_IRQHandler+0x94>)
 8004be2:	681b      	ldr	r3, [r3, #0]
 8004be4:	f103 0210 	add.w	r2, r3, #16
 8004be8:	4b16      	ldr	r3, [pc, #88]	; (8004c44 <TIM3_IRQHandler+0x94>)
 8004bea:	681b      	ldr	r3, [r3, #0]
 8004bec:	68db      	ldr	r3, [r3, #12]
 8004bee:	ea4f 0383 	mov.w	r3, r3, lsl #2
 8004bf2:	18d2      	adds	r2, r2, r3
 8004bf4:	6879      	ldr	r1, [r7, #4]
 8004bf6:	f64f 73ff 	movw	r3, #65535	; 0xffff
 8004bfa:	18cb      	adds	r3, r1, r3
 8004bfc:	4610      	mov	r0, r2
 8004bfe:	4619      	mov	r1, r3
 8004c00:	f000 f8ee 	bl	8004de0 <SetTime>
 8004c04:	4b11      	ldr	r3, [pc, #68]	; (8004c4c <TIM3_IRQHandler+0x9c>)
 8004c06:	681a      	ldr	r2, [r3, #0]
 8004c08:	4b11      	ldr	r3, [pc, #68]	; (8004c50 <TIM3_IRQHandler+0xa0>)
 8004c0a:	681b      	ldr	r3, [r3, #0]
 8004c0c:	18d2      	adds	r2, r2, r3
 8004c0e:	4b0f      	ldr	r3, [pc, #60]	; (8004c4c <TIM3_IRQHandler+0x9c>)
 8004c10:	601a      	str	r2, [r3, #0]
 8004c12:	4b0e      	ldr	r3, [pc, #56]	; (8004c4c <TIM3_IRQHandler+0x9c>)
 8004c14:	681a      	ldr	r2, [r3, #0]
 8004c16:	4b0f      	ldr	r3, [pc, #60]	; (8004c54 <TIM3_IRQHandler+0xa4>)
 8004c18:	681b      	ldr	r3, [r3, #0]
 8004c1a:	429a      	cmp	r2, r3
 8004c1c:	d806      	bhi.n	8004c2c <TIM3_IRQHandler+0x7c>
 8004c1e:	4b09      	ldr	r3, [pc, #36]	; (8004c44 <TIM3_IRQHandler+0x94>)
 8004c20:	681b      	ldr	r3, [r3, #0]
 8004c22:	68da      	ldr	r2, [r3, #12]
 8004c24:	f240 13fb 	movw	r3, #507	; 0x1fb
 8004c28:	429a      	cmp	r2, r3
 8004c2a:	d901      	bls.n	8004c30 <TIM3_IRQHandler+0x80>
 8004c2c:	f7ff fef2 	bl	8004a14 <StopScan>
 8004c30:	4809      	ldr	r0, [pc, #36]	; (8004c58 <TIM3_IRQHandler+0xa8>)
 8004c32:	f04f 0101 	mov.w	r1, #1
 8004c36:	f7fc fe27 	bl	8001888 <TIM_ClearITPendingBit>
 8004c3a:	f107 0708 	add.w	r7, r7, #8
 8004c3e:	46bd      	mov	sp, r7
 8004c40:	bd80      	pop	{r7, pc}
 8004c42:	bf00      	nop
 8004c44:	20000ecc 	.word	0x20000ecc
 8004c48:	20000ed0 	.word	0x20000ed0
 8004c4c:	20000ed4 	.word	0x20000ed4
 8004c50:	0800716c 	.word	0x0800716c
 8004c54:	08007168 	.word	0x08007168
 8004c58:	40000400 	.word	0x40000400

08004c5c <TIM2_IRQHandler>:
 8004c5c:	b580      	push	{r7, lr}
 8004c5e:	b082      	sub	sp, #8
 8004c60:	af00      	add	r7, sp, #0
 8004c62:	f04f 4080 	mov.w	r0, #1073741824	; 0x40000000
 8004c66:	f04f 0104 	mov.w	r1, #4
 8004c6a:	f7fc fe0d 	bl	8001888 <TIM_ClearITPendingBit>
 8004c6e:	f04f 4080 	mov.w	r0, #1073741824	; 0x40000000
 8004c72:	f7fc fdbb 	bl	80017ec <TIM_GetCapture2>
 8004c76:	4603      	mov	r3, r0
 8004c78:	80fb      	strh	r3, [r7, #6]
 8004c7a:	88fb      	ldrh	r3, [r7, #6]
 8004c7c:	2b00      	cmp	r3, #0
 8004c7e:	d035      	beq.n	8004cec <TIM2_IRQHandler+0x90>
 8004c80:	4b20      	ldr	r3, [pc, #128]	; (8004d04 <TIM2_IRQHandler+0xa8>)
 8004c82:	681a      	ldr	r2, [r3, #0]
 8004c84:	88fb      	ldrh	r3, [r7, #6]
 8004c86:	fbb2 f3f3 	udiv	r3, r2, r3
 8004c8a:	4618      	mov	r0, r3
 8004c8c:	f000 f854 	bl	8004d38 <GetFrequencyInterval>
 8004c90:	6038      	str	r0, [r7, #0]
 8004c92:	683b      	ldr	r3, [r7, #0]
 8004c94:	2b00      	cmp	r3, #0
 8004c96:	d024      	beq.n	8004ce2 <TIM2_IRQHandler+0x86>
 8004c98:	4b1b      	ldr	r3, [pc, #108]	; (8004d08 <TIM2_IRQHandler+0xac>)
 8004c9a:	881b      	ldrh	r3, [r3, #0]
 8004c9c:	b29a      	uxth	r2, r3
 8004c9e:	4b1b      	ldr	r3, [pc, #108]	; (8004d0c <TIM2_IRQHandler+0xb0>)
 8004ca0:	881b      	ldrh	r3, [r3, #0]
 8004ca2:	429a      	cmp	r2, r3
 8004ca4:	d22a      	bcs.n	8004cfc <TIM2_IRQHandler+0xa0>
 8004ca6:	4b1a      	ldr	r3, [pc, #104]	; (8004d10 <TIM2_IRQHandler+0xb4>)
 8004ca8:	681b      	ldr	r3, [r3, #0]
 8004caa:	683a      	ldr	r2, [r7, #0]
 8004cac:	429a      	cmp	r2, r3
 8004cae:	d106      	bne.n	8004cbe <TIM2_IRQHandler+0x62>
 8004cb0:	4b15      	ldr	r3, [pc, #84]	; (8004d08 <TIM2_IRQHandler+0xac>)
 8004cb2:	881b      	ldrh	r3, [r3, #0]
 8004cb4:	b29b      	uxth	r3, r3
 8004cb6:	f103 0301 	add.w	r3, r3, #1
 8004cba:	b29b      	uxth	r3, r3
 8004cbc:	e001      	b.n	8004cc2 <TIM2_IRQHandler+0x66>
 8004cbe:	f04f 0300 	mov.w	r3, #0
 8004cc2:	4a11      	ldr	r2, [pc, #68]	; (8004d08 <TIM2_IRQHandler+0xac>)
 8004cc4:	8013      	strh	r3, [r2, #0]
 8004cc6:	4b12      	ldr	r3, [pc, #72]	; (8004d10 <TIM2_IRQHandler+0xb4>)
 8004cc8:	683a      	ldr	r2, [r7, #0]
 8004cca:	601a      	str	r2, [r3, #0]
 8004ccc:	4b0e      	ldr	r3, [pc, #56]	; (8004d08 <TIM2_IRQHandler+0xac>)
 8004cce:	881b      	ldrh	r3, [r3, #0]
 8004cd0:	b29a      	uxth	r2, r3
 8004cd2:	4b0e      	ldr	r3, [pc, #56]	; (8004d0c <TIM2_IRQHandler+0xb0>)
 8004cd4:	881b      	ldrh	r3, [r3, #0]
 8004cd6:	429a      	cmp	r2, r3
 8004cd8:	d310      	bcc.n	8004cfc <TIM2_IRQHandler+0xa0>
 8004cda:	4b0e      	ldr	r3, [pc, #56]	; (8004d14 <TIM2_IRQHandler+0xb8>)
 8004cdc:	683a      	ldr	r2, [r7, #0]
 8004cde:	601a      	str	r2, [r3, #0]
 8004ce0:	e00c      	b.n	8004cfc <TIM2_IRQHandler+0xa0>
 8004ce2:	4b09      	ldr	r3, [pc, #36]	; (8004d08 <TIM2_IRQHandler+0xac>)
 8004ce4:	f04f 0200 	mov.w	r2, #0
 8004ce8:	801a      	strh	r2, [r3, #0]
 8004cea:	e007      	b.n	8004cfc <TIM2_IRQHandler+0xa0>
 8004cec:	4b08      	ldr	r3, [pc, #32]	; (8004d10 <TIM2_IRQHandler+0xb4>)
 8004cee:	f04f 0200 	mov.w	r2, #0
 8004cf2:	601a      	str	r2, [r3, #0]
 8004cf4:	4b04      	ldr	r3, [pc, #16]	; (8004d08 <TIM2_IRQHandler+0xac>)
 8004cf6:	f04f 0200 	mov.w	r2, #0
 8004cfa:	801a      	strh	r2, [r3, #0]
 8004cfc:	f107 0708 	add.w	r7, r7, #8
 8004d00:	46bd      	mov	sp, r7
 8004d02:	bd80      	pop	{r7, pc}
 8004d04:	20000004 	.word	0x20000004
 8004d08:	20000ed8 	.word	0x20000ed8
 8004d0c:	08007170 	.word	0x08007170
 8004d10:	20000ee0 	.word	0x20000ee0
 8004d14:	20000edc 	.word	0x20000edc

08004d18 <min>:
 8004d18:	b480      	push	{r7}
 8004d1a:	b083      	sub	sp, #12
 8004d1c:	af00      	add	r7, sp, #0
 8004d1e:	6078      	str	r0, [r7, #4]
 8004d20:	6039      	str	r1, [r7, #0]
 8004d22:	683a      	ldr	r2, [r7, #0]
 8004d24:	687b      	ldr	r3, [r7, #4]
 8004d26:	429a      	cmp	r2, r3
 8004d28:	bf38      	it	cc
 8004d2a:	4613      	movcc	r3, r2
 8004d2c:	4618      	mov	r0, r3
 8004d2e:	f107 070c 	add.w	r7, r7, #12
 8004d32:	46bd      	mov	sp, r7
 8004d34:	bc80      	pop	{r7}
 8004d36:	4770      	bx	lr

08004d38 <GetFrequencyInterval>:
 8004d38:	b480      	push	{r7}
 8004d3a:	b087      	sub	sp, #28
 8004d3c:	af00      	add	r7, sp, #0
 8004d3e:	6078      	str	r0, [r7, #4]
 8004d40:	f04f 0300 	mov.w	r3, #0
 8004d44:	613b      	str	r3, [r7, #16]
 8004d46:	f04f 0300 	mov.w	r3, #0
 8004d4a:	60fb      	str	r3, [r7, #12]
 8004d4c:	f04f 0300 	mov.w	r3, #0
 8004d50:	617b      	str	r3, [r7, #20]
 8004d52:	e032      	b.n	8004dba <GetFrequencyInterval+0x82>
 8004d54:	4b20      	ldr	r3, [pc, #128]	; (8004dd8 <GetFrequencyInterval+0xa0>)
 8004d56:	697a      	ldr	r2, [r7, #20]
 8004d58:	f853 2022 	ldr.w	r2, [r3, r2, lsl #2]
 8004d5c:	687b      	ldr	r3, [r7, #4]
 8004d5e:	1ad3      	subs	r3, r2, r3
 8004d60:	2b00      	cmp	r3, #0
 8004d62:	bfb8      	it	lt
 8004d64:	425b      	neglt	r3, r3
 8004d66:	613b      	str	r3, [r7, #16]
 8004d68:	697b      	ldr	r3, [r7, #20]
 8004d6a:	f103 0201 	add.w	r2, r3, #1
 8004d6e:	4b1a      	ldr	r3, [pc, #104]	; (8004dd8 <GetFrequencyInterval+0xa0>)
 8004d70:	f853 2022 	ldr.w	r2, [r3, r2, lsl #2]
 8004d74:	687b      	ldr	r3, [r7, #4]
 8004d76:	1ad3      	subs	r3, r2, r3
 8004d78:	2b00      	cmp	r3, #0
 8004d7a:	bfb8      	it	lt
 8004d7c:	425b      	neglt	r3, r3
 8004d7e:	60fb      	str	r3, [r7, #12]
 8004d80:	693b      	ldr	r3, [r7, #16]
 8004d82:	f5b3 7f7a 	cmp.w	r3, #1000	; 0x3e8
 8004d86:	d908      	bls.n	8004d9a <GetFrequencyInterval+0x62>
 8004d88:	68fb      	ldr	r3, [r7, #12]
 8004d8a:	f5b3 7f7a 	cmp.w	r3, #1000	; 0x3e8
 8004d8e:	d904      	bls.n	8004d9a <GetFrequencyInterval+0x62>
 8004d90:	697b      	ldr	r3, [r7, #20]
 8004d92:	f103 0301 	add.w	r3, r3, #1
 8004d96:	617b      	str	r3, [r7, #20]
 8004d98:	e00f      	b.n	8004dba <GetFrequencyInterval+0x82>
 8004d9a:	693a      	ldr	r2, [r7, #16]
 8004d9c:	68fb      	ldr	r3, [r7, #12]
 8004d9e:	429a      	cmp	r2, r3
 8004da0:	d204      	bcs.n	8004dac <GetFrequencyInterval+0x74>
 8004da2:	4b0d      	ldr	r3, [pc, #52]	; (8004dd8 <GetFrequencyInterval+0xa0>)
 8004da4:	697a      	ldr	r2, [r7, #20]
 8004da6:	f853 3022 	ldr.w	r3, [r3, r2, lsl #2]
 8004daa:	e005      	b.n	8004db8 <GetFrequencyInterval+0x80>
 8004dac:	697b      	ldr	r3, [r7, #20]
 8004dae:	f103 0201 	add.w	r2, r3, #1
 8004db2:	4b09      	ldr	r3, [pc, #36]	; (8004dd8 <GetFrequencyInterval+0xa0>)
 8004db4:	f853 3022 	ldr.w	r3, [r3, r2, lsl #2]
 8004db8:	e008      	b.n	8004dcc <GetFrequencyInterval+0x94>
 8004dba:	4b08      	ldr	r3, [pc, #32]	; (8004ddc <GetFrequencyInterval+0xa4>)
 8004dbc:	681b      	ldr	r3, [r3, #0]
 8004dbe:	f103 32ff 	add.w	r2, r3, #4294967295
 8004dc2:	697b      	ldr	r3, [r7, #20]
 8004dc4:	429a      	cmp	r2, r3
 8004dc6:	d8c5      	bhi.n	8004d54 <GetFrequencyInterval+0x1c>
 8004dc8:	f04f 0300 	mov.w	r3, #0
 8004dcc:	4618      	mov	r0, r3
 8004dce:	f107 071c 	add.w	r7, r7, #28
 8004dd2:	46bd      	mov	sp, r7
 8004dd4:	bc80      	pop	{r7}
 8004dd6:	4770      	bx	lr
 8004dd8:	0800717c 	.word	0x0800717c
 8004ddc:	080071bc 	.word	0x080071bc

08004de0 <SetTime>:
 8004de0:	b480      	push	{r7}
 8004de2:	b083      	sub	sp, #12
 8004de4:	af00      	add	r7, sp, #0
 8004de6:	6078      	str	r0, [r7, #4]
 8004de8:	6039      	str	r1, [r7, #0]
 8004dea:	687b      	ldr	r3, [r7, #4]
 8004dec:	681a      	ldr	r2, [r3, #0]
 8004dee:	4b0b      	ldr	r3, [pc, #44]	; (8004e1c <SetTime+0x3c>)
 8004df0:	681b      	ldr	r3, [r3, #0]
 8004df2:	ea6f 0303 	mvn.w	r3, r3
 8004df6:	401a      	ands	r2, r3
 8004df8:	687b      	ldr	r3, [r7, #4]
 8004dfa:	601a      	str	r2, [r3, #0]
 8004dfc:	687b      	ldr	r3, [r7, #4]
 8004dfe:	681a      	ldr	r2, [r3, #0]
 8004e00:	4b06      	ldr	r3, [pc, #24]	; (8004e1c <SetTime+0x3c>)
 8004e02:	6819      	ldr	r1, [r3, #0]
 8004e04:	683b      	ldr	r3, [r7, #0]
 8004e06:	ea01 0303 	and.w	r3, r1, r3
 8004e0a:	431a      	orrs	r2, r3
 8004e0c:	687b      	ldr	r3, [r7, #4]
 8004e0e:	601a      	str	r2, [r3, #0]
 8004e10:	f107 070c 	add.w	r7, r7, #12
 8004e14:	46bd      	mov	sp, r7
 8004e16:	bc80      	pop	{r7}
 8004e18:	4770      	bx	lr
 8004e1a:	bf00      	nop
 8004e1c:	080071c0 	.word	0x080071c0

08004e20 <SetValue>:
 8004e20:	b480      	push	{r7}
 8004e22:	b083      	sub	sp, #12
 8004e24:	af00      	add	r7, sp, #0
 8004e26:	6078      	str	r0, [r7, #4]
 8004e28:	460b      	mov	r3, r1
 8004e2a:	70fb      	strb	r3, [r7, #3]
 8004e2c:	78fb      	ldrb	r3, [r7, #3]
 8004e2e:	2b00      	cmp	r3, #0
 8004e30:	d006      	beq.n	8004e40 <SetValue+0x20>
 8004e32:	687b      	ldr	r3, [r7, #4]
 8004e34:	681a      	ldr	r2, [r3, #0]
 8004e36:	4b0a      	ldr	r3, [pc, #40]	; (8004e60 <SetValue+0x40>)
 8004e38:	681b      	ldr	r3, [r3, #0]
 8004e3a:	ea42 0303 	orr.w	r3, r2, r3
 8004e3e:	e007      	b.n	8004e50 <SetValue+0x30>
 8004e40:	687b      	ldr	r3, [r7, #4]
 8004e42:	681a      	ldr	r2, [r3, #0]
 8004e44:	4b06      	ldr	r3, [pc, #24]	; (8004e60 <SetValue+0x40>)
 8004e46:	681b      	ldr	r3, [r3, #0]
 8004e48:	ea6f 0303 	mvn.w	r3, r3
 8004e4c:	ea02 0303 	and.w	r3, r2, r3
 8004e50:	687a      	ldr	r2, [r7, #4]
 8004e52:	6013      	str	r3, [r2, #0]
 8004e54:	f107 070c 	add.w	r7, r7, #12
 8004e58:	46bd      	mov	sp, r7
 8004e5a:	bc80      	pop	{r7}
 8004e5c:	4770      	bx	lr
 8004e5e:	bf00      	nop
 8004e60:	080071c4 	.word	0x080071c4

08004e64 <GetTime>:
 8004e64:	b480      	push	{r7}
 8004e66:	b083      	sub	sp, #12
 8004e68:	af00      	add	r7, sp, #0
 8004e6a:	6078      	str	r0, [r7, #4]
 8004e6c:	4b05      	ldr	r3, [pc, #20]	; (8004e84 <GetTime+0x20>)
 8004e6e:	681a      	ldr	r2, [r3, #0]
 8004e70:	687b      	ldr	r3, [r7, #4]
 8004e72:	ea02 0303 	and.w	r3, r2, r3
 8004e76:	4618      	mov	r0, r3
 8004e78:	f107 070c 	add.w	r7, r7, #12
 8004e7c:	46bd      	mov	sp, r7
 8004e7e:	bc80      	pop	{r7}
 8004e80:	4770      	bx	lr
 8004e82:	bf00      	nop
 8004e84:	080071c0 	.word	0x080071c0

08004e88 <GetValue>:
 8004e88:	b480      	push	{r7}
 8004e8a:	b083      	sub	sp, #12
 8004e8c:	af00      	add	r7, sp, #0
 8004e8e:	6078      	str	r0, [r7, #4]
 8004e90:	4b08      	ldr	r3, [pc, #32]	; (8004eb4 <GetValue+0x2c>)
 8004e92:	681a      	ldr	r2, [r3, #0]
 8004e94:	687b      	ldr	r3, [r7, #4]
 8004e96:	401a      	ands	r2, r3
 8004e98:	4b06      	ldr	r3, [pc, #24]	; (8004eb4 <GetValue+0x2c>)
 8004e9a:	681b      	ldr	r3, [r3, #0]
 8004e9c:	429a      	cmp	r2, r3
 8004e9e:	bf14      	ite	ne
 8004ea0:	2300      	movne	r3, #0
 8004ea2:	2301      	moveq	r3, #1
 8004ea4:	b2db      	uxtb	r3, r3
 8004ea6:	4618      	mov	r0, r3
 8004ea8:	f107 070c 	add.w	r7, r7, #12
 8004eac:	46bd      	mov	sp, r7
 8004eae:	bc80      	pop	{r7}
 8004eb0:	4770      	bx	lr
 8004eb2:	bf00      	nop
 8004eb4:	080071c4 	.word	0x080071c4

08004eb8 <DebugPrint>:
 8004eb8:	b590      	push	{r4, r7, lr}
 8004eba:	b085      	sub	sp, #20
 8004ebc:	af00      	add	r7, sp, #0
 8004ebe:	6078      	str	r0, [r7, #4]
 8004ec0:	687b      	ldr	r3, [r7, #4]
 8004ec2:	2b00      	cmp	r3, #0
 8004ec4:	d04c      	beq.n	8004f60 <DebugPrint+0xa8>
 8004ec6:	687b      	ldr	r3, [r7, #4]
 8004ec8:	681b      	ldr	r3, [r3, #0]
 8004eca:	4828      	ldr	r0, [pc, #160]	; (8004f6c <DebugPrint+0xb4>)
 8004ecc:	4619      	mov	r1, r3
 8004ece:	f7fe fb19 	bl	8003504 <printf>
 8004ed2:	687b      	ldr	r3, [r7, #4]
 8004ed4:	689b      	ldr	r3, [r3, #8]
 8004ed6:	4826      	ldr	r0, [pc, #152]	; (8004f70 <DebugPrint+0xb8>)
 8004ed8:	4619      	mov	r1, r3
 8004eda:	f7fe fb13 	bl	8003504 <printf>
 8004ede:	687b      	ldr	r3, [r7, #4]
 8004ee0:	685b      	ldr	r3, [r3, #4]
 8004ee2:	b29b      	uxth	r3, r3
 8004ee4:	4823      	ldr	r0, [pc, #140]	; (8004f74 <DebugPrint+0xbc>)
 8004ee6:	4619      	mov	r1, r3
 8004ee8:	f7fe fb0c 	bl	8003504 <printf>
 8004eec:	687b      	ldr	r3, [r7, #4]
 8004eee:	68db      	ldr	r3, [r3, #12]
 8004ef0:	4821      	ldr	r0, [pc, #132]	; (8004f78 <DebugPrint+0xc0>)
 8004ef2:	4619      	mov	r1, r3
 8004ef4:	f7fe fb06 	bl	8003504 <printf>
 8004ef8:	687b      	ldr	r3, [r7, #4]
 8004efa:	68db      	ldr	r3, [r3, #12]
 8004efc:	f5b3 7ffe 	cmp.w	r3, #508	; 0x1fc
 8004f00:	d903      	bls.n	8004f0a <DebugPrint+0x52>
 8004f02:	481e      	ldr	r0, [pc, #120]	; (8004f7c <DebugPrint+0xc4>)
 8004f04:	f7fe fafe 	bl	8003504 <printf>
 8004f08:	e02b      	b.n	8004f62 <DebugPrint+0xaa>
 8004f0a:	f04f 0300 	mov.w	r3, #0
 8004f0e:	60fb      	str	r3, [r7, #12]
 8004f10:	e01d      	b.n	8004f4e <DebugPrint+0x96>
 8004f12:	687b      	ldr	r3, [r7, #4]
 8004f14:	68fa      	ldr	r2, [r7, #12]
 8004f16:	f102 0204 	add.w	r2, r2, #4
 8004f1a:	f853 3022 	ldr.w	r3, [r3, r2, lsl #2]
 8004f1e:	4618      	mov	r0, r3
 8004f20:	f7ff ffb2 	bl	8004e88 <GetValue>
 8004f24:	4603      	mov	r3, r0
 8004f26:	461c      	mov	r4, r3
 8004f28:	687b      	ldr	r3, [r7, #4]
 8004f2a:	68fa      	ldr	r2, [r7, #12]
 8004f2c:	f102 0204 	add.w	r2, r2, #4
 8004f30:	f853 3022 	ldr.w	r3, [r3, r2, lsl #2]
 8004f34:	4618      	mov	r0, r3
 8004f36:	f7ff ff95 	bl	8004e64 <GetTime>
 8004f3a:	4603      	mov	r3, r0
 8004f3c:	4810      	ldr	r0, [pc, #64]	; (8004f80 <DebugPrint+0xc8>)
 8004f3e:	68f9      	ldr	r1, [r7, #12]
 8004f40:	4622      	mov	r2, r4
 8004f42:	f7fe fadf 	bl	8003504 <printf>
 8004f46:	68fb      	ldr	r3, [r7, #12]
 8004f48:	f103 0301 	add.w	r3, r3, #1
 8004f4c:	60fb      	str	r3, [r7, #12]
 8004f4e:	687b      	ldr	r3, [r7, #4]
 8004f50:	68da      	ldr	r2, [r3, #12]
 8004f52:	68fb      	ldr	r3, [r7, #12]
 8004f54:	429a      	cmp	r2, r3
 8004f56:	d8dc      	bhi.n	8004f12 <DebugPrint+0x5a>
 8004f58:	480a      	ldr	r0, [pc, #40]	; (8004f84 <DebugPrint+0xcc>)
 8004f5a:	f7fe fad3 	bl	8003504 <printf>
 8004f5e:	e000      	b.n	8004f62 <DebugPrint+0xaa>
 8004f60:	bf00      	nop
 8004f62:	f107 0714 	add.w	r7, r7, #20
 8004f66:	46bd      	mov	sp, r7
 8004f68:	bd90      	pop	{r4, r7, pc}
 8004f6a:	bf00      	nop
 8004f6c:	080071c8 	.word	0x080071c8
 8004f70:	080071d8 	.word	0x080071d8
 8004f74:	080071f0 	.word	0x080071f0
 8004f78:	08007200 	.word	0x08007200
 8004f7c:	0800720c 	.word	0x0800720c
 8004f80:	0800722c 	.word	0x0800722c
 8004f84:	08007248 	.word	0x08007248

08004f88 <CheckIRCode>:
 8004f88:	b480      	push	{r7}
 8004f8a:	b083      	sub	sp, #12
 8004f8c:	af00      	add	r7, sp, #0
 8004f8e:	6078      	str	r0, [r7, #4]
 8004f90:	687b      	ldr	r3, [r7, #4]
 8004f92:	2b00      	cmp	r3, #0
 8004f94:	d102      	bne.n	8004f9c <CheckIRCode+0x14>
 8004f96:	f04f 0300 	mov.w	r3, #0
 8004f9a:	e028      	b.n	8004fee <CheckIRCode+0x66>
 8004f9c:	687b      	ldr	r3, [r7, #4]
 8004f9e:	68da      	ldr	r2, [r3, #12]
 8004fa0:	f240 13fb 	movw	r3, #507	; 0x1fb
 8004fa4:	429a      	cmp	r2, r3
 8004fa6:	d902      	bls.n	8004fae <CheckIRCode+0x26>
 8004fa8:	f04f 0300 	mov.w	r3, #0
 8004fac:	e01f      	b.n	8004fee <CheckIRCode+0x66>
 8004fae:	687b      	ldr	r3, [r7, #4]
 8004fb0:	689a      	ldr	r2, [r3, #8]
 8004fb2:	4b12      	ldr	r3, [pc, #72]	; (8004ffc <CheckIRCode+0x74>)
 8004fb4:	681b      	ldr	r3, [r3, #0]
 8004fb6:	429a      	cmp	r2, r3
 8004fb8:	d305      	bcc.n	8004fc6 <CheckIRCode+0x3e>
 8004fba:	687b      	ldr	r3, [r7, #4]
 8004fbc:	689a      	ldr	r2, [r3, #8]
 8004fbe:	4b10      	ldr	r3, [pc, #64]	; (8005000 <CheckIRCode+0x78>)
 8004fc0:	681b      	ldr	r3, [r3, #0]
 8004fc2:	429a      	cmp	r2, r3
 8004fc4:	d902      	bls.n	8004fcc <CheckIRCode+0x44>
 8004fc6:	f04f 0300 	mov.w	r3, #0
 8004fca:	e010      	b.n	8004fee <CheckIRCode+0x66>
 8004fcc:	687b      	ldr	r3, [r7, #4]
 8004fce:	689a      	ldr	r2, [r3, #8]
 8004fd0:	f648 439f 	movw	r3, #35999	; 0x8c9f
 8004fd4:	429a      	cmp	r2, r3
 8004fd6:	d905      	bls.n	8004fe4 <CheckIRCode+0x5c>
 8004fd8:	687b      	ldr	r3, [r7, #4]
 8004fda:	689a      	ldr	r2, [r3, #8]
 8004fdc:	f249 4370 	movw	r3, #38000	; 0x9470
 8004fe0:	429a      	cmp	r2, r3
 8004fe2:	d902      	bls.n	8004fea <CheckIRCode+0x62>
 8004fe4:	f04f 0300 	mov.w	r3, #0
 8004fe8:	e001      	b.n	8004fee <CheckIRCode+0x66>
 8004fea:	f04f 0301 	mov.w	r3, #1
 8004fee:	4618      	mov	r0, r3
 8004ff0:	f107 070c 	add.w	r7, r7, #12
 8004ff4:	46bd      	mov	sp, r7
 8004ff6:	bc80      	pop	{r7}
 8004ff8:	4770      	bx	lr
 8004ffa:	bf00      	nop
 8004ffc:	08007174 	.word	0x08007174
 8005000:	08007178 	.word	0x08007178

08005004 <IsEqual>:
 8005004:	b5f0      	push	{r4, r5, r6, r7, lr}
 8005006:	b089      	sub	sp, #36	; 0x24
 8005008:	af02      	add	r7, sp, #8
 800500a:	6078      	str	r0, [r7, #4]
 800500c:	6039      	str	r1, [r7, #0]
 800500e:	4b87      	ldr	r3, [pc, #540]	; (800522c <IsEqual+0x228>)
 8005010:	781b      	ldrb	r3, [r3, #0]
 8005012:	2b00      	cmp	r3, #0
 8005014:	d020      	beq.n	8005058 <IsEqual+0x54>
 8005016:	4886      	ldr	r0, [pc, #536]	; (8005230 <IsEqual+0x22c>)
 8005018:	f7fe fa74 	bl	8003504 <printf>
 800501c:	687b      	ldr	r3, [r7, #4]
 800501e:	2b00      	cmp	r3, #0
 8005020:	d00b      	beq.n	800503a <IsEqual+0x36>
 8005022:	687b      	ldr	r3, [r7, #4]
 8005024:	6819      	ldr	r1, [r3, #0]
 8005026:	687b      	ldr	r3, [r7, #4]
 8005028:	685a      	ldr	r2, [r3, #4]
 800502a:	687b      	ldr	r3, [r7, #4]
 800502c:	689b      	ldr	r3, [r3, #8]
 800502e:	6878      	ldr	r0, [r7, #4]
 8005030:	68c0      	ldr	r0, [r0, #12]
 8005032:	9000      	str	r0, [sp, #0]
 8005034:	487f      	ldr	r0, [pc, #508]	; (8005234 <IsEqual+0x230>)
 8005036:	f7fe fa65 	bl	8003504 <printf>
 800503a:	683b      	ldr	r3, [r7, #0]
 800503c:	2b00      	cmp	r3, #0
 800503e:	d00b      	beq.n	8005058 <IsEqual+0x54>
 8005040:	683b      	ldr	r3, [r7, #0]
 8005042:	6819      	ldr	r1, [r3, #0]
 8005044:	683b      	ldr	r3, [r7, #0]
 8005046:	685a      	ldr	r2, [r3, #4]
 8005048:	683b      	ldr	r3, [r7, #0]
 800504a:	689b      	ldr	r3, [r3, #8]
 800504c:	6838      	ldr	r0, [r7, #0]
 800504e:	68c0      	ldr	r0, [r0, #12]
 8005050:	9000      	str	r0, [sp, #0]
 8005052:	4878      	ldr	r0, [pc, #480]	; (8005234 <IsEqual+0x230>)
 8005054:	f7fe fa56 	bl	8003504 <printf>
 8005058:	6878      	ldr	r0, [r7, #4]
 800505a:	f7ff ff95 	bl	8004f88 <CheckIRCode>
 800505e:	4603      	mov	r3, r0
 8005060:	f083 0301 	eor.w	r3, r3, #1
 8005064:	b2db      	uxtb	r3, r3
 8005066:	2b00      	cmp	r3, #0
 8005068:	d002      	beq.n	8005070 <IsEqual+0x6c>
 800506a:	f04f 0300 	mov.w	r3, #0
 800506e:	e0d7      	b.n	8005220 <IsEqual+0x21c>
 8005070:	6838      	ldr	r0, [r7, #0]
 8005072:	f7ff ff89 	bl	8004f88 <CheckIRCode>
 8005076:	4603      	mov	r3, r0
 8005078:	f083 0301 	eor.w	r3, r3, #1
 800507c:	b2db      	uxtb	r3, r3
 800507e:	2b00      	cmp	r3, #0
 8005080:	d002      	beq.n	8005088 <IsEqual+0x84>
 8005082:	f04f 0300 	mov.w	r3, #0
 8005086:	e0cb      	b.n	8005220 <IsEqual+0x21c>
 8005088:	687b      	ldr	r3, [r7, #4]
 800508a:	68da      	ldr	r2, [r3, #12]
 800508c:	683b      	ldr	r3, [r7, #0]
 800508e:	68db      	ldr	r3, [r3, #12]
 8005090:	1ad3      	subs	r3, r2, r3
 8005092:	2b00      	cmp	r3, #0
 8005094:	bfb8      	it	lt
 8005096:	425b      	neglt	r3, r3
 8005098:	461a      	mov	r2, r3
 800509a:	4b67      	ldr	r3, [pc, #412]	; (8005238 <IsEqual+0x234>)
 800509c:	681b      	ldr	r3, [r3, #0]
 800509e:	429a      	cmp	r2, r3
 80050a0:	d902      	bls.n	80050a8 <IsEqual+0xa4>
 80050a2:	f04f 0300 	mov.w	r3, #0
 80050a6:	e0bb      	b.n	8005220 <IsEqual+0x21c>
 80050a8:	687b      	ldr	r3, [r7, #4]
 80050aa:	689a      	ldr	r2, [r3, #8]
 80050ac:	683b      	ldr	r3, [r7, #0]
 80050ae:	689b      	ldr	r3, [r3, #8]
 80050b0:	429a      	cmp	r2, r3
 80050b2:	d002      	beq.n	80050ba <IsEqual+0xb6>
 80050b4:	f04f 0300 	mov.w	r3, #0
 80050b8:	e0b2      	b.n	8005220 <IsEqual+0x21c>
 80050ba:	f04f 0300 	mov.w	r3, #0
 80050be:	617b      	str	r3, [r7, #20]
 80050c0:	f04f 0300 	mov.w	r3, #0
 80050c4:	60fb      	str	r3, [r7, #12]
 80050c6:	687b      	ldr	r3, [r7, #4]
 80050c8:	68da      	ldr	r2, [r3, #12]
 80050ca:	683b      	ldr	r3, [r7, #0]
 80050cc:	68db      	ldr	r3, [r3, #12]
 80050ce:	4610      	mov	r0, r2
 80050d0:	4619      	mov	r1, r3
 80050d2:	f7ff fe21 	bl	8004d18 <min>
 80050d6:	60b8      	str	r0, [r7, #8]
 80050d8:	f04f 0300 	mov.w	r3, #0
 80050dc:	613b      	str	r3, [r7, #16]
 80050de:	e08c      	b.n	80051fa <IsEqual+0x1f6>
 80050e0:	687b      	ldr	r3, [r7, #4]
 80050e2:	693a      	ldr	r2, [r7, #16]
 80050e4:	f102 0204 	add.w	r2, r2, #4
 80050e8:	f853 3022 	ldr.w	r3, [r3, r2, lsl #2]
 80050ec:	4618      	mov	r0, r3
 80050ee:	f7ff feb9 	bl	8004e64 <GetTime>
 80050f2:	4604      	mov	r4, r0
 80050f4:	683b      	ldr	r3, [r7, #0]
 80050f6:	693a      	ldr	r2, [r7, #16]
 80050f8:	f102 0204 	add.w	r2, r2, #4
 80050fc:	f853 3022 	ldr.w	r3, [r3, r2, lsl #2]
 8005100:	4618      	mov	r0, r3
 8005102:	f7ff feaf 	bl	8004e64 <GetTime>
 8005106:	4603      	mov	r3, r0
 8005108:	1ae3      	subs	r3, r4, r3
 800510a:	2b00      	cmp	r3, #0
 800510c:	bfb8      	it	lt
 800510e:	425b      	neglt	r3, r3
 8005110:	60fb      	str	r3, [r7, #12]
 8005112:	4b46      	ldr	r3, [pc, #280]	; (800522c <IsEqual+0x228>)
 8005114:	781b      	ldrb	r3, [r3, #0]
 8005116:	2b00      	cmp	r3, #0
 8005118:	d032      	beq.n	8005180 <IsEqual+0x17c>
 800511a:	687b      	ldr	r3, [r7, #4]
 800511c:	693a      	ldr	r2, [r7, #16]
 800511e:	f102 0204 	add.w	r2, r2, #4
 8005122:	f853 3022 	ldr.w	r3, [r3, r2, lsl #2]
 8005126:	4618      	mov	r0, r3
 8005128:	f7ff feae 	bl	8004e88 <GetValue>
 800512c:	4603      	mov	r3, r0
 800512e:	461e      	mov	r6, r3
 8005130:	687b      	ldr	r3, [r7, #4]
 8005132:	693a      	ldr	r2, [r7, #16]
 8005134:	f102 0204 	add.w	r2, r2, #4
 8005138:	f853 3022 	ldr.w	r3, [r3, r2, lsl #2]
 800513c:	4618      	mov	r0, r3
 800513e:	f7ff fe91 	bl	8004e64 <GetTime>
 8005142:	4605      	mov	r5, r0
 8005144:	683b      	ldr	r3, [r7, #0]
 8005146:	693a      	ldr	r2, [r7, #16]
 8005148:	f102 0204 	add.w	r2, r2, #4
 800514c:	f853 3022 	ldr.w	r3, [r3, r2, lsl #2]
 8005150:	4618      	mov	r0, r3
 8005152:	f7ff fe99 	bl	8004e88 <GetValue>
 8005156:	4603      	mov	r3, r0
 8005158:	461c      	mov	r4, r3
 800515a:	683b      	ldr	r3, [r7, #0]
 800515c:	693a      	ldr	r2, [r7, #16]
 800515e:	f102 0204 	add.w	r2, r2, #4
 8005162:	f853 3022 	ldr.w	r3, [r3, r2, lsl #2]
 8005166:	4618      	mov	r0, r3
 8005168:	f7ff fe7c 	bl	8004e64 <GetTime>
 800516c:	4603      	mov	r3, r0
 800516e:	9300      	str	r3, [sp, #0]
 8005170:	68fb      	ldr	r3, [r7, #12]
 8005172:	9301      	str	r3, [sp, #4]
 8005174:	4831      	ldr	r0, [pc, #196]	; (800523c <IsEqual+0x238>)
 8005176:	4631      	mov	r1, r6
 8005178:	462a      	mov	r2, r5
 800517a:	4623      	mov	r3, r4
 800517c:	f7fe f9c2 	bl	8003504 <printf>
 8005180:	687b      	ldr	r3, [r7, #4]
 8005182:	693a      	ldr	r2, [r7, #16]
 8005184:	f102 0204 	add.w	r2, r2, #4
 8005188:	f853 3022 	ldr.w	r3, [r3, r2, lsl #2]
 800518c:	4618      	mov	r0, r3
 800518e:	f7ff fe7b 	bl	8004e88 <GetValue>
 8005192:	4603      	mov	r3, r0
 8005194:	461c      	mov	r4, r3
 8005196:	683b      	ldr	r3, [r7, #0]
 8005198:	693a      	ldr	r2, [r7, #16]
 800519a:	f102 0204 	add.w	r2, r2, #4
 800519e:	f853 3022 	ldr.w	r3, [r3, r2, lsl #2]
 80051a2:	4618      	mov	r0, r3
 80051a4:	f7ff fe70 	bl	8004e88 <GetValue>
 80051a8:	4603      	mov	r3, r0
 80051aa:	429c      	cmp	r4, r3
 80051ac:	d00a      	beq.n	80051c4 <IsEqual+0x1c0>
 80051ae:	697b      	ldr	r3, [r7, #20]
 80051b0:	f103 0301 	add.w	r3, r3, #1
 80051b4:	617b      	str	r3, [r7, #20]
 80051b6:	4b1d      	ldr	r3, [pc, #116]	; (800522c <IsEqual+0x228>)
 80051b8:	781b      	ldrb	r3, [r3, #0]
 80051ba:	2b00      	cmp	r3, #0
 80051bc:	d002      	beq.n	80051c4 <IsEqual+0x1c0>
 80051be:	4820      	ldr	r0, [pc, #128]	; (8005240 <IsEqual+0x23c>)
 80051c0:	f7fe f9a0 	bl	8003504 <printf>
 80051c4:	4b1f      	ldr	r3, [pc, #124]	; (8005244 <IsEqual+0x240>)
 80051c6:	681b      	ldr	r3, [r3, #0]
 80051c8:	68fa      	ldr	r2, [r7, #12]
 80051ca:	429a      	cmp	r2, r3
 80051cc:	d90a      	bls.n	80051e4 <IsEqual+0x1e0>
 80051ce:	697b      	ldr	r3, [r7, #20]
 80051d0:	f103 0301 	add.w	r3, r3, #1
 80051d4:	617b      	str	r3, [r7, #20]
 80051d6:	4b15      	ldr	r3, [pc, #84]	; (800522c <IsEqual+0x228>)
 80051d8:	781b      	ldrb	r3, [r3, #0]
 80051da:	2b00      	cmp	r3, #0
 80051dc:	d002      	beq.n	80051e4 <IsEqual+0x1e0>
 80051de:	481a      	ldr	r0, [pc, #104]	; (8005248 <IsEqual+0x244>)
 80051e0:	f7fe f990 	bl	8003504 <printf>
 80051e4:	4b11      	ldr	r3, [pc, #68]	; (800522c <IsEqual+0x228>)
 80051e6:	781b      	ldrb	r3, [r3, #0]
 80051e8:	2b00      	cmp	r3, #0
 80051ea:	d002      	beq.n	80051f2 <IsEqual+0x1ee>
 80051ec:	4810      	ldr	r0, [pc, #64]	; (8005230 <IsEqual+0x22c>)
 80051ee:	f7fe f989 	bl	8003504 <printf>
 80051f2:	693b      	ldr	r3, [r7, #16]
 80051f4:	f103 0301 	add.w	r3, r3, #1
 80051f8:	613b      	str	r3, [r7, #16]
 80051fa:	693a      	ldr	r2, [r7, #16]
 80051fc:	68bb      	ldr	r3, [r7, #8]
 80051fe:	429a      	cmp	r2, r3
 8005200:	f4ff af6e 	bcc.w	80050e0 <IsEqual+0xdc>
 8005204:	4b09      	ldr	r3, [pc, #36]	; (800522c <IsEqual+0x228>)
 8005206:	781b      	ldrb	r3, [r3, #0]
 8005208:	2b00      	cmp	r3, #0
 800520a:	d003      	beq.n	8005214 <IsEqual+0x210>
 800520c:	480f      	ldr	r0, [pc, #60]	; (800524c <IsEqual+0x248>)
 800520e:	6979      	ldr	r1, [r7, #20]
 8005210:	f7fe f978 	bl	8003504 <printf>
 8005214:	697b      	ldr	r3, [r7, #20]
 8005216:	2b00      	cmp	r3, #0
 8005218:	bf14      	ite	ne
 800521a:	2300      	movne	r3, #0
 800521c:	2301      	moveq	r3, #1
 800521e:	b2db      	uxtb	r3, r3
 8005220:	4618      	mov	r0, r3
 8005222:	f107 071c 	add.w	r7, r7, #28
 8005226:	46bd      	mov	sp, r7
 8005228:	bdf0      	pop	{r4, r5, r6, r7, pc}
 800522a:	bf00      	nop
 800522c:	20000ee4 	.word	0x20000ee4
 8005230:	08007248 	.word	0x08007248
 8005234:	0800724c 	.word	0x0800724c
 8005238:	2000014c 	.word	0x2000014c
 800523c:	0800727c 	.word	0x0800727c
 8005240:	0800729c 	.word	0x0800729c
 8005244:	20000150 	.word	0x20000150
 8005248:	080072a0 	.word	0x080072a0
 800524c:	080072a4 	.word	0x080072a4

08005250 <atoi>:
 8005250:	2100      	movs	r1, #0
 8005252:	220a      	movs	r2, #10
 8005254:	f001 b8c2 	b.w	80063dc <strtol>

08005258 <_atoi_r>:
 8005258:	2200      	movs	r2, #0
 800525a:	230a      	movs	r3, #10
 800525c:	f001 b80c 	b.w	8006278 <_strtol_r>

08005260 <calloc>:
 8005260:	f240 1334 	movw	r3, #308	; 0x134
 8005264:	460a      	mov	r2, r1
 8005266:	f2c2 0300 	movt	r3, #8192	; 0x2000
 800526a:	4601      	mov	r1, r0
 800526c:	6818      	ldr	r0, [r3, #0]
 800526e:	f000 b801 	b.w	8005274 <_calloc_r>
 8005272:	bf00      	nop

08005274 <_calloc_r>:
 8005274:	b538      	push	{r3, r4, r5, lr}
 8005276:	fb01 f102 	mul.w	r1, r1, r2
 800527a:	f000 f829 	bl	80052d0 <_malloc_r>
 800527e:	4604      	mov	r4, r0
 8005280:	b1f8      	cbz	r0, 80052c2 <_calloc_r+0x4e>
 8005282:	f850 2c04 	ldr.w	r2, [r0, #-4]
 8005286:	f022 0203 	bic.w	r2, r2, #3
 800528a:	3a04      	subs	r2, #4
 800528c:	2a24      	cmp	r2, #36	; 0x24
 800528e:	d81a      	bhi.n	80052c6 <_calloc_r+0x52>
 8005290:	2a13      	cmp	r2, #19
 8005292:	4603      	mov	r3, r0
 8005294:	d90f      	bls.n	80052b6 <_calloc_r+0x42>
 8005296:	2100      	movs	r1, #0
 8005298:	f840 1b04 	str.w	r1, [r0], #4
 800529c:	1d03      	adds	r3, r0, #4
 800529e:	2a1b      	cmp	r2, #27
 80052a0:	6061      	str	r1, [r4, #4]
 80052a2:	d908      	bls.n	80052b6 <_calloc_r+0x42>
 80052a4:	1d1d      	adds	r5, r3, #4
 80052a6:	6041      	str	r1, [r0, #4]
 80052a8:	6059      	str	r1, [r3, #4]
 80052aa:	3308      	adds	r3, #8
 80052ac:	2a24      	cmp	r2, #36	; 0x24
 80052ae:	bf02      	ittt	eq
 80052b0:	6069      	streq	r1, [r5, #4]
 80052b2:	6059      	streq	r1, [r3, #4]
 80052b4:	3308      	addeq	r3, #8
 80052b6:	461a      	mov	r2, r3
 80052b8:	2100      	movs	r1, #0
 80052ba:	f842 1b04 	str.w	r1, [r2], #4
 80052be:	6059      	str	r1, [r3, #4]
 80052c0:	6051      	str	r1, [r2, #4]
 80052c2:	4620      	mov	r0, r4
 80052c4:	bd38      	pop	{r3, r4, r5, pc}
 80052c6:	2100      	movs	r1, #0
 80052c8:	f000 fbc2 	bl	8005a50 <memset>
 80052cc:	4620      	mov	r0, r4
 80052ce:	bd38      	pop	{r3, r4, r5, pc}

080052d0 <_malloc_r>:
 80052d0:	e92d 4ff0 	stmdb	sp!, {r4, r5, r6, r7, r8, r9, sl, fp, lr}
 80052d4:	f101 040b 	add.w	r4, r1, #11
 80052d8:	2c16      	cmp	r4, #22
 80052da:	b083      	sub	sp, #12
 80052dc:	4606      	mov	r6, r0
 80052de:	d931      	bls.n	8005344 <_malloc_r+0x74>
 80052e0:	f024 0407 	bic.w	r4, r4, #7
 80052e4:	0fe3      	lsrs	r3, r4, #31
 80052e6:	428c      	cmp	r4, r1
 80052e8:	bf2c      	ite	cs
 80052ea:	4619      	movcs	r1, r3
 80052ec:	f043 0101 	orrcc.w	r1, r3, #1
 80052f0:	2900      	cmp	r1, #0
 80052f2:	d130      	bne.n	8005356 <_malloc_r+0x86>
 80052f4:	4630      	mov	r0, r6
 80052f6:	f000 fc05 	bl	8005b04 <__malloc_lock>
 80052fa:	f5b4 7ffc 	cmp.w	r4, #504	; 0x1f8
 80052fe:	d22f      	bcs.n	8005360 <_malloc_r+0x90>
 8005300:	ea4f 0cd4 	mov.w	ip, r4, lsr #3
 8005304:	f240 1554 	movw	r5, #340	; 0x154
 8005308:	f2c2 0500 	movt	r5, #8192	; 0x2000
 800530c:	eb05 02cc 	add.w	r2, r5, ip, lsl #3
 8005310:	462f      	mov	r7, r5
 8005312:	68d3      	ldr	r3, [r2, #12]
 8005314:	4293      	cmp	r3, r2
 8005316:	f000 822d 	beq.w	8005774 <_malloc_r+0x4a4>
 800531a:	685c      	ldr	r4, [r3, #4]
 800531c:	f103 0808 	add.w	r8, r3, #8
 8005320:	68da      	ldr	r2, [r3, #12]
 8005322:	4630      	mov	r0, r6
 8005324:	f024 0403 	bic.w	r4, r4, #3
 8005328:	6899      	ldr	r1, [r3, #8]
 800532a:	191b      	adds	r3, r3, r4
 800532c:	685c      	ldr	r4, [r3, #4]
 800532e:	60ca      	str	r2, [r1, #12]
 8005330:	f044 0401 	orr.w	r4, r4, #1
 8005334:	6091      	str	r1, [r2, #8]
 8005336:	605c      	str	r4, [r3, #4]
 8005338:	f000 fbe6 	bl	8005b08 <__malloc_unlock>
 800533c:	4640      	mov	r0, r8
 800533e:	b003      	add	sp, #12
 8005340:	e8bd 8ff0 	ldmia.w	sp!, {r4, r5, r6, r7, r8, r9, sl, fp, pc}
 8005344:	2300      	movs	r3, #0
 8005346:	2410      	movs	r4, #16
 8005348:	428c      	cmp	r4, r1
 800534a:	bf2c      	ite	cs
 800534c:	4619      	movcs	r1, r3
 800534e:	f043 0101 	orrcc.w	r1, r3, #1
 8005352:	2900      	cmp	r1, #0
 8005354:	d0ce      	beq.n	80052f4 <_malloc_r+0x24>
 8005356:	230c      	movs	r3, #12
 8005358:	f04f 0800 	mov.w	r8, #0
 800535c:	6033      	str	r3, [r6, #0]
 800535e:	e7ed      	b.n	800533c <_malloc_r+0x6c>
 8005360:	ea5f 2c54 	movs.w	ip, r4, lsr #9
 8005364:	bf04      	itt	eq
 8005366:	ea4f 0cd4 	moveq.w	ip, r4, lsr #3
 800536a:	ea4f 00cc 	moveq.w	r0, ip, lsl #3
 800536e:	f040 8086 	bne.w	800547e <_malloc_r+0x1ae>
 8005372:	f240 1554 	movw	r5, #340	; 0x154
 8005376:	f2c2 0500 	movt	r5, #8192	; 0x2000
 800537a:	1828      	adds	r0, r5, r0
 800537c:	462f      	mov	r7, r5
 800537e:	68c3      	ldr	r3, [r0, #12]
 8005380:	4298      	cmp	r0, r3
 8005382:	d106      	bne.n	8005392 <_malloc_r+0xc2>
 8005384:	e00d      	b.n	80053a2 <_malloc_r+0xd2>
 8005386:	2900      	cmp	r1, #0
 8005388:	f280 8179 	bge.w	800567e <_malloc_r+0x3ae>
 800538c:	68db      	ldr	r3, [r3, #12]
 800538e:	4298      	cmp	r0, r3
 8005390:	d007      	beq.n	80053a2 <_malloc_r+0xd2>
 8005392:	685a      	ldr	r2, [r3, #4]
 8005394:	f022 0203 	bic.w	r2, r2, #3
 8005398:	1b11      	subs	r1, r2, r4
 800539a:	290f      	cmp	r1, #15
 800539c:	ddf3      	ble.n	8005386 <_malloc_r+0xb6>
 800539e:	f10c 3cff 	add.w	ip, ip, #4294967295
 80053a2:	f10c 0c01 	add.w	ip, ip, #1
 80053a6:	4abd      	ldr	r2, [pc, #756]	; (800569c <_malloc_r+0x3cc>)
 80053a8:	6893      	ldr	r3, [r2, #8]
 80053aa:	429a      	cmp	r2, r3
 80053ac:	bf08      	it	eq
 80053ae:	6878      	ldreq	r0, [r7, #4]
 80053b0:	d024      	beq.n	80053fc <_malloc_r+0x12c>
 80053b2:	6858      	ldr	r0, [r3, #4]
 80053b4:	f020 0003 	bic.w	r0, r0, #3
 80053b8:	1b01      	subs	r1, r0, r4
 80053ba:	290f      	cmp	r1, #15
 80053bc:	f300 81c0 	bgt.w	8005740 <_malloc_r+0x470>
 80053c0:	2900      	cmp	r1, #0
 80053c2:	60d2      	str	r2, [r2, #12]
 80053c4:	6092      	str	r2, [r2, #8]
 80053c6:	f280 8094 	bge.w	80054f2 <_malloc_r+0x222>
 80053ca:	f5b0 7f00 	cmp.w	r0, #512	; 0x200
 80053ce:	f080 8177 	bcs.w	80056c0 <_malloc_r+0x3f0>
 80053d2:	08c0      	lsrs	r0, r0, #3
 80053d4:	f04f 0e01 	mov.w	lr, #1
 80053d8:	f8d7 8004 	ldr.w	r8, [r7, #4]
 80053dc:	eb07 01c0 	add.w	r1, r7, r0, lsl #3
 80053e0:	1080      	asrs	r0, r0, #2
 80053e2:	fa0e f000 	lsl.w	r0, lr, r0
 80053e6:	60d9      	str	r1, [r3, #12]
 80053e8:	f8d1 e008 	ldr.w	lr, [r1, #8]
 80053ec:	ea40 0008 	orr.w	r0, r0, r8
 80053f0:	6078      	str	r0, [r7, #4]
 80053f2:	f8c3 e008 	str.w	lr, [r3, #8]
 80053f6:	f8ce 300c 	str.w	r3, [lr, #12]
 80053fa:	608b      	str	r3, [r1, #8]
 80053fc:	f04f 0e01 	mov.w	lr, #1
 8005400:	ea4f 03ac 	mov.w	r3, ip, asr #2
 8005404:	fa0e fe03 	lsl.w	lr, lr, r3
 8005408:	4586      	cmp	lr, r0
 800540a:	d87d      	bhi.n	8005508 <_malloc_r+0x238>
 800540c:	ea10 0f0e 	tst.w	r0, lr
 8005410:	d108      	bne.n	8005424 <_malloc_r+0x154>
 8005412:	f02c 0c03 	bic.w	ip, ip, #3
 8005416:	ea4f 0e4e 	mov.w	lr, lr, lsl #1
 800541a:	f10c 0c04 	add.w	ip, ip, #4
 800541e:	ea10 0f0e 	tst.w	r0, lr
 8005422:	d0f8      	beq.n	8005416 <_malloc_r+0x146>
 8005424:	eb07 0acc 	add.w	sl, r7, ip, lsl #3
 8005428:	46e1      	mov	r9, ip
 800542a:	46d0      	mov	r8, sl
 800542c:	f8d8 000c 	ldr.w	r0, [r8, #12]
 8005430:	4580      	cmp	r8, r0
 8005432:	d107      	bne.n	8005444 <_malloc_r+0x174>
 8005434:	e196      	b.n	8005764 <_malloc_r+0x494>
 8005436:	2b00      	cmp	r3, #0
 8005438:	f280 81a6 	bge.w	8005788 <_malloc_r+0x4b8>
 800543c:	68c0      	ldr	r0, [r0, #12]
 800543e:	4580      	cmp	r8, r0
 8005440:	f000 8190 	beq.w	8005764 <_malloc_r+0x494>
 8005444:	6841      	ldr	r1, [r0, #4]
 8005446:	f021 0103 	bic.w	r1, r1, #3
 800544a:	1b0b      	subs	r3, r1, r4
 800544c:	2b0f      	cmp	r3, #15
 800544e:	ddf2      	ble.n	8005436 <_malloc_r+0x166>
 8005450:	4680      	mov	r8, r0
 8005452:	68c5      	ldr	r5, [r0, #12]
 8005454:	1901      	adds	r1, r0, r4
 8005456:	f044 0e01 	orr.w	lr, r4, #1
 800545a:	f858 7f08 	ldr.w	r7, [r8, #8]!
 800545e:	f043 0401 	orr.w	r4, r3, #1
 8005462:	f8c0 e004 	str.w	lr, [r0, #4]
 8005466:	4630      	mov	r0, r6
 8005468:	604c      	str	r4, [r1, #4]
 800546a:	60fd      	str	r5, [r7, #12]
 800546c:	60af      	str	r7, [r5, #8]
 800546e:	60d1      	str	r1, [r2, #12]
 8005470:	6091      	str	r1, [r2, #8]
 8005472:	60ca      	str	r2, [r1, #12]
 8005474:	608a      	str	r2, [r1, #8]
 8005476:	50cb      	str	r3, [r1, r3]
 8005478:	f000 fb46 	bl	8005b08 <__malloc_unlock>
 800547c:	e75e      	b.n	800533c <_malloc_r+0x6c>
 800547e:	f1bc 0f04 	cmp.w	ip, #4
 8005482:	bf9e      	ittt	ls
 8005484:	ea4f 1c94 	movls.w	ip, r4, lsr #6
 8005488:	f10c 0c38 	addls.w	ip, ip, #56	; 0x38
 800548c:	ea4f 00cc 	movls.w	r0, ip, lsl #3
 8005490:	f67f af6f 	bls.w	8005372 <_malloc_r+0xa2>
 8005494:	f1bc 0f14 	cmp.w	ip, #20
 8005498:	bf9c      	itt	ls
 800549a:	f10c 0c5b 	addls.w	ip, ip, #91	; 0x5b
 800549e:	ea4f 00cc 	movls.w	r0, ip, lsl #3
 80054a2:	f67f af66 	bls.w	8005372 <_malloc_r+0xa2>
 80054a6:	f1bc 0f54 	cmp.w	ip, #84	; 0x54
 80054aa:	bf9e      	ittt	ls
 80054ac:	ea4f 3c14 	movls.w	ip, r4, lsr #12
 80054b0:	f10c 0c6e 	addls.w	ip, ip, #110	; 0x6e
 80054b4:	ea4f 00cc 	movls.w	r0, ip, lsl #3
 80054b8:	f67f af5b 	bls.w	8005372 <_malloc_r+0xa2>
 80054bc:	f5bc 7faa 	cmp.w	ip, #340	; 0x154
 80054c0:	bf9e      	ittt	ls
 80054c2:	ea4f 3cd4 	movls.w	ip, r4, lsr #15
 80054c6:	f10c 0c77 	addls.w	ip, ip, #119	; 0x77
 80054ca:	ea4f 00cc 	movls.w	r0, ip, lsl #3
 80054ce:	f67f af50 	bls.w	8005372 <_malloc_r+0xa2>
 80054d2:	f240 5354 	movw	r3, #1364	; 0x554
 80054d6:	459c      	cmp	ip, r3
 80054d8:	bf95      	itete	ls
 80054da:	ea4f 4c94 	movls.w	ip, r4, lsr #18
 80054de:	f44f 707c 	movhi.w	r0, #1008	; 0x3f0
 80054e2:	f10c 0c7c 	addls.w	ip, ip, #124	; 0x7c
 80054e6:	f04f 0c7e 	movhi.w	ip, #126	; 0x7e
 80054ea:	bf98      	it	ls
 80054ec:	ea4f 00cc 	movls.w	r0, ip, lsl #3
 80054f0:	e73f      	b.n	8005372 <_malloc_r+0xa2>
 80054f2:	181a      	adds	r2, r3, r0
 80054f4:	f103 0808 	add.w	r8, r3, #8
 80054f8:	4630      	mov	r0, r6
 80054fa:	6853      	ldr	r3, [r2, #4]
 80054fc:	f043 0301 	orr.w	r3, r3, #1
 8005500:	6053      	str	r3, [r2, #4]
 8005502:	f000 fb01 	bl	8005b08 <__malloc_unlock>
 8005506:	e719      	b.n	800533c <_malloc_r+0x6c>
 8005508:	f8d7 8008 	ldr.w	r8, [r7, #8]
 800550c:	f8d8 3004 	ldr.w	r3, [r8, #4]
 8005510:	f023 0903 	bic.w	r9, r3, #3
 8005514:	454c      	cmp	r4, r9
 8005516:	ebc4 0209 	rsb	r2, r4, r9
 800551a:	bf94      	ite	ls
 800551c:	2300      	movls	r3, #0
 800551e:	2301      	movhi	r3, #1
 8005520:	2a0f      	cmp	r2, #15
 8005522:	bfd8      	it	le
 8005524:	f043 0301 	orrle.w	r3, r3, #1
 8005528:	2b00      	cmp	r3, #0
 800552a:	f000 80b9 	beq.w	80056a0 <_malloc_r+0x3d0>
 800552e:	f640 6ae8 	movw	sl, #3816	; 0xee8
 8005532:	f8d5 3408 	ldr.w	r3, [r5, #1032]	; 0x408
 8005536:	f2c2 0a00 	movt	sl, #8192	; 0x2000
 800553a:	4630      	mov	r0, r6
 800553c:	f1b3 3fff 	cmp.w	r3, #4294967295
 8005540:	f8da 2000 	ldr.w	r2, [sl]
 8005544:	f102 0b10 	add.w	fp, r2, #16
 8005548:	44a3      	add	fp, r4
 800554a:	bf1f      	itttt	ne
 800554c:	f50b 6b7e 	addne.w	fp, fp, #4064	; 0xfe0
 8005550:	f10b 0b1f 	addne.w	fp, fp, #31
 8005554:	f42b 6b7e 	bicne.w	fp, fp, #4064	; 0xfe0
 8005558:	f02b 0b1f 	bicne.w	fp, fp, #31
 800555c:	4659      	mov	r1, fp
 800555e:	f000 fad5 	bl	8005b0c <_sbrk_r>
 8005562:	f1b0 3fff 	cmp.w	r0, #4294967295
 8005566:	4603      	mov	r3, r0
 8005568:	f000 8118 	beq.w	800579c <_malloc_r+0x4cc>
 800556c:	eb08 0109 	add.w	r1, r8, r9
 8005570:	4281      	cmp	r1, r0
 8005572:	f200 8110 	bhi.w	8005796 <_malloc_r+0x4c6>
 8005576:	f8da 2004 	ldr.w	r2, [sl, #4]
 800557a:	4281      	cmp	r1, r0
 800557c:	445a      	add	r2, fp
 800557e:	f8ca 2004 	str.w	r2, [sl, #4]
 8005582:	f000 813e 	beq.w	8005802 <_malloc_r+0x532>
 8005586:	f8d5 e408 	ldr.w	lr, [r5, #1032]	; 0x408
 800558a:	f240 1554 	movw	r5, #340	; 0x154
 800558e:	f2c2 0500 	movt	r5, #8192	; 0x2000
 8005592:	f1be 3fff 	cmp.w	lr, #4294967295
 8005596:	bf17      	itett	ne
 8005598:	1882      	addne	r2, r0, r2
 800559a:	f8c5 0408 	streq.w	r0, [r5, #1032]	; 0x408
 800559e:	ebc1 0102 	rsbne	r1, r1, r2
 80055a2:	f8ca 1004 	strne.w	r1, [sl, #4]
 80055a6:	f010 0507 	ands.w	r5, r0, #7
 80055aa:	bf17      	itett	ne
 80055ac:	f1c5 0508 	rsbne	r5, r5, #8
 80055b0:	f44f 5580 	moveq.w	r5, #4096	; 0x1000
 80055b4:	1943      	addne	r3, r0, r5
 80055b6:	f505 5580 	addne.w	r5, r5, #4096	; 0x1000
 80055ba:	eb03 020b 	add.w	r2, r3, fp
 80055be:	4630      	mov	r0, r6
 80055c0:	9301      	str	r3, [sp, #4]
 80055c2:	0512      	lsls	r2, r2, #20
 80055c4:	0d12      	lsrs	r2, r2, #20
 80055c6:	1aad      	subs	r5, r5, r2
 80055c8:	4629      	mov	r1, r5
 80055ca:	f000 fa9f 	bl	8005b0c <_sbrk_r>
 80055ce:	9b01      	ldr	r3, [sp, #4]
 80055d0:	f1b0 3fff 	cmp.w	r0, #4294967295
 80055d4:	f000 812c 	beq.w	8005830 <_malloc_r+0x560>
 80055d8:	1ac1      	subs	r1, r0, r3
 80055da:	1949      	adds	r1, r1, r5
 80055dc:	f041 0101 	orr.w	r1, r1, #1
 80055e0:	f8da 2004 	ldr.w	r2, [sl, #4]
 80055e4:	45b8      	cmp	r8, r7
 80055e6:	f640 6be8 	movw	fp, #3816	; 0xee8
 80055ea:	60bb      	str	r3, [r7, #8]
 80055ec:	442a      	add	r2, r5
 80055ee:	f2c2 0b00 	movt	fp, #8192	; 0x2000
 80055f2:	6059      	str	r1, [r3, #4]
 80055f4:	f8ca 2004 	str.w	r2, [sl, #4]
 80055f8:	d017      	beq.n	800562a <_malloc_r+0x35a>
 80055fa:	f1b9 0f0f 	cmp.w	r9, #15
 80055fe:	f240 80e1 	bls.w	80057c4 <_malloc_r+0x4f4>
 8005602:	f1a9 030c 	sub.w	r3, r9, #12
 8005606:	f8d8 5004 	ldr.w	r5, [r8, #4]
 800560a:	f023 0307 	bic.w	r3, r3, #7
 800560e:	2005      	movs	r0, #5
 8005610:	eb08 0103 	add.w	r1, r8, r3
 8005614:	2b0f      	cmp	r3, #15
 8005616:	f005 0501 	and.w	r5, r5, #1
 800561a:	ea43 0505 	orr.w	r5, r3, r5
 800561e:	f8c8 5004 	str.w	r5, [r8, #4]
 8005622:	6048      	str	r0, [r1, #4]
 8005624:	6088      	str	r0, [r1, #8]
 8005626:	f200 80fb 	bhi.w	8005820 <_malloc_r+0x550>
 800562a:	f8da 102c 	ldr.w	r1, [sl, #44]	; 0x2c
 800562e:	f640 63e8 	movw	r3, #3816	; 0xee8
 8005632:	f2c2 0300 	movt	r3, #8192	; 0x2000
 8005636:	428a      	cmp	r2, r1
 8005638:	f8da 1030 	ldr.w	r1, [sl, #48]	; 0x30
 800563c:	bf88      	it	hi
 800563e:	62da      	strhi	r2, [r3, #44]	; 0x2c
 8005640:	f640 63e8 	movw	r3, #3816	; 0xee8
 8005644:	428a      	cmp	r2, r1
 8005646:	f2c2 0300 	movt	r3, #8192	; 0x2000
 800564a:	f240 80a7 	bls.w	800579c <_malloc_r+0x4cc>
 800564e:	f8d7 8008 	ldr.w	r8, [r7, #8]
 8005652:	631a      	str	r2, [r3, #48]	; 0x30
 8005654:	f8d8 3004 	ldr.w	r3, [r8, #4]
 8005658:	f023 0303 	bic.w	r3, r3, #3
 800565c:	429c      	cmp	r4, r3
 800565e:	ebc4 0203 	rsb	r2, r4, r3
 8005662:	bf94      	ite	ls
 8005664:	2300      	movls	r3, #0
 8005666:	2301      	movhi	r3, #1
 8005668:	2a0f      	cmp	r2, #15
 800566a:	bfd8      	it	le
 800566c:	f043 0301 	orrle.w	r3, r3, #1
 8005670:	b1b3      	cbz	r3, 80056a0 <_malloc_r+0x3d0>
 8005672:	4630      	mov	r0, r6
 8005674:	f04f 0800 	mov.w	r8, #0
 8005678:	f000 fa46 	bl	8005b08 <__malloc_unlock>
 800567c:	e65e      	b.n	800533c <_malloc_r+0x6c>
 800567e:	189a      	adds	r2, r3, r2
 8005680:	68d9      	ldr	r1, [r3, #12]
 8005682:	689c      	ldr	r4, [r3, #8]
 8005684:	f103 0808 	add.w	r8, r3, #8
 8005688:	6855      	ldr	r5, [r2, #4]
 800568a:	4630      	mov	r0, r6
 800568c:	f045 0301 	orr.w	r3, r5, #1
 8005690:	60e1      	str	r1, [r4, #12]
 8005692:	608c      	str	r4, [r1, #8]
 8005694:	6053      	str	r3, [r2, #4]
 8005696:	f000 fa37 	bl	8005b08 <__malloc_unlock>
 800569a:	e64f      	b.n	800533c <_malloc_r+0x6c>
 800569c:	2000015c 	.word	0x2000015c
 80056a0:	eb08 0304 	add.w	r3, r8, r4
 80056a4:	f042 0201 	orr.w	r2, r2, #1
 80056a8:	f044 0401 	orr.w	r4, r4, #1
 80056ac:	4630      	mov	r0, r6
 80056ae:	f8c8 4004 	str.w	r4, [r8, #4]
 80056b2:	f108 0808 	add.w	r8, r8, #8
 80056b6:	605a      	str	r2, [r3, #4]
 80056b8:	60bb      	str	r3, [r7, #8]
 80056ba:	f000 fa25 	bl	8005b08 <__malloc_unlock>
 80056be:	e63d      	b.n	800533c <_malloc_r+0x6c>
 80056c0:	0a41      	lsrs	r1, r0, #9
 80056c2:	2904      	cmp	r1, #4
 80056c4:	bf9c      	itt	ls
 80056c6:	ea4f 1e90 	movls.w	lr, r0, lsr #6
 80056ca:	f10e 0e38 	addls.w	lr, lr, #56	; 0x38
 80056ce:	d91d      	bls.n	800570c <_malloc_r+0x43c>
 80056d0:	2914      	cmp	r1, #20
 80056d2:	bf98      	it	ls
 80056d4:	f101 0e5b 	addls.w	lr, r1, #91	; 0x5b
 80056d8:	d918      	bls.n	800570c <_malloc_r+0x43c>
 80056da:	2954      	cmp	r1, #84	; 0x54
 80056dc:	bf9c      	itt	ls
 80056de:	ea4f 3e10 	movls.w	lr, r0, lsr #12
 80056e2:	f10e 0e6e 	addls.w	lr, lr, #110	; 0x6e
 80056e6:	d911      	bls.n	800570c <_malloc_r+0x43c>
 80056e8:	f5b1 7faa 	cmp.w	r1, #340	; 0x154
 80056ec:	bf9c      	itt	ls
 80056ee:	ea4f 3ed0 	movls.w	lr, r0, lsr #15
 80056f2:	f10e 0e77 	addls.w	lr, lr, #119	; 0x77
 80056f6:	d909      	bls.n	800570c <_malloc_r+0x43c>
 80056f8:	f240 5e54 	movw	lr, #1364	; 0x554
 80056fc:	4571      	cmp	r1, lr
 80056fe:	bf96      	itet	ls
 8005700:	ea4f 4e90 	movls.w	lr, r0, lsr #18
 8005704:	f04f 0e7e 	movhi.w	lr, #126	; 0x7e
 8005708:	f10e 0e7c 	addls.w	lr, lr, #124	; 0x7c
 800570c:	eb07 08ce 	add.w	r8, r7, lr, lsl #3
 8005710:	f8d8 1008 	ldr.w	r1, [r8, #8]
 8005714:	4541      	cmp	r1, r8
 8005716:	d103      	bne.n	8005720 <_malloc_r+0x450>
 8005718:	e047      	b.n	80057aa <_malloc_r+0x4da>
 800571a:	6889      	ldr	r1, [r1, #8]
 800571c:	4588      	cmp	r8, r1
 800571e:	d005      	beq.n	800572c <_malloc_r+0x45c>
 8005720:	f8d1 e004 	ldr.w	lr, [r1, #4]
 8005724:	f02e 0e03 	bic.w	lr, lr, #3
 8005728:	4570      	cmp	r0, lr
 800572a:	d3f6      	bcc.n	800571a <_malloc_r+0x44a>
 800572c:	f8d1 e00c 	ldr.w	lr, [r1, #12]
 8005730:	f8c3 e00c 	str.w	lr, [r3, #12]
 8005734:	6099      	str	r1, [r3, #8]
 8005736:	6878      	ldr	r0, [r7, #4]
 8005738:	60cb      	str	r3, [r1, #12]
 800573a:	f8ce 3008 	str.w	r3, [lr, #8]
 800573e:	e65d      	b.n	80053fc <_malloc_r+0x12c>
 8005740:	191d      	adds	r5, r3, r4
 8005742:	f041 0701 	orr.w	r7, r1, #1
 8005746:	60d5      	str	r5, [r2, #12]
 8005748:	f044 0401 	orr.w	r4, r4, #1
 800574c:	6095      	str	r5, [r2, #8]
 800574e:	4630      	mov	r0, r6
 8005750:	605c      	str	r4, [r3, #4]
 8005752:	f103 0808 	add.w	r8, r3, #8
 8005756:	60ea      	str	r2, [r5, #12]
 8005758:	60aa      	str	r2, [r5, #8]
 800575a:	606f      	str	r7, [r5, #4]
 800575c:	5069      	str	r1, [r5, r1]
 800575e:	f000 f9d3 	bl	8005b08 <__malloc_unlock>
 8005762:	e5eb      	b.n	800533c <_malloc_r+0x6c>
 8005764:	f109 0901 	add.w	r9, r9, #1
 8005768:	f019 0f03 	tst.w	r9, #3
 800576c:	d02f      	beq.n	80057ce <_malloc_r+0x4fe>
 800576e:	f108 0808 	add.w	r8, r8, #8
 8005772:	e65b      	b.n	800542c <_malloc_r+0x15c>
 8005774:	f103 0208 	add.w	r2, r3, #8
 8005778:	695b      	ldr	r3, [r3, #20]
 800577a:	429a      	cmp	r2, r3
 800577c:	bf08      	it	eq
 800577e:	f10c 0c02 	addeq.w	ip, ip, #2
 8005782:	f43f ae10 	beq.w	80053a6 <_malloc_r+0xd6>
 8005786:	e5c8      	b.n	800531a <_malloc_r+0x4a>
 8005788:	4680      	mov	r8, r0
 800578a:	1843      	adds	r3, r0, r1
 800578c:	68c2      	ldr	r2, [r0, #12]
 800578e:	4630      	mov	r0, r6
 8005790:	f858 1f08 	ldr.w	r1, [r8, #8]!
 8005794:	e5ca      	b.n	800532c <_malloc_r+0x5c>
 8005796:	45b8      	cmp	r8, r7
 8005798:	f43f aeed 	beq.w	8005576 <_malloc_r+0x2a6>
 800579c:	f8d7 8008 	ldr.w	r8, [r7, #8]
 80057a0:	f8d8 3004 	ldr.w	r3, [r8, #4]
 80057a4:	f023 0303 	bic.w	r3, r3, #3
 80057a8:	e758      	b.n	800565c <_malloc_r+0x38c>
 80057aa:	f04f 0901 	mov.w	r9, #1
 80057ae:	f8d7 8004 	ldr.w	r8, [r7, #4]
 80057b2:	ea4f 00ae 	mov.w	r0, lr, asr #2
 80057b6:	468e      	mov	lr, r1
 80057b8:	fa09 f000 	lsl.w	r0, r9, r0
 80057bc:	ea48 0000 	orr.w	r0, r8, r0
 80057c0:	6078      	str	r0, [r7, #4]
 80057c2:	e7b5      	b.n	8005730 <_malloc_r+0x460>
 80057c4:	4698      	mov	r8, r3
 80057c6:	2201      	movs	r2, #1
 80057c8:	605a      	str	r2, [r3, #4]
 80057ca:	2300      	movs	r3, #0
 80057cc:	e746      	b.n	800565c <_malloc_r+0x38c>
 80057ce:	4651      	mov	r1, sl
 80057d0:	f01c 0f03 	tst.w	ip, #3
 80057d4:	460b      	mov	r3, r1
 80057d6:	f10c 3cff 	add.w	ip, ip, #4294967295
 80057da:	d02c      	beq.n	8005836 <_malloc_r+0x566>
 80057dc:	f853 1908 	ldr.w	r1, [r3], #-8
 80057e0:	4299      	cmp	r1, r3
 80057e2:	d0f5      	beq.n	80057d0 <_malloc_r+0x500>
 80057e4:	687b      	ldr	r3, [r7, #4]
 80057e6:	ea4f 0e4e 	mov.w	lr, lr, lsl #1
 80057ea:	459e      	cmp	lr, r3
 80057ec:	f63f ae8c 	bhi.w	8005508 <_malloc_r+0x238>
 80057f0:	f1be 0f00 	cmp.w	lr, #0
 80057f4:	f43f ae88 	beq.w	8005508 <_malloc_r+0x238>
 80057f8:	ea1e 0f03 	tst.w	lr, r3
 80057fc:	d020      	beq.n	8005840 <_malloc_r+0x570>
 80057fe:	46cc      	mov	ip, r9
 8005800:	e610      	b.n	8005424 <_malloc_r+0x154>
 8005802:	ea4f 5e01 	mov.w	lr, r1, lsl #20
 8005806:	ea4f 5e1e 	mov.w	lr, lr, lsr #20
 800580a:	f1be 0f00 	cmp.w	lr, #0
 800580e:	f47f aeba 	bne.w	8005586 <_malloc_r+0x2b6>
 8005812:	68bb      	ldr	r3, [r7, #8]
 8005814:	eb0b 0109 	add.w	r1, fp, r9
 8005818:	f041 0101 	orr.w	r1, r1, #1
 800581c:	6059      	str	r1, [r3, #4]
 800581e:	e704      	b.n	800562a <_malloc_r+0x35a>
 8005820:	4630      	mov	r0, r6
 8005822:	f108 0108 	add.w	r1, r8, #8
 8005826:	f000 fe39 	bl	800649c <_free_r>
 800582a:	f8db 2004 	ldr.w	r2, [fp, #4]
 800582e:	e6fc      	b.n	800562a <_malloc_r+0x35a>
 8005830:	2101      	movs	r1, #1
 8005832:	2500      	movs	r5, #0
 8005834:	e6d4      	b.n	80055e0 <_malloc_r+0x310>
 8005836:	687b      	ldr	r3, [r7, #4]
 8005838:	ea23 030e 	bic.w	r3, r3, lr
 800583c:	607b      	str	r3, [r7, #4]
 800583e:	e7d1      	b.n	80057e4 <_malloc_r+0x514>
 8005840:	ea4f 0e4e 	mov.w	lr, lr, lsl #1
 8005844:	f109 0904 	add.w	r9, r9, #4
 8005848:	e7d6      	b.n	80057f8 <_malloc_r+0x528>
 800584a:	bf00      	nop

0800584c <memcpy>:
 800584c:	2a03      	cmp	r2, #3
 800584e:	e92d 01f0 	stmdb	sp!, {r4, r5, r6, r7, r8}
 8005852:	d809      	bhi.n	8005868 <memcpy+0x1c>
 8005854:	b12a      	cbz	r2, 8005862 <memcpy+0x16>
 8005856:	2300      	movs	r3, #0
 8005858:	5ccc      	ldrb	r4, [r1, r3]
 800585a:	54c4      	strb	r4, [r0, r3]
 800585c:	3301      	adds	r3, #1
 800585e:	4293      	cmp	r3, r2
 8005860:	d1fa      	bne.n	8005858 <memcpy+0xc>
 8005862:	e8bd 01f0 	ldmia.w	sp!, {r4, r5, r6, r7, r8}
 8005866:	4770      	bx	lr
 8005868:	460b      	mov	r3, r1
 800586a:	1882      	adds	r2, r0, r2
 800586c:	4601      	mov	r1, r0
 800586e:	e003      	b.n	8005878 <memcpy+0x2c>
 8005870:	7824      	ldrb	r4, [r4, #0]
 8005872:	3301      	adds	r3, #1
 8005874:	f801 4b01 	strb.w	r4, [r1], #1
 8005878:	f011 0f03 	tst.w	r1, #3
 800587c:	461c      	mov	r4, r3
 800587e:	d1f7      	bne.n	8005870 <memcpy+0x24>
 8005880:	f013 0503 	ands.w	r5, r3, #3
 8005884:	d05d      	beq.n	8005942 <memcpy+0xf6>
 8005886:	426e      	negs	r6, r5
 8005888:	f1c5 0c04 	rsb	ip, r5, #4
 800588c:	00ed      	lsls	r5, r5, #3
 800588e:	599b      	ldr	r3, [r3, r6]
 8005890:	ea4f 0ccc 	mov.w	ip, ip, lsl #3
 8005894:	e008      	b.n	80058a8 <memcpy+0x5c>
 8005896:	3404      	adds	r4, #4
 8005898:	59a7      	ldr	r7, [r4, r6]
 800589a:	463b      	mov	r3, r7
 800589c:	fa07 f70c 	lsl.w	r7, r7, ip
 80058a0:	ea48 0707 	orr.w	r7, r8, r7
 80058a4:	f841 7b04 	str.w	r7, [r1], #4
 80058a8:	1a57      	subs	r7, r2, r1
 80058aa:	fa23 f805 	lsr.w	r8, r3, r5
 80058ae:	2f03      	cmp	r7, #3
 80058b0:	dcf1      	bgt.n	8005896 <memcpy+0x4a>
 80058b2:	e003      	b.n	80058bc <memcpy+0x70>
 80058b4:	f814 3b01 	ldrb.w	r3, [r4], #1
 80058b8:	f801 3b01 	strb.w	r3, [r1], #1
 80058bc:	428a      	cmp	r2, r1
 80058be:	d8f9      	bhi.n	80058b4 <memcpy+0x68>
 80058c0:	e7cf      	b.n	8005862 <memcpy+0x16>
 80058c2:	f853 4c40 	ldr.w	r4, [r3, #-64]
 80058c6:	f841 4c40 	str.w	r4, [r1, #-64]
 80058ca:	f853 4c3c 	ldr.w	r4, [r3, #-60]
 80058ce:	f841 4c3c 	str.w	r4, [r1, #-60]
 80058d2:	f853 4c38 	ldr.w	r4, [r3, #-56]
 80058d6:	f841 4c38 	str.w	r4, [r1, #-56]
 80058da:	f853 4c34 	ldr.w	r4, [r3, #-52]
 80058de:	f841 4c34 	str.w	r4, [r1, #-52]
 80058e2:	f853 4c30 	ldr.w	r4, [r3, #-48]
 80058e6:	f841 4c30 	str.w	r4, [r1, #-48]
 80058ea:	f853 4c2c 	ldr.w	r4, [r3, #-44]
 80058ee:	f841 4c2c 	str.w	r4, [r1, #-44]
 80058f2:	f853 4c28 	ldr.w	r4, [r3, #-40]
 80058f6:	f841 4c28 	str.w	r4, [r1, #-40]
 80058fa:	f853 4c24 	ldr.w	r4, [r3, #-36]
 80058fe:	f841 4c24 	str.w	r4, [r1, #-36]
 8005902:	f853 4c20 	ldr.w	r4, [r3, #-32]
 8005906:	f841 4c20 	str.w	r4, [r1, #-32]
 800590a:	f853 4c1c 	ldr.w	r4, [r3, #-28]
 800590e:	f841 4c1c 	str.w	r4, [r1, #-28]
 8005912:	f853 4c18 	ldr.w	r4, [r3, #-24]
 8005916:	f841 4c18 	str.w	r4, [r1, #-24]
 800591a:	f853 4c14 	ldr.w	r4, [r3, #-20]
 800591e:	f841 4c14 	str.w	r4, [r1, #-20]
 8005922:	f853 4c10 	ldr.w	r4, [r3, #-16]
 8005926:	f841 4c10 	str.w	r4, [r1, #-16]
 800592a:	f853 4c0c 	ldr.w	r4, [r3, #-12]
 800592e:	f841 4c0c 	str.w	r4, [r1, #-12]
 8005932:	f853 4c08 	ldr.w	r4, [r3, #-8]
 8005936:	f841 4c08 	str.w	r4, [r1, #-8]
 800593a:	f853 4c04 	ldr.w	r4, [r3, #-4]
 800593e:	f841 4c04 	str.w	r4, [r1, #-4]
 8005942:	1a56      	subs	r6, r2, r1
 8005944:	461d      	mov	r5, r3
 8005946:	460c      	mov	r4, r1
 8005948:	3340      	adds	r3, #64	; 0x40
 800594a:	3140      	adds	r1, #64	; 0x40
 800594c:	2e3f      	cmp	r6, #63	; 0x3f
 800594e:	dcb8      	bgt.n	80058c2 <memcpy+0x76>
 8005950:	462b      	mov	r3, r5
 8005952:	e00f      	b.n	8005974 <memcpy+0x128>
 8005954:	f853 1c10 	ldr.w	r1, [r3, #-16]
 8005958:	f844 1c10 	str.w	r1, [r4, #-16]
 800595c:	f853 1c0c 	ldr.w	r1, [r3, #-12]
 8005960:	f844 1c0c 	str.w	r1, [r4, #-12]
 8005964:	f853 1c08 	ldr.w	r1, [r3, #-8]
 8005968:	f844 1c08 	str.w	r1, [r4, #-8]
 800596c:	f853 1c04 	ldr.w	r1, [r3, #-4]
 8005970:	f844 1c04 	str.w	r1, [r4, #-4]
 8005974:	1b16      	subs	r6, r2, r4
 8005976:	4621      	mov	r1, r4
 8005978:	461d      	mov	r5, r3
 800597a:	3410      	adds	r4, #16
 800597c:	3310      	adds	r3, #16
 800597e:	2e0f      	cmp	r6, #15
 8005980:	dce8      	bgt.n	8005954 <memcpy+0x108>
 8005982:	462b      	mov	r3, r5
 8005984:	e002      	b.n	800598c <memcpy+0x140>
 8005986:	6824      	ldr	r4, [r4, #0]
 8005988:	f841 4b04 	str.w	r4, [r1], #4
 800598c:	1a55      	subs	r5, r2, r1
 800598e:	461c      	mov	r4, r3
 8005990:	2d03      	cmp	r5, #3
 8005992:	f103 0304 	add.w	r3, r3, #4
 8005996:	dcf6      	bgt.n	8005986 <memcpy+0x13a>
 8005998:	e790      	b.n	80058bc <memcpy+0x70>
 800599a:	bf00      	nop

0800599c <memmove>:
 800599c:	4288      	cmp	r0, r1
 800599e:	4603      	mov	r3, r0
 80059a0:	b4f0      	push	{r4, r5, r6, r7}
 80059a2:	460c      	mov	r4, r1
 80059a4:	d90e      	bls.n	80059c4 <memmove+0x28>
 80059a6:	188d      	adds	r5, r1, r2
 80059a8:	42a8      	cmp	r0, r5
 80059aa:	d20b      	bcs.n	80059c4 <memmove+0x28>
 80059ac:	b142      	cbz	r2, 80059c0 <memmove+0x24>
 80059ae:	1883      	adds	r3, r0, r2
 80059b0:	4629      	mov	r1, r5
 80059b2:	1a9a      	subs	r2, r3, r2
 80059b4:	f811 4d01 	ldrb.w	r4, [r1, #-1]!
 80059b8:	f803 4d01 	strb.w	r4, [r3, #-1]!
 80059bc:	4293      	cmp	r3, r2
 80059be:	d1f9      	bne.n	80059b4 <memmove+0x18>
 80059c0:	bcf0      	pop	{r4, r5, r6, r7}
 80059c2:	4770      	bx	lr
 80059c4:	2a0f      	cmp	r2, #15
 80059c6:	d938      	bls.n	8005a3a <memmove+0x9e>
 80059c8:	ea41 0500 	orr.w	r5, r1, r0
 80059cc:	f015 0f03 	tst.w	r5, #3
 80059d0:	d135      	bne.n	8005a3e <memmove+0xa2>
 80059d2:	f1a2 0610 	sub.w	r6, r2, #16
 80059d6:	f101 0510 	add.w	r5, r1, #16
 80059da:	460b      	mov	r3, r1
 80059dc:	4602      	mov	r2, r0
 80059de:	0937      	lsrs	r7, r6, #4
 80059e0:	eb05 1507 	add.w	r5, r5, r7, lsl #4
 80059e4:	681c      	ldr	r4, [r3, #0]
 80059e6:	6014      	str	r4, [r2, #0]
 80059e8:	685c      	ldr	r4, [r3, #4]
 80059ea:	6054      	str	r4, [r2, #4]
 80059ec:	689c      	ldr	r4, [r3, #8]
 80059ee:	6094      	str	r4, [r2, #8]
 80059f0:	68dc      	ldr	r4, [r3, #12]
 80059f2:	3310      	adds	r3, #16
 80059f4:	60d4      	str	r4, [r2, #12]
 80059f6:	3210      	adds	r2, #16
 80059f8:	429d      	cmp	r5, r3
 80059fa:	d1f3      	bne.n	80059e4 <memmove+0x48>
 80059fc:	1c7c      	adds	r4, r7, #1
 80059fe:	f006 020f 	and.w	r2, r6, #15
 8005a02:	0124      	lsls	r4, r4, #4
 8005a04:	2a03      	cmp	r2, #3
 8005a06:	eb00 0304 	add.w	r3, r0, r4
 8005a0a:	4421      	add	r1, r4
 8005a0c:	d914      	bls.n	8005a38 <memmove+0x9c>
 8005a0e:	3a04      	subs	r2, #4
 8005a10:	460c      	mov	r4, r1
 8005a12:	461d      	mov	r5, r3
 8005a14:	ea4f 0c92 	mov.w	ip, r2, lsr #2
 8005a18:	eb01 078c 	add.w	r7, r1, ip, lsl #2
 8005a1c:	3704      	adds	r7, #4
 8005a1e:	f854 6b04 	ldr.w	r6, [r4], #4
 8005a22:	42bc      	cmp	r4, r7
 8005a24:	f845 6b04 	str.w	r6, [r5], #4
 8005a28:	d1f9      	bne.n	8005a1e <memmove+0x82>
 8005a2a:	f10c 0401 	add.w	r4, ip, #1
 8005a2e:	f002 0203 	and.w	r2, r2, #3
 8005a32:	00a4      	lsls	r4, r4, #2
 8005a34:	191b      	adds	r3, r3, r4
 8005a36:	1909      	adds	r1, r1, r4
 8005a38:	460c      	mov	r4, r1
 8005a3a:	2a00      	cmp	r2, #0
 8005a3c:	d0c0      	beq.n	80059c0 <memmove+0x24>
 8005a3e:	4621      	mov	r1, r4
 8005a40:	18a2      	adds	r2, r4, r2
 8005a42:	f811 4b01 	ldrb.w	r4, [r1], #1
 8005a46:	4291      	cmp	r1, r2
 8005a48:	f803 4b01 	strb.w	r4, [r3], #1
 8005a4c:	d1f9      	bne.n	8005a42 <memmove+0xa6>
 8005a4e:	e7b7      	b.n	80059c0 <memmove+0x24>

08005a50 <memset>:
 8005a50:	2a03      	cmp	r2, #3
 8005a52:	b2c9      	uxtb	r1, r1
 8005a54:	b470      	push	{r4, r5, r6}
 8005a56:	d808      	bhi.n	8005a6a <memset+0x1a>
 8005a58:	b12a      	cbz	r2, 8005a66 <memset+0x16>
 8005a5a:	4603      	mov	r3, r0
 8005a5c:	1812      	adds	r2, r2, r0
 8005a5e:	f803 1b01 	strb.w	r1, [r3], #1
 8005a62:	4293      	cmp	r3, r2
 8005a64:	d1fb      	bne.n	8005a5e <memset+0xe>
 8005a66:	bc70      	pop	{r4, r5, r6}
 8005a68:	4770      	bx	lr
 8005a6a:	1882      	adds	r2, r0, r2
 8005a6c:	4604      	mov	r4, r0
 8005a6e:	e001      	b.n	8005a74 <memset+0x24>
 8005a70:	f804 1b01 	strb.w	r1, [r4], #1
 8005a74:	f014 0f03 	tst.w	r4, #3
 8005a78:	d1fa      	bne.n	8005a70 <memset+0x20>
 8005a7a:	f04f 3301 	mov.w	r3, #16843009	; 0x1010101
 8005a7e:	fb03 f301 	mul.w	r3, r3, r1
 8005a82:	e01f      	b.n	8005ac4 <memset+0x74>
 8005a84:	f844 3c40 	str.w	r3, [r4, #-64]
 8005a88:	f844 3c3c 	str.w	r3, [r4, #-60]
 8005a8c:	f844 3c38 	str.w	r3, [r4, #-56]
 8005a90:	f844 3c34 	str.w	r3, [r4, #-52]
 8005a94:	f844 3c30 	str.w	r3, [r4, #-48]
 8005a98:	f844 3c2c 	str.w	r3, [r4, #-44]
 8005a9c:	f844 3c28 	str.w	r3, [r4, #-40]
 8005aa0:	f844 3c24 	str.w	r3, [r4, #-36]
 8005aa4:	f844 3c20 	str.w	r3, [r4, #-32]
 8005aa8:	f844 3c1c 	str.w	r3, [r4, #-28]
 8005aac:	f844 3c18 	str.w	r3, [r4, #-24]
 8005ab0:	f844 3c14 	str.w	r3, [r4, #-20]
 8005ab4:	f844 3c10 	str.w	r3, [r4, #-16]
 8005ab8:	f844 3c0c 	str.w	r3, [r4, #-12]
 8005abc:	f844 3c08 	str.w	r3, [r4, #-8]
 8005ac0:	f844 3c04 	str.w	r3, [r4, #-4]
 8005ac4:	1b16      	subs	r6, r2, r4
 8005ac6:	4625      	mov	r5, r4
 8005ac8:	3440      	adds	r4, #64	; 0x40
 8005aca:	2e3f      	cmp	r6, #63	; 0x3f
 8005acc:	dcda      	bgt.n	8005a84 <memset+0x34>
 8005ace:	462c      	mov	r4, r5
 8005ad0:	e007      	b.n	8005ae2 <memset+0x92>
 8005ad2:	f844 3c10 	str.w	r3, [r4, #-16]
 8005ad6:	f844 3c0c 	str.w	r3, [r4, #-12]
 8005ada:	f844 3c08 	str.w	r3, [r4, #-8]
 8005ade:	f844 3c04 	str.w	r3, [r4, #-4]
 8005ae2:	1b16      	subs	r6, r2, r4
 8005ae4:	4625      	mov	r5, r4
 8005ae6:	3410      	adds	r4, #16
 8005ae8:	2e0f      	cmp	r6, #15
 8005aea:	dcf2      	bgt.n	8005ad2 <memset+0x82>
 8005aec:	e001      	b.n	8005af2 <memset+0xa2>
 8005aee:	f845 3b04 	str.w	r3, [r5], #4
 8005af2:	1b54      	subs	r4, r2, r5
 8005af4:	2c03      	cmp	r4, #3
 8005af6:	dcfa      	bgt.n	8005aee <memset+0x9e>
 8005af8:	e001      	b.n	8005afe <memset+0xae>
 8005afa:	f805 1b01 	strb.w	r1, [r5], #1
 8005afe:	4295      	cmp	r5, r2
 8005b00:	d3fb      	bcc.n	8005afa <memset+0xaa>
 8005b02:	e7b0      	b.n	8005a66 <memset+0x16>

08005b04 <__malloc_lock>:
 8005b04:	4770      	bx	lr
 8005b06:	bf00      	nop

08005b08 <__malloc_unlock>:
 8005b08:	4770      	bx	lr
 8005b0a:	bf00      	nop

08005b0c <_sbrk_r>:
 8005b0c:	b538      	push	{r3, r4, r5, lr}
 8005b0e:	f641 7440 	movw	r4, #8000	; 0x1f40
 8005b12:	f2c2 0400 	movt	r4, #8192	; 0x2000
 8005b16:	4605      	mov	r5, r0
 8005b18:	4608      	mov	r0, r1
 8005b1a:	2300      	movs	r3, #0
 8005b1c:	6023      	str	r3, [r4, #0]
 8005b1e:	f7fe f907 	bl	8003d30 <_sbrk>
 8005b22:	f1b0 3fff 	cmp.w	r0, #4294967295
 8005b26:	d000      	beq.n	8005b2a <_sbrk_r+0x1e>
 8005b28:	bd38      	pop	{r3, r4, r5, pc}
 8005b2a:	6823      	ldr	r3, [r4, #0]
 8005b2c:	2b00      	cmp	r3, #0
 8005b2e:	d0fb      	beq.n	8005b28 <_sbrk_r+0x1c>
 8005b30:	602b      	str	r3, [r5, #0]
 8005b32:	bd38      	pop	{r3, r4, r5, pc}

08005b34 <strcmp>:
 8005b34:	ea80 0201 	eor.w	r2, r0, r1
 8005b38:	f012 0f03 	tst.w	r2, #3
 8005b3c:	d13a      	bne.n	8005bb4 <strcmp_unaligned>
 8005b3e:	f010 0203 	ands.w	r2, r0, #3
 8005b42:	f020 0003 	bic.w	r0, r0, #3
 8005b46:	f021 0103 	bic.w	r1, r1, #3
 8005b4a:	f850 cb04 	ldr.w	ip, [r0], #4
 8005b4e:	bf08      	it	eq
 8005b50:	f851 3b04 	ldreq.w	r3, [r1], #4
 8005b54:	d00d      	beq.n	8005b72 <strcmp+0x3e>
 8005b56:	f082 0203 	eor.w	r2, r2, #3
 8005b5a:	ea4f 02c2 	mov.w	r2, r2, lsl #3
 8005b5e:	f06f 437f 	mvn.w	r3, #4278190080	; 0xff000000
 8005b62:	fa23 f202 	lsr.w	r2, r3, r2
 8005b66:	f851 3b04 	ldr.w	r3, [r1], #4
 8005b6a:	ea4c 0c02 	orr.w	ip, ip, r2
 8005b6e:	ea43 0302 	orr.w	r3, r3, r2
 8005b72:	bf00      	nop
 8005b74:	f1ac 3201 	sub.w	r2, ip, #16843009	; 0x1010101
 8005b78:	459c      	cmp	ip, r3
 8005b7a:	bf01      	itttt	eq
 8005b7c:	ea22 020c 	biceq.w	r2, r2, ip
 8005b80:	f012 3f80 	tsteq.w	r2, #2155905152	; 0x80808080
 8005b84:	f850 cb04 	ldreq.w	ip, [r0], #4
 8005b88:	f851 3b04 	ldreq.w	r3, [r1], #4
 8005b8c:	d0f2      	beq.n	8005b74 <strcmp+0x40>
 8005b8e:	ea4f 600c 	mov.w	r0, ip, lsl #24
 8005b92:	ea4f 2c1c 	mov.w	ip, ip, lsr #8
 8005b96:	2801      	cmp	r0, #1
 8005b98:	bf28      	it	cs
 8005b9a:	ebb0 6f03 	cmpcs.w	r0, r3, lsl #24
 8005b9e:	bf08      	it	eq
 8005ba0:	0a1b      	lsreq	r3, r3, #8
 8005ba2:	d0f4      	beq.n	8005b8e <strcmp+0x5a>
 8005ba4:	f003 03ff 	and.w	r3, r3, #255	; 0xff
 8005ba8:	ea4f 6010 	mov.w	r0, r0, lsr #24
 8005bac:	eba0 0003 	sub.w	r0, r0, r3
 8005bb0:	4770      	bx	lr
 8005bb2:	bf00      	nop

08005bb4 <strcmp_unaligned>:
 8005bb4:	f010 0f03 	tst.w	r0, #3
 8005bb8:	d00a      	beq.n	8005bd0 <strcmp_unaligned+0x1c>
 8005bba:	f810 2b01 	ldrb.w	r2, [r0], #1
 8005bbe:	f811 3b01 	ldrb.w	r3, [r1], #1
 8005bc2:	2a01      	cmp	r2, #1
 8005bc4:	bf28      	it	cs
 8005bc6:	429a      	cmpcs	r2, r3
 8005bc8:	d0f4      	beq.n	8005bb4 <strcmp_unaligned>
 8005bca:	eba2 0003 	sub.w	r0, r2, r3
 8005bce:	4770      	bx	lr
 8005bd0:	f84d 5d04 	str.w	r5, [sp, #-4]!
 8005bd4:	f84d 4d04 	str.w	r4, [sp, #-4]!
 8005bd8:	f04f 0201 	mov.w	r2, #1
 8005bdc:	ea42 2202 	orr.w	r2, r2, r2, lsl #8
 8005be0:	ea42 4202 	orr.w	r2, r2, r2, lsl #16
 8005be4:	f001 0c03 	and.w	ip, r1, #3
 8005be8:	f021 0103 	bic.w	r1, r1, #3
 8005bec:	f850 4b04 	ldr.w	r4, [r0], #4
 8005bf0:	f851 5b04 	ldr.w	r5, [r1], #4
 8005bf4:	f1bc 0f02 	cmp.w	ip, #2
 8005bf8:	d026      	beq.n	8005c48 <strcmp_unaligned+0x94>
 8005bfa:	d84b      	bhi.n	8005c94 <strcmp_unaligned+0xe0>
 8005bfc:	f024 4c7f 	bic.w	ip, r4, #4278190080	; 0xff000000
 8005c00:	ebbc 2f15 	cmp.w	ip, r5, lsr #8
 8005c04:	eba4 0302 	sub.w	r3, r4, r2
 8005c08:	ea23 0304 	bic.w	r3, r3, r4
 8005c0c:	d10d      	bne.n	8005c2a <strcmp_unaligned+0x76>
 8005c0e:	ea13 13c2 	ands.w	r3, r3, r2, lsl #7
 8005c12:	bf08      	it	eq
 8005c14:	f851 5b04 	ldreq.w	r5, [r1], #4
 8005c18:	d10a      	bne.n	8005c30 <strcmp_unaligned+0x7c>
 8005c1a:	ea8c 0c04 	eor.w	ip, ip, r4
 8005c1e:	ebbc 6f05 	cmp.w	ip, r5, lsl #24
 8005c22:	d10c      	bne.n	8005c3e <strcmp_unaligned+0x8a>
 8005c24:	f850 4b04 	ldr.w	r4, [r0], #4
 8005c28:	e7e8      	b.n	8005bfc <strcmp_unaligned+0x48>
 8005c2a:	ea4f 2515 	mov.w	r5, r5, lsr #8
 8005c2e:	e05c      	b.n	8005cea <strcmp_unaligned+0x136>
 8005c30:	f033 437f 	bics.w	r3, r3, #4278190080	; 0xff000000
 8005c34:	d152      	bne.n	8005cdc <strcmp_unaligned+0x128>
 8005c36:	780d      	ldrb	r5, [r1, #0]
 8005c38:	ea4f 6c14 	mov.w	ip, r4, lsr #24
 8005c3c:	e055      	b.n	8005cea <strcmp_unaligned+0x136>
 8005c3e:	ea4f 6c14 	mov.w	ip, r4, lsr #24
 8005c42:	f005 05ff 	and.w	r5, r5, #255	; 0xff
 8005c46:	e050      	b.n	8005cea <strcmp_unaligned+0x136>
 8005c48:	ea4f 4c04 	mov.w	ip, r4, lsl #16
 8005c4c:	eba4 0302 	sub.w	r3, r4, r2
 8005c50:	ea4f 4c1c 	mov.w	ip, ip, lsr #16
 8005c54:	ea23 0304 	bic.w	r3, r3, r4
 8005c58:	ebbc 4f15 	cmp.w	ip, r5, lsr #16
 8005c5c:	d117      	bne.n	8005c8e <strcmp_unaligned+0xda>
 8005c5e:	ea13 13c2 	ands.w	r3, r3, r2, lsl #7
 8005c62:	bf08      	it	eq
 8005c64:	f851 5b04 	ldreq.w	r5, [r1], #4
 8005c68:	d107      	bne.n	8005c7a <strcmp_unaligned+0xc6>
 8005c6a:	ea8c 0c04 	eor.w	ip, ip, r4
 8005c6e:	ebbc 4f05 	cmp.w	ip, r5, lsl #16
 8005c72:	d108      	bne.n	8005c86 <strcmp_unaligned+0xd2>
 8005c74:	f850 4b04 	ldr.w	r4, [r0], #4
 8005c78:	e7e6      	b.n	8005c48 <strcmp_unaligned+0x94>
 8005c7a:	041b      	lsls	r3, r3, #16
 8005c7c:	d12e      	bne.n	8005cdc <strcmp_unaligned+0x128>
 8005c7e:	880d      	ldrh	r5, [r1, #0]
 8005c80:	ea4f 4c14 	mov.w	ip, r4, lsr #16
 8005c84:	e031      	b.n	8005cea <strcmp_unaligned+0x136>
 8005c86:	ea4f 4505 	mov.w	r5, r5, lsl #16
 8005c8a:	ea4f 4c14 	mov.w	ip, r4, lsr #16
 8005c8e:	ea4f 4515 	mov.w	r5, r5, lsr #16
 8005c92:	e02a      	b.n	8005cea <strcmp_unaligned+0x136>
 8005c94:	f004 0cff 	and.w	ip, r4, #255	; 0xff
 8005c98:	ebbc 6f15 	cmp.w	ip, r5, lsr #24
 8005c9c:	eba4 0302 	sub.w	r3, r4, r2
 8005ca0:	ea23 0304 	bic.w	r3, r3, r4
 8005ca4:	d10d      	bne.n	8005cc2 <strcmp_unaligned+0x10e>
 8005ca6:	ea13 13c2 	ands.w	r3, r3, r2, lsl #7
 8005caa:	bf08      	it	eq
 8005cac:	f851 5b04 	ldreq.w	r5, [r1], #4
 8005cb0:	d10a      	bne.n	8005cc8 <strcmp_unaligned+0x114>
 8005cb2:	ea8c 0c04 	eor.w	ip, ip, r4
 8005cb6:	ebbc 2f05 	cmp.w	ip, r5, lsl #8
 8005cba:	d10a      	bne.n	8005cd2 <strcmp_unaligned+0x11e>
 8005cbc:	f850 4b04 	ldr.w	r4, [r0], #4
 8005cc0:	e7e8      	b.n	8005c94 <strcmp_unaligned+0xe0>
 8005cc2:	ea4f 6515 	mov.w	r5, r5, lsr #24
 8005cc6:	e010      	b.n	8005cea <strcmp_unaligned+0x136>
 8005cc8:	f014 0fff 	tst.w	r4, #255	; 0xff
 8005ccc:	d006      	beq.n	8005cdc <strcmp_unaligned+0x128>
 8005cce:	f851 5b04 	ldr.w	r5, [r1], #4
 8005cd2:	ea4f 2c14 	mov.w	ip, r4, lsr #8
 8005cd6:	f025 457f 	bic.w	r5, r5, #4278190080	; 0xff000000
 8005cda:	e006      	b.n	8005cea <strcmp_unaligned+0x136>
 8005cdc:	f04f 0000 	mov.w	r0, #0
 8005ce0:	f85d 4b04 	ldr.w	r4, [sp], #4
 8005ce4:	f85d 5b04 	ldr.w	r5, [sp], #4
 8005ce8:	4770      	bx	lr
 8005cea:	f00c 02ff 	and.w	r2, ip, #255	; 0xff
 8005cee:	f005 00ff 	and.w	r0, r5, #255	; 0xff
 8005cf2:	2801      	cmp	r0, #1
 8005cf4:	bf28      	it	cs
 8005cf6:	4290      	cmpcs	r0, r2
 8005cf8:	bf04      	itt	eq
 8005cfa:	ea4f 2c1c 	moveq.w	ip, ip, lsr #8
 8005cfe:	0a2d      	lsreq	r5, r5, #8
 8005d00:	d0f3      	beq.n	8005cea <strcmp_unaligned+0x136>
 8005d02:	eba2 0000 	sub.w	r0, r2, r0
 8005d06:	f85d 4b04 	ldr.w	r4, [sp], #4
 8005d0a:	f85d 5b04 	ldr.w	r5, [sp], #4
 8005d0e:	4770      	bx	lr

08005d10 <strlen>:
 8005d10:	f020 0103 	bic.w	r1, r0, #3
 8005d14:	f010 0003 	ands.w	r0, r0, #3
 8005d18:	f1c0 0000 	rsb	r0, r0, #0
 8005d1c:	f851 3b04 	ldr.w	r3, [r1], #4
 8005d20:	f100 0c04 	add.w	ip, r0, #4
 8005d24:	ea4f 0ccc 	mov.w	ip, ip, lsl #3
 8005d28:	f06f 0200 	mvn.w	r2, #0
 8005d2c:	bf1c      	itt	ne
 8005d2e:	fa22 f20c 	lsrne.w	r2, r2, ip
 8005d32:	4313      	orrne	r3, r2
 8005d34:	f04f 0c01 	mov.w	ip, #1
 8005d38:	ea4c 2c0c 	orr.w	ip, ip, ip, lsl #8
 8005d3c:	ea4c 4c0c 	orr.w	ip, ip, ip, lsl #16
 8005d40:	eba3 020c 	sub.w	r2, r3, ip
 8005d44:	ea22 0203 	bic.w	r2, r2, r3
 8005d48:	ea12 12cc 	ands.w	r2, r2, ip, lsl #7
 8005d4c:	bf04      	itt	eq
 8005d4e:	f851 3b04 	ldreq.w	r3, [r1], #4
 8005d52:	3004      	addeq	r0, #4
 8005d54:	d0f4      	beq.n	8005d40 <strlen+0x30>
 8005d56:	f013 0fff 	tst.w	r3, #255	; 0xff
 8005d5a:	bf1f      	itttt	ne
 8005d5c:	3001      	addne	r0, #1
 8005d5e:	f413 4f7f 	tstne.w	r3, #65280	; 0xff00
 8005d62:	3001      	addne	r0, #1
 8005d64:	f413 0f7f 	tstne.w	r3, #16711680	; 0xff0000
 8005d68:	bf18      	it	ne
 8005d6a:	3001      	addne	r0, #1
 8005d6c:	4770      	bx	lr
 8005d6e:	bf00      	nop

08005d70 <critical_factorization>:
 8005d70:	2301      	movs	r3, #1
 8005d72:	e92d 07f0 	stmdb	sp!, {r4, r5, r6, r7, r8, r9, sl}
 8005d76:	461d      	mov	r5, r3
 8005d78:	2600      	movs	r6, #0
 8005d7a:	f04f 37ff 	mov.w	r7, #4294967295
 8005d7e:	19ac      	adds	r4, r5, r6
 8005d80:	eb00 0c07 	add.w	ip, r0, r7
 8005d84:	428c      	cmp	r4, r1
 8005d86:	d20d      	bcs.n	8005da4 <critical_factorization+0x34>
 8005d88:	f81c c005 	ldrb.w	ip, [ip, r5]
 8005d8c:	f810 8004 	ldrb.w	r8, [r0, r4]
 8005d90:	45e0      	cmp	r8, ip
 8005d92:	d22e      	bcs.n	8005df2 <critical_factorization+0x82>
 8005d94:	2501      	movs	r5, #1
 8005d96:	4626      	mov	r6, r4
 8005d98:	1be3      	subs	r3, r4, r7
 8005d9a:	19ac      	adds	r4, r5, r6
 8005d9c:	428c      	cmp	r4, r1
 8005d9e:	eb00 0c07 	add.w	ip, r0, r7
 8005da2:	d3f1      	bcc.n	8005d88 <critical_factorization+0x18>
 8005da4:	f04f 0901 	mov.w	r9, #1
 8005da8:	2600      	movs	r6, #0
 8005daa:	464d      	mov	r5, r9
 8005dac:	f04f 3cff 	mov.w	ip, #4294967295
 8005db0:	6013      	str	r3, [r2, #0]
 8005db2:	19ac      	adds	r4, r5, r6
 8005db4:	eb00 080c 	add.w	r8, r0, ip
 8005db8:	42a1      	cmp	r1, r4
 8005dba:	d90e      	bls.n	8005dda <critical_factorization+0x6a>
 8005dbc:	f818 8005 	ldrb.w	r8, [r8, r5]
 8005dc0:	f810 a004 	ldrb.w	sl, [r0, r4]
 8005dc4:	45c2      	cmp	sl, r8
 8005dc6:	d91a      	bls.n	8005dfe <critical_factorization+0x8e>
 8005dc8:	2501      	movs	r5, #1
 8005dca:	4626      	mov	r6, r4
 8005dcc:	ebcc 0904 	rsb	r9, ip, r4
 8005dd0:	19ac      	adds	r4, r5, r6
 8005dd2:	42a1      	cmp	r1, r4
 8005dd4:	eb00 080c 	add.w	r8, r0, ip
 8005dd8:	d8f0      	bhi.n	8005dbc <critical_factorization+0x4c>
 8005dda:	f10c 0001 	add.w	r0, ip, #1
 8005dde:	3701      	adds	r7, #1
 8005de0:	42b8      	cmp	r0, r7
 8005de2:	bf3c      	itt	cc
 8005de4:	4699      	movcc	r9, r3
 8005de6:	4638      	movcc	r0, r7
 8005de8:	f8c2 9000 	str.w	r9, [r2]
 8005dec:	e8bd 07f0 	ldmia.w	sp!, {r4, r5, r6, r7, r8, r9, sl}
 8005df0:	4770      	bx	lr
 8005df2:	d00b      	beq.n	8005e0c <critical_factorization+0x9c>
 8005df4:	2301      	movs	r3, #1
 8005df6:	4637      	mov	r7, r6
 8005df8:	461d      	mov	r5, r3
 8005dfa:	18f6      	adds	r6, r6, r3
 8005dfc:	e7bf      	b.n	8005d7e <critical_factorization+0xe>
 8005dfe:	d009      	beq.n	8005e14 <critical_factorization+0xa4>
 8005e00:	f04f 0901 	mov.w	r9, #1
 8005e04:	46b4      	mov	ip, r6
 8005e06:	464d      	mov	r5, r9
 8005e08:	444e      	add	r6, r9
 8005e0a:	e7d2      	b.n	8005db2 <critical_factorization+0x42>
 8005e0c:	429d      	cmp	r5, r3
 8005e0e:	d005      	beq.n	8005e1c <critical_factorization+0xac>
 8005e10:	3501      	adds	r5, #1
 8005e12:	e7b4      	b.n	8005d7e <critical_factorization+0xe>
 8005e14:	454d      	cmp	r5, r9
 8005e16:	d005      	beq.n	8005e24 <critical_factorization+0xb4>
 8005e18:	3501      	adds	r5, #1
 8005e1a:	e7ca      	b.n	8005db2 <critical_factorization+0x42>
 8005e1c:	462b      	mov	r3, r5
 8005e1e:	4626      	mov	r6, r4
 8005e20:	2501      	movs	r5, #1
 8005e22:	e7ac      	b.n	8005d7e <critical_factorization+0xe>
 8005e24:	46a9      	mov	r9, r5
 8005e26:	4626      	mov	r6, r4
 8005e28:	2501      	movs	r5, #1
 8005e2a:	e7c2      	b.n	8005db2 <critical_factorization+0x42>

08005e2c <two_way_long_needle>:
 8005e2c:	e92d 4ff0 	stmdb	sp!, {r4, r5, r6, r7, r8, r9, sl, fp, lr}
 8005e30:	f5ad 6d82 	sub.w	sp, sp, #1040	; 0x410
 8005e34:	b081      	sub	sp, #4
 8005e36:	4614      	mov	r4, r2
 8005e38:	4607      	mov	r7, r0
 8005e3a:	4610      	mov	r0, r2
 8005e3c:	f50d 6280 	add.w	r2, sp, #1024	; 0x400
 8005e40:	468b      	mov	fp, r1
 8005e42:	320c      	adds	r2, #12
 8005e44:	4619      	mov	r1, r3
 8005e46:	461d      	mov	r5, r3
 8005e48:	f7ff ff92 	bl	8005d70 <critical_factorization>
 8005e4c:	ae03      	add	r6, sp, #12
 8005e4e:	a904      	add	r1, sp, #16
 8005e50:	f501 727e 	add.w	r2, r1, #1016	; 0x3f8
 8005e54:	1f33      	subs	r3, r6, #4
 8005e56:	9000      	str	r0, [sp, #0]
 8005e58:	f843 5f04 	str.w	r5, [r3, #4]!
 8005e5c:	4293      	cmp	r3, r2
 8005e5e:	d1fb      	bne.n	8005e58 <two_way_long_needle+0x2c>
 8005e60:	b14d      	cbz	r5, 8005e76 <two_way_long_needle+0x4a>
 8005e62:	1e68      	subs	r0, r5, #1
 8005e64:	2300      	movs	r3, #0
 8005e66:	5ce2      	ldrb	r2, [r4, r3]
 8005e68:	1ac1      	subs	r1, r0, r3
 8005e6a:	3301      	adds	r3, #1
 8005e6c:	ae03      	add	r6, sp, #12
 8005e6e:	42ab      	cmp	r3, r5
 8005e70:	f846 1022 	str.w	r1, [r6, r2, lsl #2]
 8005e74:	d1f7      	bne.n	8005e66 <two_way_long_needle+0x3a>
 8005e76:	f8dd 140c 	ldr.w	r1, [sp, #1036]	; 0x40c
 8005e7a:	4620      	mov	r0, r4
 8005e7c:	9a00      	ldr	r2, [sp, #0]
 8005e7e:	1861      	adds	r1, r4, r1
 8005e80:	f000 fc1e 	bl	80066c0 <memcmp>
 8005e84:	2800      	cmp	r0, #0
 8005e86:	d177      	bne.n	8005f78 <two_way_long_needle+0x14c>
 8005e88:	9900      	ldr	r1, [sp, #0]
 8005e8a:	4681      	mov	r9, r0
 8005e8c:	f105 38ff 	add.w	r8, r5, #4294967295
 8005e90:	4606      	mov	r6, r0
 8005e92:	f1c1 0201 	rsb	r2, r1, #1
 8005e96:	9201      	str	r2, [sp, #4]
 8005e98:	465a      	mov	r2, fp
 8005e9a:	46ab      	mov	fp, r5
 8005e9c:	eb09 050b 	add.w	r5, r9, fp
 8005ea0:	f101 3aff 	add.w	sl, r1, #4294967295
 8005ea4:	18b8      	adds	r0, r7, r2
 8005ea6:	2100      	movs	r1, #0
 8005ea8:	1aaa      	subs	r2, r5, r2
 8005eaa:	f000 fbc3 	bl	8006634 <memchr>
 8005eae:	2800      	cmp	r0, #0
 8005eb0:	d14f      	bne.n	8005f52 <two_way_long_needle+0x126>
 8005eb2:	2d00      	cmp	r5, #0
 8005eb4:	f000 80c0 	beq.w	8006038 <two_way_long_needle+0x20c>
 8005eb8:	197b      	adds	r3, r7, r5
 8005eba:	a903      	add	r1, sp, #12
 8005ebc:	f813 3c01 	ldrb.w	r3, [r3, #-1]
 8005ec0:	f851 3023 	ldr.w	r3, [r1, r3, lsl #2]
 8005ec4:	2b00      	cmp	r3, #0
 8005ec6:	d14c      	bne.n	8005f62 <two_way_long_needle+0x136>
 8005ec8:	9b00      	ldr	r3, [sp, #0]
 8005eca:	429e      	cmp	r6, r3
 8005ecc:	bf28      	it	cs
 8005ece:	4633      	movcs	r3, r6
 8005ed0:	4598      	cmp	r8, r3
 8005ed2:	d90f      	bls.n	8005ef4 <two_way_long_needle+0xc8>
 8005ed4:	eb03 0109 	add.w	r1, r3, r9
 8005ed8:	5ce0      	ldrb	r0, [r4, r3]
 8005eda:	187a      	adds	r2, r7, r1
 8005edc:	5c79      	ldrb	r1, [r7, r1]
 8005ede:	4288      	cmp	r0, r1
 8005ee0:	d005      	beq.n	8005eee <two_way_long_needle+0xc2>
 8005ee2:	e038      	b.n	8005f56 <two_way_long_needle+0x12a>
 8005ee4:	f812 1f01 	ldrb.w	r1, [r2, #1]!
 8005ee8:	5ce0      	ldrb	r0, [r4, r3]
 8005eea:	4288      	cmp	r0, r1
 8005eec:	d133      	bne.n	8005f56 <two_way_long_needle+0x12a>
 8005eee:	3301      	adds	r3, #1
 8005ef0:	4598      	cmp	r8, r3
 8005ef2:	d8f7      	bhi.n	8005ee4 <two_way_long_needle+0xb8>
 8005ef4:	9a00      	ldr	r2, [sp, #0]
 8005ef6:	4296      	cmp	r6, r2
 8005ef8:	f080 80a4 	bcs.w	8006044 <two_way_long_needle+0x218>
 8005efc:	eb07 0209 	add.w	r2, r7, r9
 8005f00:	f814 100a 	ldrb.w	r1, [r4, sl]
 8005f04:	4653      	mov	r3, sl
 8005f06:	f812 200a 	ldrb.w	r2, [r2, sl]
 8005f0a:	4291      	cmp	r1, r2
 8005f0c:	bf04      	itt	eq
 8005f0e:	eb0a 0109 	addeq.w	r1, sl, r9
 8005f12:	1879      	addeq	r1, r7, r1
 8005f14:	d007      	beq.n	8005f26 <two_way_long_needle+0xfa>
 8005f16:	e095      	b.n	8006044 <two_way_long_needle+0x218>
 8005f18:	f814 c002 	ldrb.w	ip, [r4, r2]
 8005f1c:	f811 0d01 	ldrb.w	r0, [r1, #-1]!
 8005f20:	4584      	cmp	ip, r0
 8005f22:	d103      	bne.n	8005f2c <two_way_long_needle+0x100>
 8005f24:	4613      	mov	r3, r2
 8005f26:	1e5a      	subs	r2, r3, #1
 8005f28:	42b3      	cmp	r3, r6
 8005f2a:	d1f5      	bne.n	8005f18 <two_way_long_needle+0xec>
 8005f2c:	3601      	adds	r6, #1
 8005f2e:	429e      	cmp	r6, r3
 8005f30:	f200 808d 	bhi.w	800604e <two_way_long_needle+0x222>
 8005f34:	f8dd 640c 	ldr.w	r6, [sp, #1036]	; 0x40c
 8005f38:	462a      	mov	r2, r5
 8005f3a:	44b1      	add	r9, r6
 8005f3c:	ebc6 060b 	rsb	r6, r6, fp
 8005f40:	eb09 050b 	add.w	r5, r9, fp
 8005f44:	18b8      	adds	r0, r7, r2
 8005f46:	2100      	movs	r1, #0
 8005f48:	1aaa      	subs	r2, r5, r2
 8005f4a:	f000 fb73 	bl	8006634 <memchr>
 8005f4e:	2800      	cmp	r0, #0
 8005f50:	d0af      	beq.n	8005eb2 <two_way_long_needle+0x86>
 8005f52:	2000      	movs	r0, #0
 8005f54:	e071      	b.n	800603a <two_way_long_needle+0x20e>
 8005f56:	9a01      	ldr	r2, [sp, #4]
 8005f58:	2600      	movs	r6, #0
 8005f5a:	4491      	add	r9, r2
 8005f5c:	4499      	add	r9, r3
 8005f5e:	462a      	mov	r2, r5
 8005f60:	e7ee      	b.n	8005f40 <two_way_long_needle+0x114>
 8005f62:	2e00      	cmp	r6, #0
 8005f64:	d0fa      	beq.n	8005f5c <two_way_long_needle+0x130>
 8005f66:	f8dd 240c 	ldr.w	r2, [sp, #1036]	; 0x40c
 8005f6a:	4293      	cmp	r3, r2
 8005f6c:	bf3c      	itt	cc
 8005f6e:	ebc2 030b 	rsbcc	r3, r2, fp
 8005f72:	4606      	movcc	r6, r0
 8005f74:	4499      	add	r9, r3
 8005f76:	e7f2      	b.n	8005f5e <two_way_long_needle+0x132>
 8005f78:	9e00      	ldr	r6, [sp, #0]
 8005f7a:	f04f 0800 	mov.w	r8, #0
 8005f7e:	9900      	ldr	r1, [sp, #0]
 8005f80:	1bab      	subs	r3, r5, r6
 8005f82:	42b3      	cmp	r3, r6
 8005f84:	bf38      	it	cc
 8005f86:	4633      	movcc	r3, r6
 8005f88:	f1c1 0201 	rsb	r2, r1, #1
 8005f8c:	1e6e      	subs	r6, r5, #1
 8005f8e:	9201      	str	r2, [sp, #4]
 8005f90:	f101 3aff 	add.w	sl, r1, #4294967295
 8005f94:	465a      	mov	r2, fp
 8005f96:	4689      	mov	r9, r1
 8005f98:	46ab      	mov	fp, r5
 8005f9a:	3301      	adds	r3, #1
 8005f9c:	f8cd 340c 	str.w	r3, [sp, #1036]	; 0x40c
 8005fa0:	eb08 050b 	add.w	r5, r8, fp
 8005fa4:	18b8      	adds	r0, r7, r2
 8005fa6:	2100      	movs	r1, #0
 8005fa8:	1aaa      	subs	r2, r5, r2
 8005faa:	f000 fb43 	bl	8006634 <memchr>
 8005fae:	2800      	cmp	r0, #0
 8005fb0:	d1cf      	bne.n	8005f52 <two_way_long_needle+0x126>
 8005fb2:	2d00      	cmp	r5, #0
 8005fb4:	d040      	beq.n	8006038 <two_way_long_needle+0x20c>
 8005fb6:	197b      	adds	r3, r7, r5
 8005fb8:	a903      	add	r1, sp, #12
 8005fba:	f813 3c01 	ldrb.w	r3, [r3, #-1]
 8005fbe:	f851 3023 	ldr.w	r3, [r1, r3, lsl #2]
 8005fc2:	2b00      	cmp	r3, #0
 8005fc4:	d130      	bne.n	8006028 <two_way_long_needle+0x1fc>
 8005fc6:	45b1      	cmp	r9, r6
 8005fc8:	d213      	bcs.n	8005ff2 <two_way_long_needle+0x1c6>
 8005fca:	eb08 0309 	add.w	r3, r8, r9
 8005fce:	f814 1009 	ldrb.w	r1, [r4, r9]
 8005fd2:	18fa      	adds	r2, r7, r3
 8005fd4:	5cfb      	ldrb	r3, [r7, r3]
 8005fd6:	4299      	cmp	r1, r3
 8005fd8:	bf18      	it	ne
 8005fda:	464b      	movne	r3, r9
 8005fdc:	d127      	bne.n	800602e <two_way_long_needle+0x202>
 8005fde:	464b      	mov	r3, r9
 8005fe0:	e004      	b.n	8005fec <two_way_long_needle+0x1c0>
 8005fe2:	f812 1f01 	ldrb.w	r1, [r2, #1]!
 8005fe6:	5ce0      	ldrb	r0, [r4, r3]
 8005fe8:	4288      	cmp	r0, r1
 8005fea:	d120      	bne.n	800602e <two_way_long_needle+0x202>
 8005fec:	3301      	adds	r3, #1
 8005fee:	42b3      	cmp	r3, r6
 8005ff0:	d3f7      	bcc.n	8005fe2 <two_way_long_needle+0x1b6>
 8005ff2:	f1ba 3fff 	cmp.w	sl, #4294967295
 8005ff6:	4653      	mov	r3, sl
 8005ff8:	d02c      	beq.n	8006054 <two_way_long_needle+0x228>
 8005ffa:	eb07 0c08 	add.w	ip, r7, r8
 8005ffe:	f814 100a 	ldrb.w	r1, [r4, sl]
 8006002:	f81c 200a 	ldrb.w	r2, [ip, sl]
 8006006:	4291      	cmp	r1, r2
 8006008:	d10c      	bne.n	8006024 <two_way_long_needle+0x1f8>
 800600a:	eb0a 0208 	add.w	r2, sl, r8
 800600e:	18ba      	adds	r2, r7, r2
 8006010:	e004      	b.n	800601c <two_way_long_needle+0x1f0>
 8006012:	5ce0      	ldrb	r0, [r4, r3]
 8006014:	f812 1d01 	ldrb.w	r1, [r2, #-1]!
 8006018:	4288      	cmp	r0, r1
 800601a:	d103      	bne.n	8006024 <two_way_long_needle+0x1f8>
 800601c:	3b01      	subs	r3, #1
 800601e:	d2f8      	bcs.n	8006012 <two_way_long_needle+0x1e6>
 8006020:	4660      	mov	r0, ip
 8006022:	e00a      	b.n	800603a <two_way_long_needle+0x20e>
 8006024:	f8dd 340c 	ldr.w	r3, [sp, #1036]	; 0x40c
 8006028:	4498      	add	r8, r3
 800602a:	462a      	mov	r2, r5
 800602c:	e7b8      	b.n	8005fa0 <two_way_long_needle+0x174>
 800602e:	9901      	ldr	r1, [sp, #4]
 8006030:	462a      	mov	r2, r5
 8006032:	4488      	add	r8, r1
 8006034:	4498      	add	r8, r3
 8006036:	e7b3      	b.n	8005fa0 <two_way_long_needle+0x174>
 8006038:	4628      	mov	r0, r5
 800603a:	b005      	add	sp, #20
 800603c:	f50d 6d80 	add.w	sp, sp, #1024	; 0x400
 8006040:	e8bd 8ff0 	ldmia.w	sp!, {r4, r5, r6, r7, r8, r9, sl, fp, pc}
 8006044:	9b00      	ldr	r3, [sp, #0]
 8006046:	3601      	adds	r6, #1
 8006048:	429e      	cmp	r6, r3
 800604a:	f67f af73 	bls.w	8005f34 <two_way_long_needle+0x108>
 800604e:	eb07 0009 	add.w	r0, r7, r9
 8006052:	e7f2      	b.n	800603a <two_way_long_needle+0x20e>
 8006054:	eb07 0c08 	add.w	ip, r7, r8
 8006058:	4660      	mov	r0, ip
 800605a:	e7ee      	b.n	800603a <two_way_long_needle+0x20e>

0800605c <strstr>:
 800605c:	e92d 4ff0 	stmdb	sp!, {r4, r5, r6, r7, r8, r9, sl, fp, lr}
 8006060:	4683      	mov	fp, r0
 8006062:	7803      	ldrb	r3, [r0, #0]
 8006064:	b085      	sub	sp, #20
 8006066:	460c      	mov	r4, r1
 8006068:	2b00      	cmp	r3, #0
 800606a:	f000 80f9 	beq.w	8006260 <strstr+0x204>
 800606e:	780a      	ldrb	r2, [r1, #0]
 8006070:	b1a2      	cbz	r2, 800609c <strstr+0x40>
 8006072:	4606      	mov	r6, r0
 8006074:	3101      	adds	r1, #1
 8006076:	2001      	movs	r0, #1
 8006078:	e002      	b.n	8006080 <strstr+0x24>
 800607a:	f811 2b01 	ldrb.w	r2, [r1], #1
 800607e:	b18a      	cbz	r2, 80060a4 <strstr+0x48>
 8006080:	4293      	cmp	r3, r2
 8006082:	bf14      	ite	ne
 8006084:	2000      	movne	r0, #0
 8006086:	f000 0001 	andeq.w	r0, r0, #1
 800608a:	f816 3f01 	ldrb.w	r3, [r6, #1]!
 800608e:	460d      	mov	r5, r1
 8006090:	2b00      	cmp	r3, #0
 8006092:	d1f2      	bne.n	800607a <strstr+0x1e>
 8006094:	782b      	ldrb	r3, [r5, #0]
 8006096:	b12b      	cbz	r3, 80060a4 <strstr+0x48>
 8006098:	f04f 0b00 	mov.w	fp, #0
 800609c:	4658      	mov	r0, fp
 800609e:	b005      	add	sp, #20
 80060a0:	e8bd 8ff0 	ldmia.w	sp!, {r4, r5, r6, r7, r8, r9, sl, fp, pc}
 80060a4:	2800      	cmp	r0, #0
 80060a6:	d1f9      	bne.n	800609c <strstr+0x40>
 80060a8:	f10b 0001 	add.w	r0, fp, #1
 80060ac:	7821      	ldrb	r1, [r4, #0]
 80060ae:	f000 fb39 	bl	8006724 <strchr>
 80060b2:	1b2d      	subs	r5, r5, r4
 80060b4:	f1a5 0201 	sub.w	r2, r5, #1
 80060b8:	4253      	negs	r3, r2
 80060ba:	eb43 0302 	adc.w	r3, r3, r2
 80060be:	2800      	cmp	r0, #0
 80060c0:	bf08      	it	eq
 80060c2:	f043 0301 	orreq.w	r3, r3, #1
 80060c6:	4607      	mov	r7, r0
 80060c8:	b983      	cbnz	r3, 80060ec <strstr+0x90>
 80060ca:	eb0b 0805 	add.w	r8, fp, r5
 80060ce:	4540      	cmp	r0, r8
 80060d0:	bf94      	ite	ls
 80060d2:	ebc0 0808 	rsbls	r8, r0, r8
 80060d6:	f04f 0801 	movhi.w	r8, #1
 80060da:	2d1f      	cmp	r5, #31
 80060dc:	d908      	bls.n	80060f0 <strstr+0x94>
 80060de:	4641      	mov	r1, r8
 80060e0:	4622      	mov	r2, r4
 80060e2:	462b      	mov	r3, r5
 80060e4:	f7ff fea2 	bl	8005e2c <two_way_long_needle>
 80060e8:	4683      	mov	fp, r0
 80060ea:	e7d7      	b.n	800609c <strstr+0x40>
 80060ec:	4683      	mov	fp, r0
 80060ee:	e7d5      	b.n	800609c <strstr+0x40>
 80060f0:	4629      	mov	r1, r5
 80060f2:	aa03      	add	r2, sp, #12
 80060f4:	4620      	mov	r0, r4
 80060f6:	f7ff fe3b 	bl	8005d70 <critical_factorization>
 80060fa:	9903      	ldr	r1, [sp, #12]
 80060fc:	1861      	adds	r1, r4, r1
 80060fe:	4681      	mov	r9, r0
 8006100:	4620      	mov	r0, r4
 8006102:	464a      	mov	r2, r9
 8006104:	f000 fadc 	bl	80066c0 <memcmp>
 8006108:	2800      	cmp	r0, #0
 800610a:	d14f      	bne.n	80061ac <strstr+0x150>
 800610c:	f109 33ff 	add.w	r3, r9, #4294967295
 8006110:	f1c9 0201 	rsb	r2, r9, #1
 8006114:	4606      	mov	r6, r0
 8006116:	9201      	str	r2, [sp, #4]
 8006118:	4682      	mov	sl, r0
 800611a:	4642      	mov	r2, r8
 800611c:	46c8      	mov	r8, r9
 800611e:	4699      	mov	r9, r3
 8006120:	eb0a 0b05 	add.w	fp, sl, r5
 8006124:	18b8      	adds	r0, r7, r2
 8006126:	2100      	movs	r1, #0
 8006128:	ebc2 020b 	rsb	r2, r2, fp
 800612c:	f000 fa82 	bl	8006634 <memchr>
 8006130:	2800      	cmp	r0, #0
 8006132:	d1b1      	bne.n	8006098 <strstr+0x3c>
 8006134:	f1bb 0f00 	cmp.w	fp, #0
 8006138:	d0b0      	beq.n	800609c <strstr+0x40>
 800613a:	4546      	cmp	r6, r8
 800613c:	bf2c      	ite	cs
 800613e:	4633      	movcs	r3, r6
 8006140:	4643      	movcc	r3, r8
 8006142:	429d      	cmp	r5, r3
 8006144:	d90f      	bls.n	8006166 <strstr+0x10a>
 8006146:	eb03 010a 	add.w	r1, r3, sl
 800614a:	5ce0      	ldrb	r0, [r4, r3]
 800614c:	187a      	adds	r2, r7, r1
 800614e:	5c79      	ldrb	r1, [r7, r1]
 8006150:	4288      	cmp	r0, r1
 8006152:	d005      	beq.n	8006160 <strstr+0x104>
 8006154:	e075      	b.n	8006242 <strstr+0x1e6>
 8006156:	f812 1f01 	ldrb.w	r1, [r2, #1]!
 800615a:	5ce0      	ldrb	r0, [r4, r3]
 800615c:	4288      	cmp	r0, r1
 800615e:	d170      	bne.n	8006242 <strstr+0x1e6>
 8006160:	3301      	adds	r3, #1
 8006162:	429d      	cmp	r5, r3
 8006164:	d1f7      	bne.n	8006156 <strstr+0xfa>
 8006166:	45b0      	cmp	r8, r6
 8006168:	d97d      	bls.n	8006266 <strstr+0x20a>
 800616a:	eb07 020a 	add.w	r2, r7, sl
 800616e:	f814 1009 	ldrb.w	r1, [r4, r9]
 8006172:	464b      	mov	r3, r9
 8006174:	f812 2009 	ldrb.w	r2, [r2, r9]
 8006178:	4291      	cmp	r1, r2
 800617a:	bf02      	ittt	eq
 800617c:	eb09 010a 	addeq.w	r1, r9, sl
 8006180:	46ac      	moveq	ip, r5
 8006182:	1879      	addeq	r1, r7, r1
 8006184:	d006      	beq.n	8006194 <strstr+0x138>
 8006186:	e06e      	b.n	8006266 <strstr+0x20a>
 8006188:	5ca5      	ldrb	r5, [r4, r2]
 800618a:	f811 0d01 	ldrb.w	r0, [r1, #-1]!
 800618e:	4285      	cmp	r5, r0
 8006190:	d103      	bne.n	800619a <strstr+0x13e>
 8006192:	4613      	mov	r3, r2
 8006194:	1e5a      	subs	r2, r3, #1
 8006196:	42b3      	cmp	r3, r6
 8006198:	d1f6      	bne.n	8006188 <strstr+0x12c>
 800619a:	4665      	mov	r5, ip
 800619c:	3601      	adds	r6, #1
 800619e:	429e      	cmp	r6, r3
 80061a0:	d867      	bhi.n	8006272 <strstr+0x216>
 80061a2:	9e03      	ldr	r6, [sp, #12]
 80061a4:	465a      	mov	r2, fp
 80061a6:	44b2      	add	sl, r6
 80061a8:	1bae      	subs	r6, r5, r6
 80061aa:	e7b9      	b.n	8006120 <strstr+0xc4>
 80061ac:	f1c9 0101 	rsb	r1, r9, #1
 80061b0:	ebc9 0305 	rsb	r3, r9, r5
 80061b4:	4642      	mov	r2, r8
 80061b6:	2600      	movs	r6, #0
 80061b8:	f109 3aff 	add.w	sl, r9, #4294967295
 80061bc:	4688      	mov	r8, r1
 80061be:	454b      	cmp	r3, r9
 80061c0:	bf38      	it	cc
 80061c2:	464b      	movcc	r3, r9
 80061c4:	3301      	adds	r3, #1
 80061c6:	9303      	str	r3, [sp, #12]
 80061c8:	eb06 0b05 	add.w	fp, r6, r5
 80061cc:	18b8      	adds	r0, r7, r2
 80061ce:	2100      	movs	r1, #0
 80061d0:	ebc2 020b 	rsb	r2, r2, fp
 80061d4:	f000 fa2e 	bl	8006634 <memchr>
 80061d8:	2800      	cmp	r0, #0
 80061da:	f47f af5d 	bne.w	8006098 <strstr+0x3c>
 80061de:	f1bb 0f00 	cmp.w	fp, #0
 80061e2:	f43f af5b 	beq.w	800609c <strstr+0x40>
 80061e6:	454d      	cmp	r5, r9
 80061e8:	d912      	bls.n	8006210 <strstr+0x1b4>
 80061ea:	eb06 0309 	add.w	r3, r6, r9
 80061ee:	f814 1009 	ldrb.w	r1, [r4, r9]
 80061f2:	18fa      	adds	r2, r7, r3
 80061f4:	5cfb      	ldrb	r3, [r7, r3]
 80061f6:	4299      	cmp	r1, r3
 80061f8:	bf08      	it	eq
 80061fa:	464b      	moveq	r3, r9
 80061fc:	d005      	beq.n	800620a <strstr+0x1ae>
 80061fe:	e026      	b.n	800624e <strstr+0x1f2>
 8006200:	f812 1f01 	ldrb.w	r1, [r2, #1]!
 8006204:	5ce0      	ldrb	r0, [r4, r3]
 8006206:	4288      	cmp	r0, r1
 8006208:	d122      	bne.n	8006250 <strstr+0x1f4>
 800620a:	3301      	adds	r3, #1
 800620c:	429d      	cmp	r5, r3
 800620e:	d1f7      	bne.n	8006200 <strstr+0x1a4>
 8006210:	f1ba 3fff 	cmp.w	sl, #4294967295
 8006214:	4653      	mov	r3, sl
 8006216:	d028      	beq.n	800626a <strstr+0x20e>
 8006218:	eb07 0c06 	add.w	ip, r7, r6
 800621c:	f814 100a 	ldrb.w	r1, [r4, sl]
 8006220:	f81c 200a 	ldrb.w	r2, [ip, sl]
 8006224:	4291      	cmp	r1, r2
 8006226:	d117      	bne.n	8006258 <strstr+0x1fc>
 8006228:	eb0a 0206 	add.w	r2, sl, r6
 800622c:	18ba      	adds	r2, r7, r2
 800622e:	e004      	b.n	800623a <strstr+0x1de>
 8006230:	5ce0      	ldrb	r0, [r4, r3]
 8006232:	f812 1d01 	ldrb.w	r1, [r2, #-1]!
 8006236:	4288      	cmp	r0, r1
 8006238:	d10e      	bne.n	8006258 <strstr+0x1fc>
 800623a:	3b01      	subs	r3, #1
 800623c:	d2f8      	bcs.n	8006230 <strstr+0x1d4>
 800623e:	46e3      	mov	fp, ip
 8006240:	e72c      	b.n	800609c <strstr+0x40>
 8006242:	9a01      	ldr	r2, [sp, #4]
 8006244:	2600      	movs	r6, #0
 8006246:	4492      	add	sl, r2
 8006248:	465a      	mov	r2, fp
 800624a:	449a      	add	sl, r3
 800624c:	e768      	b.n	8006120 <strstr+0xc4>
 800624e:	464b      	mov	r3, r9
 8006250:	4446      	add	r6, r8
 8006252:	465a      	mov	r2, fp
 8006254:	18f6      	adds	r6, r6, r3
 8006256:	e7b7      	b.n	80061c8 <strstr+0x16c>
 8006258:	9b03      	ldr	r3, [sp, #12]
 800625a:	465a      	mov	r2, fp
 800625c:	18f6      	adds	r6, r6, r3
 800625e:	e7b3      	b.n	80061c8 <strstr+0x16c>
 8006260:	460d      	mov	r5, r1
 8006262:	2001      	movs	r0, #1
 8006264:	e716      	b.n	8006094 <strstr+0x38>
 8006266:	4643      	mov	r3, r8
 8006268:	e798      	b.n	800619c <strstr+0x140>
 800626a:	eb07 0c06 	add.w	ip, r7, r6
 800626e:	46e3      	mov	fp, ip
 8006270:	e714      	b.n	800609c <strstr+0x40>
 8006272:	eb07 0b0a 	add.w	fp, r7, sl
 8006276:	e711      	b.n	800609c <strstr+0x40>

08006278 <_strtol_r>:
 8006278:	e92d 4ff0 	stmdb	sp!, {r4, r5, r6, r7, r8, r9, sl, fp, lr}
 800627c:	f240 5464 	movw	r4, #1380	; 0x564
 8006280:	f2c2 0400 	movt	r4, #8192	; 0x2000
 8006284:	b085      	sub	sp, #20
 8006286:	461f      	mov	r7, r3
 8006288:	468c      	mov	ip, r1
 800628a:	6826      	ldr	r6, [r4, #0]
 800628c:	460b      	mov	r3, r1
 800628e:	9003      	str	r0, [sp, #12]
 8006290:	9202      	str	r2, [sp, #8]
 8006292:	f813 4b01 	ldrb.w	r4, [r3], #1
 8006296:	1932      	adds	r2, r6, r4
 8006298:	461d      	mov	r5, r3
 800629a:	f892 b001 	ldrb.w	fp, [r2, #1]
 800629e:	f01b 0b08 	ands.w	fp, fp, #8
 80062a2:	d1f6      	bne.n	8006292 <_strtol_r+0x1a>
 80062a4:	2c2d      	cmp	r4, #45	; 0x2d
 80062a6:	d073      	beq.n	8006390 <_strtol_r+0x118>
 80062a8:	2c2b      	cmp	r4, #43	; 0x2b
 80062aa:	bf08      	it	eq
 80062ac:	f815 4b01 	ldrbeq.w	r4, [r5], #1
 80062b0:	f1d7 0301 	rsbs	r3, r7, #1
 80062b4:	bf38      	it	cc
 80062b6:	2300      	movcc	r3, #0
 80062b8:	2f10      	cmp	r7, #16
 80062ba:	bf14      	ite	ne
 80062bc:	461a      	movne	r2, r3
 80062be:	f043 0201 	orreq.w	r2, r3, #1
 80062c2:	b132      	cbz	r2, 80062d2 <_strtol_r+0x5a>
 80062c4:	2c30      	cmp	r4, #48	; 0x30
 80062c6:	d073      	beq.n	80063b0 <_strtol_r+0x138>
 80062c8:	b11b      	cbz	r3, 80062d2 <_strtol_r+0x5a>
 80062ca:	2c30      	cmp	r4, #48	; 0x30
 80062cc:	f000 8083 	beq.w	80063d6 <_strtol_r+0x15e>
 80062d0:	270a      	movs	r7, #10
 80062d2:	46b9      	mov	r9, r7
 80062d4:	f1bb 0f00 	cmp.w	fp, #0
 80062d8:	4649      	mov	r1, r9
 80062da:	bf0c      	ite	eq
 80062dc:	f06f 4a00 	mvneq.w	sl, #2147483648	; 0x80000000
 80062e0:	f04f 4a00 	movne.w	sl, #2147483648	; 0x80000000
 80062e4:	f8cd c004 	str.w	ip, [sp, #4]
 80062e8:	4650      	mov	r0, sl
 80062ea:	f000 fbcf 	bl	8006a8c <__aeabi_uidivmod>
 80062ee:	4650      	mov	r0, sl
 80062f0:	4688      	mov	r8, r1
 80062f2:	4649      	mov	r1, r9
 80062f4:	f000 fa9c 	bl	8006830 <__aeabi_uidiv>
 80062f8:	1933      	adds	r3, r6, r4
 80062fa:	2200      	movs	r2, #0
 80062fc:	f8dd c004 	ldr.w	ip, [sp, #4]
 8006300:	785b      	ldrb	r3, [r3, #1]
 8006302:	4611      	mov	r1, r2
 8006304:	f013 0f04 	tst.w	r3, #4
 8006308:	d01e      	beq.n	8006348 <_strtol_r+0xd0>
 800630a:	3c30      	subs	r4, #48	; 0x30
 800630c:	42a7      	cmp	r7, r4
 800630e:	dd25      	ble.n	800635c <_strtol_r+0xe4>
 8006310:	4281      	cmp	r1, r0
 8006312:	bf94      	ite	ls
 8006314:	2300      	movls	r3, #0
 8006316:	2301      	movhi	r3, #1
 8006318:	ea53 72d2 	orrs.w	r2, r3, r2, lsr #31
 800631c:	d12e      	bne.n	800637c <_strtol_r+0x104>
 800631e:	1a0a      	subs	r2, r1, r0
 8006320:	4253      	negs	r3, r2
 8006322:	eb43 0302 	adc.w	r3, r3, r2
 8006326:	4544      	cmp	r4, r8
 8006328:	bfd4      	ite	le
 800632a:	2300      	movle	r3, #0
 800632c:	f003 0301 	andgt.w	r3, r3, #1
 8006330:	2b00      	cmp	r3, #0
 8006332:	d123      	bne.n	800637c <_strtol_r+0x104>
 8006334:	fb09 4101 	mla	r1, r9, r1, r4
 8006338:	f815 4b01 	ldrb.w	r4, [r5], #1
 800633c:	2201      	movs	r2, #1
 800633e:	1933      	adds	r3, r6, r4
 8006340:	785b      	ldrb	r3, [r3, #1]
 8006342:	f013 0f04 	tst.w	r3, #4
 8006346:	d1e0      	bne.n	800630a <_strtol_r+0x92>
 8006348:	f013 0303 	ands.w	r3, r3, #3
 800634c:	d006      	beq.n	800635c <_strtol_r+0xe4>
 800634e:	2b01      	cmp	r3, #1
 8006350:	bf14      	ite	ne
 8006352:	2357      	movne	r3, #87	; 0x57
 8006354:	2337      	moveq	r3, #55	; 0x37
 8006356:	1ae4      	subs	r4, r4, r3
 8006358:	42a7      	cmp	r7, r4
 800635a:	dcd9      	bgt.n	8006310 <_strtol_r+0x98>
 800635c:	f1b2 3fff 	cmp.w	r2, #4294967295
 8006360:	d01b      	beq.n	800639a <_strtol_r+0x122>
 8006362:	4608      	mov	r0, r1
 8006364:	f1bb 0f00 	cmp.w	fp, #0
 8006368:	d110      	bne.n	800638c <_strtol_r+0x114>
 800636a:	9b02      	ldr	r3, [sp, #8]
 800636c:	b11b      	cbz	r3, 8006376 <_strtol_r+0xfe>
 800636e:	b952      	cbnz	r2, 8006386 <_strtol_r+0x10e>
 8006370:	9902      	ldr	r1, [sp, #8]
 8006372:	f8c1 c000 	str.w	ip, [r1]
 8006376:	b005      	add	sp, #20
 8006378:	e8bd 8ff0 	ldmia.w	sp!, {r4, r5, r6, r7, r8, r9, sl, fp, pc}
 800637c:	f04f 32ff 	mov.w	r2, #4294967295
 8006380:	f815 4b01 	ldrb.w	r4, [r5], #1
 8006384:	e7db      	b.n	800633e <_strtol_r+0xc6>
 8006386:	f105 3cff 	add.w	ip, r5, #4294967295
 800638a:	e7f1      	b.n	8006370 <_strtol_r+0xf8>
 800638c:	4248      	negs	r0, r1
 800638e:	e7ec      	b.n	800636a <_strtol_r+0xf2>
 8006390:	f815 4b01 	ldrb.w	r4, [r5], #1
 8006394:	f04f 0b01 	mov.w	fp, #1
 8006398:	e78a      	b.n	80062b0 <_strtol_r+0x38>
 800639a:	9903      	ldr	r1, [sp, #12]
 800639c:	f1bb 0f00 	cmp.w	fp, #0
 80063a0:	bf0c      	ite	eq
 80063a2:	f06f 4000 	mvneq.w	r0, #2147483648	; 0x80000000
 80063a6:	f04f 4000 	movne.w	r0, #2147483648	; 0x80000000
 80063aa:	2322      	movs	r3, #34	; 0x22
 80063ac:	600b      	str	r3, [r1, #0]
 80063ae:	e7dc      	b.n	800636a <_strtol_r+0xf2>
 80063b0:	782a      	ldrb	r2, [r5, #0]
 80063b2:	f1a2 0078 	sub.w	r0, r2, #120	; 0x78
 80063b6:	4241      	negs	r1, r0
 80063b8:	eb41 0100 	adc.w	r1, r1, r0
 80063bc:	2a58      	cmp	r2, #88	; 0x58
 80063be:	bf14      	ite	ne
 80063c0:	460a      	movne	r2, r1
 80063c2:	f041 0201 	orreq.w	r2, r1, #1
 80063c6:	2a00      	cmp	r2, #0
 80063c8:	f43f af7e 	beq.w	80062c8 <_strtol_r+0x50>
 80063cc:	2710      	movs	r7, #16
 80063ce:	786c      	ldrb	r4, [r5, #1]
 80063d0:	46b9      	mov	r9, r7
 80063d2:	3502      	adds	r5, #2
 80063d4:	e77e      	b.n	80062d4 <_strtol_r+0x5c>
 80063d6:	2708      	movs	r7, #8
 80063d8:	46b9      	mov	r9, r7
 80063da:	e77b      	b.n	80062d4 <_strtol_r+0x5c>

080063dc <strtol>:
 80063dc:	b430      	push	{r4, r5}
 80063de:	f240 1434 	movw	r4, #308	; 0x134
 80063e2:	f2c2 0400 	movt	r4, #8192	; 0x2000
 80063e6:	460d      	mov	r5, r1
 80063e8:	4613      	mov	r3, r2
 80063ea:	4601      	mov	r1, r0
 80063ec:	462a      	mov	r2, r5
 80063ee:	6820      	ldr	r0, [r4, #0]
 80063f0:	bc30      	pop	{r4, r5}
 80063f2:	e741      	b.n	8006278 <_strtol_r>

080063f4 <_malloc_trim_r>:
 80063f4:	b5f8      	push	{r3, r4, r5, r6, r7, lr}
 80063f6:	f240 1454 	movw	r4, #340	; 0x154
 80063fa:	f2c2 0400 	movt	r4, #8192	; 0x2000
 80063fe:	460f      	mov	r7, r1
 8006400:	4605      	mov	r5, r0
 8006402:	f7ff fb7f 	bl	8005b04 <__malloc_lock>
 8006406:	68a3      	ldr	r3, [r4, #8]
 8006408:	685e      	ldr	r6, [r3, #4]
 800640a:	f026 0603 	bic.w	r6, r6, #3
 800640e:	f506 637e 	add.w	r3, r6, #4064	; 0xfe0
 8006412:	330f      	adds	r3, #15
 8006414:	1bdf      	subs	r7, r3, r7
 8006416:	0b3f      	lsrs	r7, r7, #12
 8006418:	3f01      	subs	r7, #1
 800641a:	033f      	lsls	r7, r7, #12
 800641c:	f5b7 5f80 	cmp.w	r7, #4096	; 0x1000
 8006420:	db07      	blt.n	8006432 <_malloc_trim_r+0x3e>
 8006422:	2100      	movs	r1, #0
 8006424:	4628      	mov	r0, r5
 8006426:	f7ff fb71 	bl	8005b0c <_sbrk_r>
 800642a:	68a3      	ldr	r3, [r4, #8]
 800642c:	199b      	adds	r3, r3, r6
 800642e:	4298      	cmp	r0, r3
 8006430:	d004      	beq.n	800643c <_malloc_trim_r+0x48>
 8006432:	4628      	mov	r0, r5
 8006434:	f7ff fb68 	bl	8005b08 <__malloc_unlock>
 8006438:	2000      	movs	r0, #0
 800643a:	bdf8      	pop	{r3, r4, r5, r6, r7, pc}
 800643c:	4279      	negs	r1, r7
 800643e:	4628      	mov	r0, r5
 8006440:	f7ff fb64 	bl	8005b0c <_sbrk_r>
 8006444:	f1b0 3fff 	cmp.w	r0, #4294967295
 8006448:	d010      	beq.n	800646c <_malloc_trim_r+0x78>
 800644a:	f640 63ec 	movw	r3, #3820	; 0xeec
 800644e:	68a1      	ldr	r1, [r4, #8]
 8006450:	f2c2 0300 	movt	r3, #8192	; 0x2000
 8006454:	1bf6      	subs	r6, r6, r7
 8006456:	4628      	mov	r0, r5
 8006458:	f046 0601 	orr.w	r6, r6, #1
 800645c:	681a      	ldr	r2, [r3, #0]
 800645e:	604e      	str	r6, [r1, #4]
 8006460:	1bd7      	subs	r7, r2, r7
 8006462:	601f      	str	r7, [r3, #0]
 8006464:	f7ff fb50 	bl	8005b08 <__malloc_unlock>
 8006468:	2001      	movs	r0, #1
 800646a:	bdf8      	pop	{r3, r4, r5, r6, r7, pc}
 800646c:	2100      	movs	r1, #0
 800646e:	4628      	mov	r0, r5
 8006470:	f7ff fb4c 	bl	8005b0c <_sbrk_r>
 8006474:	68a3      	ldr	r3, [r4, #8]
 8006476:	1ac2      	subs	r2, r0, r3
 8006478:	2a0f      	cmp	r2, #15
 800647a:	ddda      	ble.n	8006432 <_malloc_trim_r+0x3e>
 800647c:	f240 545c 	movw	r4, #1372	; 0x55c
 8006480:	f640 61ec 	movw	r1, #3820	; 0xeec
 8006484:	f2c2 0400 	movt	r4, #8192	; 0x2000
 8006488:	f2c2 0100 	movt	r1, #8192	; 0x2000
 800648c:	f042 0201 	orr.w	r2, r2, #1
 8006490:	605a      	str	r2, [r3, #4]
 8006492:	6823      	ldr	r3, [r4, #0]
 8006494:	1ac0      	subs	r0, r0, r3
 8006496:	6008      	str	r0, [r1, #0]
 8006498:	e7cb      	b.n	8006432 <_malloc_trim_r+0x3e>
 800649a:	bf00      	nop

0800649c <_free_r>:
 800649c:	e92d 41f0 	stmdb	sp!, {r4, r5, r6, r7, r8, lr}
 80064a0:	460d      	mov	r5, r1
 80064a2:	4604      	mov	r4, r0
 80064a4:	2900      	cmp	r1, #0
 80064a6:	d058      	beq.n	800655a <_free_r+0xbe>
 80064a8:	f7ff fb2c 	bl	8005b04 <__malloc_lock>
 80064ac:	f1a5 0208 	sub.w	r2, r5, #8
 80064b0:	f240 1054 	movw	r0, #340	; 0x154
 80064b4:	6856      	ldr	r6, [r2, #4]
 80064b6:	f2c2 0000 	movt	r0, #8192	; 0x2000
 80064ba:	f026 0301 	bic.w	r3, r6, #1
 80064be:	f8d0 c008 	ldr.w	ip, [r0, #8]
 80064c2:	18d1      	adds	r1, r2, r3
 80064c4:	458c      	cmp	ip, r1
 80064c6:	684f      	ldr	r7, [r1, #4]
 80064c8:	f027 0703 	bic.w	r7, r7, #3
 80064cc:	d065      	beq.n	800659a <_free_r+0xfe>
 80064ce:	f016 0601 	ands.w	r6, r6, #1
 80064d2:	604f      	str	r7, [r1, #4]
 80064d4:	d031      	beq.n	800653a <_free_r+0x9e>
 80064d6:	2600      	movs	r6, #0
 80064d8:	19cd      	adds	r5, r1, r7
 80064da:	686d      	ldr	r5, [r5, #4]
 80064dc:	f015 0f01 	tst.w	r5, #1
 80064e0:	d106      	bne.n	80064f0 <_free_r+0x54>
 80064e2:	19db      	adds	r3, r3, r7
 80064e4:	2e00      	cmp	r6, #0
 80064e6:	d04b      	beq.n	8006580 <_free_r+0xe4>
 80064e8:	688d      	ldr	r5, [r1, #8]
 80064ea:	68c9      	ldr	r1, [r1, #12]
 80064ec:	60e9      	str	r1, [r5, #12]
 80064ee:	608d      	str	r5, [r1, #8]
 80064f0:	f043 0101 	orr.w	r1, r3, #1
 80064f4:	50d3      	str	r3, [r2, r3]
 80064f6:	6051      	str	r1, [r2, #4]
 80064f8:	b9d6      	cbnz	r6, 8006530 <_free_r+0x94>
 80064fa:	f5b3 7f00 	cmp.w	r3, #512	; 0x200
 80064fe:	d32e      	bcc.n	800655e <_free_r+0xc2>
 8006500:	0a59      	lsrs	r1, r3, #9
 8006502:	2904      	cmp	r1, #4
 8006504:	d86b      	bhi.n	80065de <_free_r+0x142>
 8006506:	099e      	lsrs	r6, r3, #6
 8006508:	3638      	adds	r6, #56	; 0x38
 800650a:	00f5      	lsls	r5, r6, #3
 800650c:	1945      	adds	r5, r0, r5
 800650e:	68a9      	ldr	r1, [r5, #8]
 8006510:	42a9      	cmp	r1, r5
 8006512:	d103      	bne.n	800651c <_free_r+0x80>
 8006514:	e069      	b.n	80065ea <_free_r+0x14e>
 8006516:	6889      	ldr	r1, [r1, #8]
 8006518:	428d      	cmp	r5, r1
 800651a:	d004      	beq.n	8006526 <_free_r+0x8a>
 800651c:	6848      	ldr	r0, [r1, #4]
 800651e:	f020 0003 	bic.w	r0, r0, #3
 8006522:	4283      	cmp	r3, r0
 8006524:	d3f7      	bcc.n	8006516 <_free_r+0x7a>
 8006526:	68cb      	ldr	r3, [r1, #12]
 8006528:	60d3      	str	r3, [r2, #12]
 800652a:	6091      	str	r1, [r2, #8]
 800652c:	60ca      	str	r2, [r1, #12]
 800652e:	609a      	str	r2, [r3, #8]
 8006530:	4620      	mov	r0, r4
 8006532:	e8bd 41f0 	ldmia.w	sp!, {r4, r5, r6, r7, r8, lr}
 8006536:	f7ff bae7 	b.w	8005b08 <__malloc_unlock>
 800653a:	f855 5c08 	ldr.w	r5, [r5, #-8]
 800653e:	f100 0c08 	add.w	ip, r0, #8
 8006542:	1b52      	subs	r2, r2, r5
 8006544:	195b      	adds	r3, r3, r5
 8006546:	6895      	ldr	r5, [r2, #8]
 8006548:	4565      	cmp	r5, ip
 800654a:	d046      	beq.n	80065da <_free_r+0x13e>
 800654c:	f8d2 c00c 	ldr.w	ip, [r2, #12]
 8006550:	f8c5 c00c 	str.w	ip, [r5, #12]
 8006554:	f8cc 5008 	str.w	r5, [ip, #8]
 8006558:	e7be      	b.n	80064d8 <_free_r+0x3c>
 800655a:	e8bd 81f0 	ldmia.w	sp!, {r4, r5, r6, r7, r8, pc}
 800655e:	08db      	lsrs	r3, r3, #3
 8006560:	2501      	movs	r5, #1
 8006562:	6846      	ldr	r6, [r0, #4]
 8006564:	eb00 01c3 	add.w	r1, r0, r3, lsl #3
 8006568:	109b      	asrs	r3, r3, #2
 800656a:	fa15 f303 	lsls.w	r3, r5, r3
 800656e:	60d1      	str	r1, [r2, #12]
 8006570:	688d      	ldr	r5, [r1, #8]
 8006572:	ea46 0303 	orr.w	r3, r6, r3
 8006576:	6043      	str	r3, [r0, #4]
 8006578:	6095      	str	r5, [r2, #8]
 800657a:	60ea      	str	r2, [r5, #12]
 800657c:	608a      	str	r2, [r1, #8]
 800657e:	e7d7      	b.n	8006530 <_free_r+0x94>
 8006580:	688d      	ldr	r5, [r1, #8]
 8006582:	4f2b      	ldr	r7, [pc, #172]	; (8006630 <_free_r+0x194>)
 8006584:	42bd      	cmp	r5, r7
 8006586:	d1b0      	bne.n	80064ea <_free_r+0x4e>
 8006588:	60ea      	str	r2, [r5, #12]
 800658a:	f043 0101 	orr.w	r1, r3, #1
 800658e:	60aa      	str	r2, [r5, #8]
 8006590:	60d5      	str	r5, [r2, #12]
 8006592:	6095      	str	r5, [r2, #8]
 8006594:	6051      	str	r1, [r2, #4]
 8006596:	50d3      	str	r3, [r2, r3]
 8006598:	e7ca      	b.n	8006530 <_free_r+0x94>
 800659a:	f016 0f01 	tst.w	r6, #1
 800659e:	443b      	add	r3, r7
 80065a0:	d107      	bne.n	80065b2 <_free_r+0x116>
 80065a2:	f855 1c08 	ldr.w	r1, [r5, #-8]
 80065a6:	1a52      	subs	r2, r2, r1
 80065a8:	185b      	adds	r3, r3, r1
 80065aa:	6895      	ldr	r5, [r2, #8]
 80065ac:	68d1      	ldr	r1, [r2, #12]
 80065ae:	60e9      	str	r1, [r5, #12]
 80065b0:	608d      	str	r5, [r1, #8]
 80065b2:	f240 5160 	movw	r1, #1376	; 0x560
 80065b6:	f043 0501 	orr.w	r5, r3, #1
 80065ba:	f2c2 0100 	movt	r1, #8192	; 0x2000
 80065be:	6055      	str	r5, [r2, #4]
 80065c0:	6082      	str	r2, [r0, #8]
 80065c2:	680a      	ldr	r2, [r1, #0]
 80065c4:	4293      	cmp	r3, r2
 80065c6:	d3b3      	bcc.n	8006530 <_free_r+0x94>
 80065c8:	f640 63e8 	movw	r3, #3816	; 0xee8
 80065cc:	4620      	mov	r0, r4
 80065ce:	f2c2 0300 	movt	r3, #8192	; 0x2000
 80065d2:	6819      	ldr	r1, [r3, #0]
 80065d4:	f7ff ff0e 	bl	80063f4 <_malloc_trim_r>
 80065d8:	e7aa      	b.n	8006530 <_free_r+0x94>
 80065da:	2601      	movs	r6, #1
 80065dc:	e77c      	b.n	80064d8 <_free_r+0x3c>
 80065de:	2914      	cmp	r1, #20
 80065e0:	d80c      	bhi.n	80065fc <_free_r+0x160>
 80065e2:	f101 065b 	add.w	r6, r1, #91	; 0x5b
 80065e6:	00f5      	lsls	r5, r6, #3
 80065e8:	e790      	b.n	800650c <_free_r+0x70>
 80065ea:	2501      	movs	r5, #1
 80065ec:	6847      	ldr	r7, [r0, #4]
 80065ee:	10b6      	asrs	r6, r6, #2
 80065f0:	460b      	mov	r3, r1
 80065f2:	40b5      	lsls	r5, r6
 80065f4:	ea47 0505 	orr.w	r5, r7, r5
 80065f8:	6045      	str	r5, [r0, #4]
 80065fa:	e795      	b.n	8006528 <_free_r+0x8c>
 80065fc:	2954      	cmp	r1, #84	; 0x54
 80065fe:	d803      	bhi.n	8006608 <_free_r+0x16c>
 8006600:	0b1e      	lsrs	r6, r3, #12
 8006602:	366e      	adds	r6, #110	; 0x6e
 8006604:	00f5      	lsls	r5, r6, #3
 8006606:	e781      	b.n	800650c <_free_r+0x70>
 8006608:	f5b1 7faa 	cmp.w	r1, #340	; 0x154
 800660c:	d803      	bhi.n	8006616 <_free_r+0x17a>
 800660e:	0bde      	lsrs	r6, r3, #15
 8006610:	3677      	adds	r6, #119	; 0x77
 8006612:	00f5      	lsls	r5, r6, #3
 8006614:	e77a      	b.n	800650c <_free_r+0x70>
 8006616:	f240 5554 	movw	r5, #1364	; 0x554
 800661a:	42a9      	cmp	r1, r5
 800661c:	d803      	bhi.n	8006626 <_free_r+0x18a>
 800661e:	0c9e      	lsrs	r6, r3, #18
 8006620:	367c      	adds	r6, #124	; 0x7c
 8006622:	00f5      	lsls	r5, r6, #3
 8006624:	e772      	b.n	800650c <_free_r+0x70>
 8006626:	f44f 757c 	mov.w	r5, #1008	; 0x3f0
 800662a:	267e      	movs	r6, #126	; 0x7e
 800662c:	e76e      	b.n	800650c <_free_r+0x70>
 800662e:	bf00      	nop
 8006630:	2000015c 	.word	0x2000015c

08006634 <memchr>:
 8006634:	f010 0f03 	tst.w	r0, #3
 8006638:	4603      	mov	r3, r0
 800663a:	b470      	push	{r4, r5, r6}
 800663c:	b2c9      	uxtb	r1, r1
 800663e:	d011      	beq.n	8006664 <memchr+0x30>
 8006640:	2a00      	cmp	r2, #0
 8006642:	d022      	beq.n	800668a <memchr+0x56>
 8006644:	7803      	ldrb	r3, [r0, #0]
 8006646:	428b      	cmp	r3, r1
 8006648:	d01d      	beq.n	8006686 <memchr+0x52>
 800664a:	3a01      	subs	r2, #1
 800664c:	3001      	adds	r0, #1
 800664e:	e005      	b.n	800665c <memchr+0x28>
 8006650:	b1da      	cbz	r2, 800668a <memchr+0x56>
 8006652:	f810 4b01 	ldrb.w	r4, [r0], #1
 8006656:	3a01      	subs	r2, #1
 8006658:	428c      	cmp	r4, r1
 800665a:	d018      	beq.n	800668e <memchr+0x5a>
 800665c:	f010 0f03 	tst.w	r0, #3
 8006660:	4603      	mov	r3, r0
 8006662:	d1f5      	bne.n	8006650 <memchr+0x1c>
 8006664:	2a03      	cmp	r2, #3
 8006666:	d814      	bhi.n	8006692 <memchr+0x5e>
 8006668:	b17a      	cbz	r2, 800668a <memchr+0x56>
 800666a:	7818      	ldrb	r0, [r3, #0]
 800666c:	4288      	cmp	r0, r1
 800666e:	d00e      	beq.n	800668e <memchr+0x5a>
 8006670:	1e54      	subs	r4, r2, #1
 8006672:	1c5d      	adds	r5, r3, #1
 8006674:	e003      	b.n	800667e <memchr+0x4a>
 8006676:	f815 6b01 	ldrb.w	r6, [r5], #1
 800667a:	428e      	cmp	r6, r1
 800667c:	d003      	beq.n	8006686 <memchr+0x52>
 800667e:	3c01      	subs	r4, #1
 8006680:	4628      	mov	r0, r5
 8006682:	d2f8      	bcs.n	8006676 <memchr+0x42>
 8006684:	2000      	movs	r0, #0
 8006686:	bc70      	pop	{r4, r5, r6}
 8006688:	4770      	bx	lr
 800668a:	4610      	mov	r0, r2
 800668c:	e7fb      	b.n	8006686 <memchr+0x52>
 800668e:	4618      	mov	r0, r3
 8006690:	e7f9      	b.n	8006686 <memchr+0x52>
 8006692:	ea41 2601 	orr.w	r6, r1, r1, lsl #8
 8006696:	ea46 4606 	orr.w	r6, r6, r6, lsl #16
 800669a:	4618      	mov	r0, r3
 800669c:	f853 4b04 	ldr.w	r4, [r3], #4
 80066a0:	ea86 0404 	eor.w	r4, r6, r4
 80066a4:	f1a4 3501 	sub.w	r5, r4, #16843009	; 0x1010101
 80066a8:	ea25 0404 	bic.w	r4, r5, r4
 80066ac:	f014 3f80 	tst.w	r4, #2155905152	; 0x80808080
 80066b0:	d103      	bne.n	80066ba <memchr+0x86>
 80066b2:	3a04      	subs	r2, #4
 80066b4:	4618      	mov	r0, r3
 80066b6:	2a03      	cmp	r2, #3
 80066b8:	d8ef      	bhi.n	800669a <memchr+0x66>
 80066ba:	4603      	mov	r3, r0
 80066bc:	e7d4      	b.n	8006668 <memchr+0x34>
 80066be:	bf00      	nop

080066c0 <memcmp>:
 80066c0:	2a03      	cmp	r2, #3
 80066c2:	b470      	push	{r4, r5, r6}
 80066c4:	4604      	mov	r4, r0
 80066c6:	460d      	mov	r5, r1
 80066c8:	d926      	bls.n	8006718 <memcmp+0x58>
 80066ca:	ea41 0300 	orr.w	r3, r1, r0
 80066ce:	f013 0f03 	tst.w	r3, #3
 80066d2:	d013      	beq.n	80066fc <memcmp+0x3c>
 80066d4:	7820      	ldrb	r0, [r4, #0]
 80066d6:	782b      	ldrb	r3, [r5, #0]
 80066d8:	4298      	cmp	r0, r3
 80066da:	bf08      	it	eq
 80066dc:	4629      	moveq	r1, r5
 80066de:	d006      	beq.n	80066ee <memcmp+0x2e>
 80066e0:	e01e      	b.n	8006720 <memcmp+0x60>
 80066e2:	f814 0f01 	ldrb.w	r0, [r4, #1]!
 80066e6:	f811 3f01 	ldrb.w	r3, [r1, #1]!
 80066ea:	4298      	cmp	r0, r3
 80066ec:	d118      	bne.n	8006720 <memcmp+0x60>
 80066ee:	2a01      	cmp	r2, #1
 80066f0:	f102 32ff 	add.w	r2, r2, #4294967295
 80066f4:	d1f5      	bne.n	80066e2 <memcmp+0x22>
 80066f6:	2000      	movs	r0, #0
 80066f8:	bc70      	pop	{r4, r5, r6}
 80066fa:	4770      	bx	lr
 80066fc:	460b      	mov	r3, r1
 80066fe:	4604      	mov	r4, r0
 8006700:	f851 5b04 	ldr.w	r5, [r1], #4
 8006704:	f850 6b04 	ldr.w	r6, [r0], #4
 8006708:	42ae      	cmp	r6, r5
 800670a:	d104      	bne.n	8006716 <memcmp+0x56>
 800670c:	3a04      	subs	r2, #4
 800670e:	4604      	mov	r4, r0
 8006710:	2a03      	cmp	r2, #3
 8006712:	460b      	mov	r3, r1
 8006714:	d8f2      	bhi.n	80066fc <memcmp+0x3c>
 8006716:	461d      	mov	r5, r3
 8006718:	4610      	mov	r0, r2
 800671a:	2a00      	cmp	r2, #0
 800671c:	d1da      	bne.n	80066d4 <memcmp+0x14>
 800671e:	e7eb      	b.n	80066f8 <memcmp+0x38>
 8006720:	1ac0      	subs	r0, r0, r3
 8006722:	e7e9      	b.n	80066f8 <memcmp+0x38>

08006724 <strchr>:
 8006724:	b2c9      	uxtb	r1, r1
 8006726:	b4f0      	push	{r4, r5, r6, r7}
 8006728:	2900      	cmp	r1, #0
 800672a:	d050      	beq.n	80067ce <strchr+0xaa>
 800672c:	f010 0f03 	tst.w	r0, #3
 8006730:	d010      	beq.n	8006754 <strchr+0x30>
 8006732:	7803      	ldrb	r3, [r0, #0]
 8006734:	2b00      	cmp	r3, #0
 8006736:	d079      	beq.n	800682c <strchr+0x108>
 8006738:	4299      	cmp	r1, r3
 800673a:	d046      	beq.n	80067ca <strchr+0xa6>
 800673c:	1c43      	adds	r3, r0, #1
 800673e:	e005      	b.n	800674c <strchr+0x28>
 8006740:	f813 2b01 	ldrb.w	r2, [r3], #1
 8006744:	2a00      	cmp	r2, #0
 8006746:	d03f      	beq.n	80067c8 <strchr+0xa4>
 8006748:	4291      	cmp	r1, r2
 800674a:	d03e      	beq.n	80067ca <strchr+0xa6>
 800674c:	f013 0f03 	tst.w	r3, #3
 8006750:	4618      	mov	r0, r3
 8006752:	d1f5      	bne.n	8006740 <strchr+0x1c>
 8006754:	6803      	ldr	r3, [r0, #0]
 8006756:	ea41 2701 	orr.w	r7, r1, r1, lsl #8
 800675a:	4606      	mov	r6, r0
 800675c:	f1a3 3201 	sub.w	r2, r3, #16843009	; 0x1010101
 8006760:	ea47 4707 	orr.w	r7, r7, r7, lsl #16
 8006764:	ea22 0203 	bic.w	r2, r2, r3
 8006768:	f012 3f80 	tst.w	r2, #2155905152	; 0x80808080
 800676c:	d11d      	bne.n	80067aa <strchr+0x86>
 800676e:	ea87 0303 	eor.w	r3, r7, r3
 8006772:	f1a3 3201 	sub.w	r2, r3, #16843009	; 0x1010101
 8006776:	ea22 0303 	bic.w	r3, r2, r3
 800677a:	f013 3f80 	tst.w	r3, #2155905152	; 0x80808080
 800677e:	d114      	bne.n	80067aa <strchr+0x86>
 8006780:	3004      	adds	r0, #4
 8006782:	e002      	b.n	800678a <strchr+0x66>
 8006784:	f012 3f80 	tst.w	r2, #2155905152	; 0x80808080
 8006788:	d10f      	bne.n	80067aa <strchr+0x86>
 800678a:	4606      	mov	r6, r0
 800678c:	f850 3b04 	ldr.w	r3, [r0], #4
 8006790:	f1a3 3501 	sub.w	r5, r3, #16843009	; 0x1010101
 8006794:	ea87 0203 	eor.w	r2, r7, r3
 8006798:	ea25 0303 	bic.w	r3, r5, r3
 800679c:	f1a2 3401 	sub.w	r4, r2, #16843009	; 0x1010101
 80067a0:	f013 3f80 	tst.w	r3, #2155905152	; 0x80808080
 80067a4:	ea24 0202 	bic.w	r2, r4, r2
 80067a8:	d0ec      	beq.n	8006784 <strchr+0x60>
 80067aa:	7833      	ldrb	r3, [r6, #0]
 80067ac:	4630      	mov	r0, r6
 80067ae:	2b00      	cmp	r3, #0
 80067b0:	d03c      	beq.n	800682c <strchr+0x108>
 80067b2:	4299      	cmp	r1, r3
 80067b4:	d009      	beq.n	80067ca <strchr+0xa6>
 80067b6:	1c73      	adds	r3, r6, #1
 80067b8:	e001      	b.n	80067be <strchr+0x9a>
 80067ba:	4291      	cmp	r1, r2
 80067bc:	d005      	beq.n	80067ca <strchr+0xa6>
 80067be:	4618      	mov	r0, r3
 80067c0:	f813 2b01 	ldrb.w	r2, [r3], #1
 80067c4:	2a00      	cmp	r2, #0
 80067c6:	d1f8      	bne.n	80067ba <strchr+0x96>
 80067c8:	4610      	mov	r0, r2
 80067ca:	bcf0      	pop	{r4, r5, r6, r7}
 80067cc:	4770      	bx	lr
 80067ce:	f010 0f03 	tst.w	r0, #3
 80067d2:	d00c      	beq.n	80067ee <strchr+0xca>
 80067d4:	7803      	ldrb	r3, [r0, #0]
 80067d6:	2b00      	cmp	r3, #0
 80067d8:	d0f7      	beq.n	80067ca <strchr+0xa6>
 80067da:	1c43      	adds	r3, r0, #1
 80067dc:	e003      	b.n	80067e6 <strchr+0xc2>
 80067de:	f813 2b01 	ldrb.w	r2, [r3], #1
 80067e2:	2a00      	cmp	r2, #0
 80067e4:	d0f1      	beq.n	80067ca <strchr+0xa6>
 80067e6:	f013 0f03 	tst.w	r3, #3
 80067ea:	4618      	mov	r0, r3
 80067ec:	d1f7      	bne.n	80067de <strchr+0xba>
 80067ee:	6802      	ldr	r2, [r0, #0]
 80067f0:	4603      	mov	r3, r0
 80067f2:	f1a2 3101 	sub.w	r1, r2, #16843009	; 0x1010101
 80067f6:	ea21 0202 	bic.w	r2, r1, r2
 80067fa:	f012 3f80 	tst.w	r2, #2155905152	; 0x80808080
 80067fe:	d10a      	bne.n	8006816 <strchr+0xf2>
 8006800:	3004      	adds	r0, #4
 8006802:	4603      	mov	r3, r0
 8006804:	f850 2b04 	ldr.w	r2, [r0], #4
 8006808:	f1a2 3101 	sub.w	r1, r2, #16843009	; 0x1010101
 800680c:	ea21 0202 	bic.w	r2, r1, r2
 8006810:	f012 3f80 	tst.w	r2, #2155905152	; 0x80808080
 8006814:	d0f5      	beq.n	8006802 <strchr+0xde>
 8006816:	781a      	ldrb	r2, [r3, #0]
 8006818:	4618      	mov	r0, r3
 800681a:	2a00      	cmp	r2, #0
 800681c:	d0d5      	beq.n	80067ca <strchr+0xa6>
 800681e:	3301      	adds	r3, #1
 8006820:	4618      	mov	r0, r3
 8006822:	f813 2b01 	ldrb.w	r2, [r3], #1
 8006826:	2a00      	cmp	r2, #0
 8006828:	d1fa      	bne.n	8006820 <strchr+0xfc>
 800682a:	e7ce      	b.n	80067ca <strchr+0xa6>
 800682c:	4618      	mov	r0, r3
 800682e:	e7cc      	b.n	80067ca <strchr+0xa6>

08006830 <__aeabi_uidiv>:
 8006830:	1e4a      	subs	r2, r1, #1
 8006832:	bf08      	it	eq
 8006834:	4770      	bxeq	lr
 8006836:	f0c0 8124 	bcc.w	8006a82 <__aeabi_uidiv+0x252>
 800683a:	4288      	cmp	r0, r1
 800683c:	f240 8116 	bls.w	8006a6c <__aeabi_uidiv+0x23c>
 8006840:	4211      	tst	r1, r2
 8006842:	f000 8117 	beq.w	8006a74 <__aeabi_uidiv+0x244>
 8006846:	fab0 f380 	clz	r3, r0
 800684a:	fab1 f281 	clz	r2, r1
 800684e:	eba2 0303 	sub.w	r3, r2, r3
 8006852:	f1c3 031f 	rsb	r3, r3, #31
 8006856:	a204      	add	r2, pc, #16	; (adr r2, 8006868 <__aeabi_uidiv+0x38>)
 8006858:	eb02 1303 	add.w	r3, r2, r3, lsl #4
 800685c:	f04f 0200 	mov.w	r2, #0
 8006860:	469f      	mov	pc, r3
 8006862:	bf00      	nop
 8006864:	f3af 8000 	nop.w
 8006868:	ebb0 7fc1 	cmp.w	r0, r1, lsl #31
 800686c:	bf00      	nop
 800686e:	eb42 0202 	adc.w	r2, r2, r2
 8006872:	bf28      	it	cs
 8006874:	eba0 70c1 	subcs.w	r0, r0, r1, lsl #31
 8006878:	ebb0 7f81 	cmp.w	r0, r1, lsl #30
 800687c:	bf00      	nop
 800687e:	eb42 0202 	adc.w	r2, r2, r2
 8006882:	bf28      	it	cs
 8006884:	eba0 7081 	subcs.w	r0, r0, r1, lsl #30
 8006888:	ebb0 7f41 	cmp.w	r0, r1, lsl #29
 800688c:	bf00      	nop
 800688e:	eb42 0202 	adc.w	r2, r2, r2
 8006892:	bf28      	it	cs
 8006894:	eba0 7041 	subcs.w	r0, r0, r1, lsl #29
 8006898:	ebb0 7f01 	cmp.w	r0, r1, lsl #28
 800689c:	bf00      	nop
 800689e:	eb42 0202 	adc.w	r2, r2, r2
 80068a2:	bf28      	it	cs
 80068a4:	eba0 7001 	subcs.w	r0, r0, r1, lsl #28
 80068a8:	ebb0 6fc1 	cmp.w	r0, r1, lsl #27
 80068ac:	bf00      	nop
 80068ae:	eb42 0202 	adc.w	r2, r2, r2
 80068b2:	bf28      	it	cs
 80068b4:	eba0 60c1 	subcs.w	r0, r0, r1, lsl #27
 80068b8:	ebb0 6f81 	cmp.w	r0, r1, lsl #26
 80068bc:	bf00      	nop
 80068be:	eb42 0202 	adc.w	r2, r2, r2
 80068c2:	bf28      	it	cs
 80068c4:	eba0 6081 	subcs.w	r0, r0, r1, lsl #26
 80068c8:	ebb0 6f41 	cmp.w	r0, r1, lsl #25
 80068cc:	bf00      	nop
 80068ce:	eb42 0202 	adc.w	r2, r2, r2
 80068d2:	bf28      	it	cs
 80068d4:	eba0 6041 	subcs.w	r0, r0, r1, lsl #25
 80068d8:	ebb0 6f01 	cmp.w	r0, r1, lsl #24
 80068dc:	bf00      	nop
 80068de:	eb42 0202 	adc.w	r2, r2, r2
 80068e2:	bf28      	it	cs
 80068e4:	eba0 6001 	subcs.w	r0, r0, r1, lsl #24
 80068e8:	ebb0 5fc1 	cmp.w	r0, r1, lsl #23
 80068ec:	bf00      	nop
 80068ee:	eb42 0202 	adc.w	r2, r2, r2
 80068f2:	bf28      	it	cs
 80068f4:	eba0 50c1 	subcs.w	r0, r0, r1, lsl #23
 80068f8:	ebb0 5f81 	cmp.w	r0, r1, lsl #22
 80068fc:	bf00      	nop
 80068fe:	eb42 0202 	adc.w	r2, r2, r2
 8006902:	bf28      	it	cs
 8006904:	eba0 5081 	subcs.w	r0, r0, r1, lsl #22
 8006908:	ebb0 5f41 	cmp.w	r0, r1, lsl #21
 800690c:	bf00      	nop
 800690e:	eb42 0202 	adc.w	r2, r2, r2
 8006912:	bf28      	it	cs
 8006914:	eba0 5041 	subcs.w	r0, r0, r1, lsl #21
 8006918:	ebb0 5f01 	cmp.w	r0, r1, lsl #20
 800691c:	bf00      	nop
 800691e:	eb42 0202 	adc.w	r2, r2, r2
 8006922:	bf28      	it	cs
 8006924:	eba0 5001 	subcs.w	r0, r0, r1, lsl #20
 8006928:	ebb0 4fc1 	cmp.w	r0, r1, lsl #19
 800692c:	bf00      	nop
 800692e:	eb42 0202 	adc.w	r2, r2, r2
 8006932:	bf28      	it	cs
 8006934:	eba0 40c1 	subcs.w	r0, r0, r1, lsl #19
 8006938:	ebb0 4f81 	cmp.w	r0, r1, lsl #18
 800693c:	bf00      	nop
 800693e:	eb42 0202 	adc.w	r2, r2, r2
 8006942:	bf28      	it	cs
 8006944:	eba0 4081 	subcs.w	r0, r0, r1, lsl #18
 8006948:	ebb0 4f41 	cmp.w	r0, r1, lsl #17
 800694c:	bf00      	nop
 800694e:	eb42 0202 	adc.w	r2, r2, r2
 8006952:	bf28      	it	cs
 8006954:	eba0 4041 	subcs.w	r0, r0, r1, lsl #17
 8006958:	ebb0 4f01 	cmp.w	r0, r1, lsl #16
 800695c:	bf00      	nop
 800695e:	eb42 0202 	adc.w	r2, r2, r2
 8006962:	bf28      	it	cs
 8006964:	eba0 4001 	subcs.w	r0, r0, r1, lsl #16
 8006968:	ebb0 3fc1 	cmp.w	r0, r1, lsl #15
 800696c:	bf00      	nop
 800696e:	eb42 0202 	adc.w	r2, r2, r2
 8006972:	bf28      	it	cs
 8006974:	eba0 30c1 	subcs.w	r0, r0, r1, lsl #15
 8006978:	ebb0 3f81 	cmp.w	r0, r1, lsl #14
 800697c:	bf00      	nop
 800697e:	eb42 0202 	adc.w	r2, r2, r2
 8006982:	bf28      	it	cs
 8006984:	eba0 3081 	subcs.w	r0, r0, r1, lsl #14
 8006988:	ebb0 3f41 	cmp.w	r0, r1, lsl #13
 800698c:	bf00      	nop
 800698e:	eb42 0202 	adc.w	r2, r2, r2
 8006992:	bf28      	it	cs
 8006994:	eba0 3041 	subcs.w	r0, r0, r1, lsl #13
 8006998:	ebb0 3f01 	cmp.w	r0, r1, lsl #12
 800699c:	bf00      	nop
 800699e:	eb42 0202 	adc.w	r2, r2, r2
 80069a2:	bf28      	it	cs
 80069a4:	eba0 3001 	subcs.w	r0, r0, r1, lsl #12
 80069a8:	ebb0 2fc1 	cmp.w	r0, r1, lsl #11
 80069ac:	bf00      	nop
 80069ae:	eb42 0202 	adc.w	r2, r2, r2
 80069b2:	bf28      	it	cs
 80069b4:	eba0 20c1 	subcs.w	r0, r0, r1, lsl #11
 80069b8:	ebb0 2f81 	cmp.w	r0, r1, lsl #10
 80069bc:	bf00      	nop
 80069be:	eb42 0202 	adc.w	r2, r2, r2
 80069c2:	bf28      	it	cs
 80069c4:	eba0 2081 	subcs.w	r0, r0, r1, lsl #10
 80069c8:	ebb0 2f41 	cmp.w	r0, r1, lsl #9
 80069cc:	bf00      	nop
 80069ce:	eb42 0202 	adc.w	r2, r2, r2
 80069d2:	bf28      	it	cs
 80069d4:	eba0 2041 	subcs.w	r0, r0, r1, lsl #9
 80069d8:	ebb0 2f01 	cmp.w	r0, r1, lsl #8
 80069dc:	bf00      	nop
 80069de:	eb42 0202 	adc.w	r2, r2, r2
 80069e2:	bf28      	it	cs
 80069e4:	eba0 2001 	subcs.w	r0, r0, r1, lsl #8
 80069e8:	ebb0 1fc1 	cmp.w	r0, r1, lsl #7
 80069ec:	bf00      	nop
 80069ee:	eb42 0202 	adc.w	r2, r2, r2
 80069f2:	bf28      	it	cs
 80069f4:	eba0 10c1 	subcs.w	r0, r0, r1, lsl #7
 80069f8:	ebb0 1f81 	cmp.w	r0, r1, lsl #6
 80069fc:	bf00      	nop
 80069fe:	eb42 0202 	adc.w	r2, r2, r2
 8006a02:	bf28      	it	cs
 8006a04:	eba0 1081 	subcs.w	r0, r0, r1, lsl #6
 8006a08:	ebb0 1f41 	cmp.w	r0, r1, lsl #5
 8006a0c:	bf00      	nop
 8006a0e:	eb42 0202 	adc.w	r2, r2, r2
 8006a12:	bf28      	it	cs
 8006a14:	eba0 1041 	subcs.w	r0, r0, r1, lsl #5
 8006a18:	ebb0 1f01 	cmp.w	r0, r1, lsl #4
 8006a1c:	bf00      	nop
 8006a1e:	eb42 0202 	adc.w	r2, r2, r2
 8006a22:	bf28      	it	cs
 8006a24:	eba0 1001 	subcs.w	r0, r0, r1, lsl #4
 8006a28:	ebb0 0fc1 	cmp.w	r0, r1, lsl #3
 8006a2c:	bf00      	nop
 8006a2e:	eb42 0202 	adc.w	r2, r2, r2
 8006a32:	bf28      	it	cs
 8006a34:	eba0 00c1 	subcs.w	r0, r0, r1, lsl #3
 8006a38:	ebb0 0f81 	cmp.w	r0, r1, lsl #2
 8006a3c:	bf00      	nop
 8006a3e:	eb42 0202 	adc.w	r2, r2, r2
 8006a42:	bf28      	it	cs
 8006a44:	eba0 0081 	subcs.w	r0, r0, r1, lsl #2
 8006a48:	ebb0 0f41 	cmp.w	r0, r1, lsl #1
 8006a4c:	bf00      	nop
 8006a4e:	eb42 0202 	adc.w	r2, r2, r2
 8006a52:	bf28      	it	cs
 8006a54:	eba0 0041 	subcs.w	r0, r0, r1, lsl #1
 8006a58:	ebb0 0f01 	cmp.w	r0, r1
 8006a5c:	bf00      	nop
 8006a5e:	eb42 0202 	adc.w	r2, r2, r2
 8006a62:	bf28      	it	cs
 8006a64:	eba0 0001 	subcs.w	r0, r0, r1
 8006a68:	4610      	mov	r0, r2
 8006a6a:	4770      	bx	lr
 8006a6c:	bf0c      	ite	eq
 8006a6e:	2001      	moveq	r0, #1
 8006a70:	2000      	movne	r0, #0
 8006a72:	4770      	bx	lr
 8006a74:	fab1 f281 	clz	r2, r1
 8006a78:	f1c2 021f 	rsb	r2, r2, #31
 8006a7c:	fa20 f002 	lsr.w	r0, r0, r2
 8006a80:	4770      	bx	lr
 8006a82:	b108      	cbz	r0, 8006a88 <__aeabi_uidiv+0x258>
 8006a84:	f04f 30ff 	mov.w	r0, #4294967295
 8006a88:	f000 b80e 	b.w	8006aa8 <__aeabi_idiv0>

08006a8c <__aeabi_uidivmod>:
 8006a8c:	2900      	cmp	r1, #0
 8006a8e:	d0f8      	beq.n	8006a82 <__aeabi_uidiv+0x252>
 8006a90:	e92d 4003 	stmdb	sp!, {r0, r1, lr}
 8006a94:	f7ff fecc 	bl	8006830 <__aeabi_uidiv>
 8006a98:	e8bd 4006 	ldmia.w	sp!, {r1, r2, lr}
 8006a9c:	fb02 f300 	mul.w	r3, r2, r0
 8006aa0:	eba1 0103 	sub.w	r1, r1, r3
 8006aa4:	4770      	bx	lr
 8006aa6:	bf00      	nop

08006aa8 <__aeabi_idiv0>:
 8006aa8:	4770      	bx	lr
 8006aaa:	bf00      	nop
 8006aac:	32335b1b 	.word	0x32335b1b
 8006ab0:	6952496d 	.word	0x6952496d
 8006ab4:	1b3e206e 	.word	0x1b3e206e
 8006ab8:	206d305b 	.word	0x206d305b
 8006abc:	00000000 	.word	0x00000000
 8006ac0:	20445b1b 	.word	0x20445b1b
 8006ac4:	00445b1b 	.word	0x00445b1b
 8006ac8:	00000d0a 	.word	0x00000d0a
 8006acc:	64255b1b 	.word	0x64255b1b
 8006ad0:	00000043 	.word	0x00000043
 8006ad4:	64255b1b 	.word	0x64255b1b
 8006ad8:	00000044 	.word	0x00000044
 8006adc:	64255b1b 	.word	0x64255b1b
 8006ae0:	255b1b44 	.word	0x255b1b44
 8006ae4:	00004364 	.word	0x00004364
 8006ae8:	004b5b1b 	.word	0x004b5b1b
 8006aec:	00000000 	.word	0x00000000
 8006af0:	00000020 	.word	0x00000020
 8006af4:	4f525245 	.word	0x4f525245
 8006af8:	6f743a52 	.word	0x6f743a52
 8006afc:	736e656b 	.word	0x736e656b
 8006b00:	6f6f7420 	.word	0x6f6f7420
 8006b04:	63756d20 	.word	0x63756d20
 8006b08:	000d0a68 	.word	0x000d0a68

08006b0c <Crc16Table>:
 8006b0c:	c0c10000 0140c181 03c0c301 c2410280     ......@.......A.
 8006b1c:	06c0c601 c7410780 c5c10500 0440c481     ......A.......@.
 8006b2c:	0cc0cc01 cd410d80 cfc10f00 0e40ce81     ......A.......@.
 8006b3c:	cac10a00 0b40cb81 09c0c901 c8410880     ......@.......A.
 8006b4c:	18c0d801 d9411980 dbc11b00 1a40da81     ......A.......@.
 8006b5c:	dec11e00 1f40df81 1dc0dd01 dc411c80     ......@.......A.
 8006b6c:	d4c11400 1540d581 17c0d701 d6411680     ......@.......A.
 8006b7c:	12c0d201 d3411380 d1c11100 1040d081     ......A.......@.
 8006b8c:	30c0f001 f1413180 f3c13300 3240f281     ...0.1A..3....@2
 8006b9c:	f6c13600 3740f781 35c0f501 f4413480     .6....@7...5.4A.
 8006bac:	fcc13c00 3d40fd81 3fc0ff01 fe413e80     .<....@=...?.>A.
 8006bbc:	3ac0fa01 fb413b80 f9c13900 3840f881     ...:.;A..9....@8
 8006bcc:	e8c12800 2940e981 2bc0eb01 ea412a80     .(....@)...+.*A.
 8006bdc:	2ec0ee01 ef412f80 edc12d00 2c40ec81     ...../A..-....@,
 8006bec:	24c0e401 e5412580 e7c12700 2640e681     ...$.%A..'....@&
 8006bfc:	e2c12200 2340e381 21c0e101 e0412080     ."....@#...!. A.
 8006c0c:	60c0a001 a1416180 a3c16300 6240a281     ...`.aA..c....@b
 8006c1c:	a6c16600 6740a781 65c0a501 a4416480     .f....@g...e.dA.
 8006c2c:	acc16c00 6d40ad81 6fc0af01 ae416e80     .l....@m...o.nA.
 8006c3c:	6ac0aa01 ab416b80 a9c16900 6840a881     ...j.kA..i....@h
 8006c4c:	b8c17800 7940b981 7bc0bb01 ba417a80     .x....@y...{.zA.
 8006c5c:	7ec0be01 bf417f80 bdc17d00 7c40bc81     ...~..A..}....@|
 8006c6c:	74c0b401 b5417580 b7c17700 7640b681     ...t.uA..w....@v
 8006c7c:	b2c17200 7340b381 71c0b101 b0417080     .r....@s...q.pA.
 8006c8c:	90c15000 51409181 53c09301 92415280     .P....@Q...S.RA.
 8006c9c:	56c09601 97415780 95c15500 54409481     ...V.WA..U....@T
 8006cac:	5cc09c01 9d415d80 9fc15f00 5e409e81     ...\.]A.._....@^
 8006cbc:	9ac15a00 5b409b81 59c09901 98415880     .Z....@[...Y.XA.
 8006ccc:	48c08801 89414980 8bc14b00 4a408a81     ...H.IA..K....@J
 8006cdc:	8ec14e00 4f408f81 4dc08d01 8c414c80     .N....@O...M.LA.
 8006cec:	84c14400 45408581 47c08701 86414680     .D....@E...G.FA.
 8006cfc:	42c08201 83414380 81c14100 40408081     ...B.CA..A....@@

08006d0c <TerminalBufferSize>:
 8006d0c:	00000010 72617453 63732074 49206e61     ....Start scan I
 8006d1c:	6f632052 0a3a6564 0000000d 69615709     R code:......Wai
 8006d2c:	676e6974 72696620 63207473 2e65646f     ting first code.
 8006d3c:	00002e2e 656e6f64 00000d0a 69615709     ....done.....Wai
 8006d4c:	676e6974 63657320 20646e6f 65646f63     ting second code
 8006d5c:	002e2e2e 65684309 49206b63 6f632052     .....Check IR co
 8006d6c:	3a736564 00000020 61757145 0000006c     des: ...Equal...
 8006d7c:	6f727245 00000072 0d0a7325 00000000     Error...%s......
 8006d8c:	6e655309 676e6964 20524920 65646f63     .Sending IR code
 8006d9c:	002e2e2e 6e655309 676e6964 72726520     .....Sending err
 8006dac:	6320726f 2e65646f 00002e2e 0d0a4b4f     or code.....OK..
 8006dbc:	00000000 6e616353 646f6320 6f742065     ....Scan code to
 8006dcc:	746e6920 616e7265 656d206c 79726f6d      internal memory
 8006ddc:	746f6e20 706d6920 656d656c 7461746e      not implementat
 8006dec:	0a6e6f69 0000000d 72617453 63732074     ion.....Start sc
 8006dfc:	63206e61 2065646f 253a4449 000d0a75     an code ID:%u...
 8006e0c:	6e616353 646f6320 6f742065 746e6920     Scan code to int
 8006e1c:	616e7265 656d206c 79726f6d 646e6120     ernal memory and
 8006e2c:	74656e20 6b726f77 746f6e20 706d6920      network not imp
 8006e3c:	656d656c 7461746e 0a6e6f69 0000000d     lementation.....
 8006e4c:	6e6b6e55 7320776f 20657661 65646f6d     Unknow save mode
 8006e5c:	00000d0a 00302e31 706c6568 00000000     ....1.0.help....
 8006e6c:	61656c63 00000072 6e616373 00000000     clear...scan....
 8006e7c:	6e697270 00000074 645f7269 67756265     print...ir_debug
 8006e8c:	00000000 61726170 0000736d 5f746573     ....params..set_
 8006e9c:	676e656c 645f6874 61746c65 00000000     length_delta....
 8006eac:	5f746573 65746e69 6c617672 6c65645f     set_interval_del
 8006ebc:	00006174 20657355 20424154 2079656b     ta..Use TAB key 
 8006ecc:	20726f66 706d6f63 6974656c 0d0a6e6f     for completion..
 8006edc:	6d6d6f43 3a646e61 00000d0a 6c656809     Command:.....hel
 8006eec:	202d2070 73696874 6c656820 000d0a70     p - this help...
 8006efc:	656c6309 2d207261 656c6320 64207261     .clear - clear d
 8006f0c:	6c707369 0d0a7961 00000000 61637309     isplay.......sca
 8006f1c:	202d096e 6e616373 676e696e 20726920     n.- scanning ir 
 8006f2c:	65646f63 00000d0a 72617009 09736d61     code.....params.
 8006f3c:	6873202d 7020776f 6d617261 72657465     - show parameter
 8006f4c:	000d0a73 69727009 5b09746e 5d312c30     s....print.[0,1]
 8006f5c:	70202d20 746e6972 62656420 6f206775      - print debug o
 8006f6c:	75707475 635b2074 5d65646f 00000d0a     utput [code]....
 8006f7c:	5f726909 75626564 305b2067 205d312c     .ir_debug [0,1] 
 8006f8c:	6e6f202d 20726f20 2066666f 75626564     - on or off debu
 8006f9c:	72692067 646f6320 0d0a7365 00000000     g ir codes......
 8006fac:	74657309 6e656c5f 5f687467 746c6564     .set_length_delt
 8006fbc:	643c2061 74696769 203e6c61 6573202d     a <digital> - se
 8006fcc:	616d2074 69642078 72656666 65636e65     t max difference
 8006fdc:	6c617620 62206575 65777465 6c206e65      value between l
 8006fec:	74676e65 666f2068 646f6320 0d0a7365     ength of codes..
 8006ffc:	00000000 74657309 746e695f 61767265     .....set_interva
 800700c:	65645f6c 2061746c 6769643c 6c617469     l_delta <digital
 800701c:	202d203e 20746573 2078616d 66666964     > - set max diff
 800702c:	6e657265 76206563 65756c61 74656220     erence value bet
 800703c:	6e656577 746e6920 61767265 666f206c     ween interval of
 800704c:	646f6320 0d0a7365 00000000 7263696d      codes......micr
 800705c:	206c726f 00000076 00322e31 62696c20     orl v...1.2. lib
 800706c:	79726172 4d545320 76203233 00000000     rary STM32 v....
 800707c:	00000d0a 4a325b1b 00000000 00485b1b     .....[2J.....[H.
 800708c:	6f727245 61203a72 6d756772 20746e65     Error: argument 
 800709c:	7473756d 20656220 726f2030 0d0a3120     must be 0 or 1..
 80070ac:	00000000 20746f4e 756f6e65 61206867     ....Not enough a
 80070bc:	6d756772 73746e65 00000d0a 2078614d     rguments....Max 
 80070cc:	676e656c 64206874 61746c65 7525203a     length delta: %u
 80070dc:	00000d0a 2078614d 65746e69 6c617672     ....Max interval
 80070ec:	6c656420 203a6174 0d0a7525 00000000      delta: %u......
 80070fc:	64207249 67756265 646f6d20 25203a65     Ir debug mode: %
 800710c:	000d0a75 6d6d6f63 3a646e61 00002720     u...command: '..
 800711c:	6f4e2027 6f662074 2e646e75 00000d0a     ' Not found.....
 800712c:	6320435e 68637461 0a216465 0000000d     ^C catched!.....
 800713c:	69647473 3a632e6f 636e6920 73616572     stdio.c: increas
 800714c:	414d2065 54535f58 474e4952 5a49535f     e MAX_STRING_SIZ
 800715c:	000d0a45                                E...

08007160 <_EXTIInit>:
 8007160:	00000001                                ....

08007164 <_WorkTimersInit>:
 8007164:	00000002                                ....

08007168 <TimeToStop>:
 8007168:	004c4b40                                @KL.

0800716c <TimeIncrement>:
 800716c:	0000ffff                                ....

08007170 <AttemptCountMax>:
 8007170:	00000005                                ....

08007174 <DetectFreqMin>:
 8007174:	00007148                                Hq..

08007178 <DetectFreqMax>:
 8007178:	0000ec54                                T...

0800717c <StandartFrequency>:
 800717c:	00007530 00007d00 000084d0 00008ca0     0u...}..........
 800718c:	00009470 00009c40 0000a410 0000abe0     p...@...........
 800719c:	0000b3b0 0000bb80 0000c350 0000cb20     ........P... ...
 80071ac:	0000d2f0 0000dac0 0000e290 0000ea60     ............`...

080071bc <StandartFrequencyCount>:
 80071bc:	00000010                                ....

080071c0 <TimeMask>:
 80071c0:	7fffffff                                ....

080071c4 <ValueMask>:
 80071c4:	80000000 203a4449 30257830 0d0a5838     ....ID: 0x%08X..
 80071d4:	00000000 71657246 636e6575 25203a79     ....Frequency: %
 80071e4:	20643530 0d0a7a48 00000000 67616c46     05d Hz......Flag
 80071f4:	30203a73 34302578 000d0a58 6e756f43     s: 0x%04X...Coun
 8007204:	25203a74 000d0a75 65746e49 6c617672     t: %u...Interval
 8007214:	6f632073 20746e75 2074756f 72206669     s count out if r
 8007224:	65676e61 00000d0a 3330255b 25205d75     ange....[%03u] %
 8007234:	20583130 5b203e2d 75383025 5d737520     01X -> [%08u us]
 8007244:	00000d0a 00000d0a 303a6449 38302578     ........Id:0x%08
 8007254:	46202058 7367616c 2578303a 20583830     X  Flags:0x%08X 
 8007264:	65724620 30253a71 20207535 6e756f43      Freq:%05u  Coun
 8007274:	75253a74 00000d0a 75313025 3830253a     t:%u....%01u:%08
 8007284:	20202075 31302520 30253a75 20207538     u    %01u:%08u  
 8007294:	3a442020 00007525 00212020 002a2020       D:%u..  !.  *.
 80072a4:	66666944 7525203a 00000d0a              Diff: %u....

080072b0 <_ctype_>:
 80072b0:	20202000 20202020 28282020 20282828     .         ((((( 
 80072c0:	20202020 20202020 20202020 20202020                     
 80072d0:	10108820 10101010 10101010 10101010      ...............
 80072e0:	04040410 04040404 10040404 10101010     ................
 80072f0:	41411010 41414141 01010101 01010101     ..AAAAAA........
 8007300:	01010101 01010101 01010101 10101010     ................
 8007310:	42421010 42424242 02020202 02020202     ..BBBBBB........
 8007320:	02020202 02020202 02020202 10101010     ................
 8007330:	00000020 00000000 00000000 00000000      ...............
	...
