
Debug/bin\IRScaner.elf:     file format elf32-littlearm


Disassembly of section .text:

08000000 <g_pfnVectors>:
 8000000:	8c 16 00 20 e9 0d 00 08 35 0e 00 08 35 0e 00 08     ... ....5...5...
 8000010:	35 0e 00 08 35 0e 00 08 35 0e 00 08 00 00 00 00     5...5...5.......
	...
 800002c:	35 0e 00 08 35 0e 00 08 00 00 00 00 35 0e 00 08     5...5.......5...
 800003c:	35 0e 00 08 35 0e 00 08 35 0e 00 08 35 0e 00 08     5...5...5...5...
 800004c:	35 0e 00 08 35 0e 00 08 35 0e 00 08 a5 12 00 08     5...5...5.......
 800005c:	35 0e 00 08 35 0e 00 08 35 0e 00 08 35 0e 00 08     5...5...5...5...
 800006c:	35 0e 00 08 35 0e 00 08 35 0e 00 08 35 0e 00 08     5...5...5...5...
 800007c:	35 0e 00 08 35 0e 00 08 35 0e 00 08 35 0e 00 08     5...5...5...5...
	...
 800009c:	35 0e 00 08 35 0e 00 08 35 0e 00 08 35 0e 00 08     5...5...5...5...
 80000ac:	35 0e 00 08 65 13 00 08 bd 13 00 08 35 0e 00 08     5...e.......5...
 80000bc:	35 0e 00 08 35 0e 00 08 35 0e 00 08 35 0e 00 08     5...5...5...5...
 80000cc:	35 0e 00 08 35 0e 00 08 35 0e 00 08 35 0e 00 08     5...5...5...5...
 80000dc:	35 0e 00 08 35 0e 00 08 35 0e 00 08 35 0e 00 08     5...5...5...5...
	...
 8000118:	35 0e 00 08 35 0e 00 08 5f f8 08 f1                 5...5..._...

08000124 <split>:
 8000124:	b430      	push	{r4, r5}
 8000126:	4603      	mov	r3, r0
 8000128:	f04f 0200 	mov.w	r2, #0
 800012c:	4610      	mov	r0, r2
 800012e:	e001      	b.n	8000134 <split+0x10>
 8000130:	f102 0201 	add.w	r2, r2, #1
 8000134:	189c      	adds	r4, r3, r2
 8000136:	f894 4050 	ldrb.w	r4, [r4, #80]	; 0x50
 800013a:	b914      	cbnz	r4, 8000142 <split+0x1e>
 800013c:	428a      	cmp	r2, r1
 800013e:	dbf7      	blt.n	8000130 <split+0xc>
 8000140:	e01a      	b.n	8000178 <split+0x54>
 8000142:	428a      	cmp	r2, r1
 8000144:	da18      	bge.n	8000178 <split+0x54>
 8000146:	f100 0430 	add.w	r4, r0, #48	; 0x30
 800014a:	f102 0550 	add.w	r5, r2, #80	; 0x50
 800014e:	195d      	adds	r5, r3, r5
 8000150:	f843 5024 	str.w	r5, [r3, r4, lsl #2]
 8000154:	f100 0001 	add.w	r0, r0, #1
 8000158:	2807      	cmp	r0, #7
 800015a:	dc0b      	bgt.n	8000174 <split+0x50>
 800015c:	462c      	mov	r4, r5
 800015e:	f102 0201 	add.w	r2, r2, #1
 8000162:	f814 5f01 	ldrb.w	r5, [r4, #1]!
 8000166:	b115      	cbz	r5, 800016e <split+0x4a>
 8000168:	428a      	cmp	r2, r1
 800016a:	d1f8      	bne.n	800015e <split+0x3a>
 800016c:	e004      	b.n	8000178 <split+0x54>
 800016e:	4291      	cmp	r1, r2
 8000170:	dce0      	bgt.n	8000134 <split+0x10>
 8000172:	e001      	b.n	8000178 <split+0x54>
 8000174:	f04f 30ff 	mov.w	r0, #4294967295
 8000178:	bc30      	pop	{r4, r5}
 800017a:	4770      	bx	lr

0800017c <terminal_reset_cursor>:
 800017c:	b510      	push	{r4, lr}
 800017e:	b086      	sub	sp, #24
 8000180:	4604      	mov	r4, r0
 8000182:	f04f 0307 	mov.w	r3, #7
 8000186:	9300      	str	r3, [sp, #0]
 8000188:	a802      	add	r0, sp, #8
 800018a:	f04f 0110 	mov.w	r1, #16
 800018e:	4a05      	ldr	r2, [pc, #20]	; (80001a4 <terminal_reset_cursor+0x28>)
 8000190:	f04f 036e 	mov.w	r3, #110	; 0x6e
 8000194:	f001 fe58 	bl	8001e48 <snprintf>
 8000198:	f8d4 30e8 	ldr.w	r3, [r4, #232]	; 0xe8
 800019c:	a802      	add	r0, sp, #8
 800019e:	4798      	blx	r3
 80001a0:	b006      	add	sp, #24
 80001a2:	bd10      	pop	{r4, pc}
 80001a4:	08003214 	.word	0x08003214

080001a8 <terminal_move_cursor>:
 80001a8:	b510      	push	{r4, lr}
 80001aa:	b084      	sub	sp, #16
 80001ac:	4604      	mov	r4, r0
 80001ae:	f04f 0200 	mov.w	r2, #0
 80001b2:	9200      	str	r2, [sp, #0]
 80001b4:	ab01      	add	r3, sp, #4
 80001b6:	f843 2b04 	str.w	r2, [r3], #4
 80001ba:	f843 2b04 	str.w	r2, [r3], #4
 80001be:	601a      	str	r2, [r3, #0]
 80001c0:	1e0b      	subs	r3, r1, #0
 80001c2:	dd06      	ble.n	80001d2 <terminal_move_cursor+0x2a>
 80001c4:	4668      	mov	r0, sp
 80001c6:	f04f 0110 	mov.w	r1, #16
 80001ca:	4a0a      	ldr	r2, [pc, #40]	; (80001f4 <terminal_move_cursor+0x4c>)
 80001cc:	f001 fe3c 	bl	8001e48 <snprintf>
 80001d0:	e009      	b.n	80001e6 <terminal_move_cursor+0x3e>
 80001d2:	2b00      	cmp	r3, #0
 80001d4:	da07      	bge.n	80001e6 <terminal_move_cursor+0x3e>
 80001d6:	4668      	mov	r0, sp
 80001d8:	f04f 0110 	mov.w	r1, #16
 80001dc:	4a06      	ldr	r2, [pc, #24]	; (80001f8 <terminal_move_cursor+0x50>)
 80001de:	f1c3 0300 	rsb	r3, r3, #0
 80001e2:	f001 fe31 	bl	8001e48 <snprintf>
 80001e6:	f8d4 30e8 	ldr.w	r3, [r4, #232]	; 0xe8
 80001ea:	4668      	mov	r0, sp
 80001ec:	4798      	blx	r3
 80001ee:	b004      	add	sp, #16
 80001f0:	bd10      	pop	{r4, pc}
 80001f2:	bf00      	nop
 80001f4:	08003220 	.word	0x08003220
 80001f8:	08003228 	.word	0x08003228

080001fc <terminal_print_line>:
 80001fc:	e92d 41f0 	stmdb	sp!, {r4, r5, r6, r7, r8, lr}
 8000200:	b082      	sub	sp, #8
 8000202:	4605      	mov	r5, r0
 8000204:	460c      	mov	r4, r1
 8000206:	4690      	mov	r8, r2
 8000208:	f8d0 30e8 	ldr.w	r3, [r0, #232]	; 0xe8
 800020c:	4815      	ldr	r0, [pc, #84]	; (8000264 <terminal_print_line+0x68>)
 800020e:	4798      	blx	r3
 8000210:	f04f 0300 	mov.w	r3, #0
 8000214:	f88d 3004 	strb.w	r3, [sp, #4]
 8000218:	f88d 3005 	strb.w	r3, [sp, #5]
 800021c:	f8d5 30b8 	ldr.w	r3, [r5, #184]	; 0xb8
 8000220:	429c      	cmp	r4, r3
 8000222:	da15      	bge.n	8000250 <terminal_print_line+0x54>
 8000224:	f104 064f 	add.w	r6, r4, #79	; 0x4f
 8000228:	19ae      	adds	r6, r5, r6
 800022a:	f04f 0720 	mov.w	r7, #32
 800022e:	f816 3f01 	ldrb.w	r3, [r6, #1]!
 8000232:	f88d 3004 	strb.w	r3, [sp, #4]
 8000236:	b90b      	cbnz	r3, 800023c <terminal_print_line+0x40>
 8000238:	f88d 7004 	strb.w	r7, [sp, #4]
 800023c:	f8d5 30e8 	ldr.w	r3, [r5, #232]	; 0xe8
 8000240:	a801      	add	r0, sp, #4
 8000242:	4798      	blx	r3
 8000244:	f104 0401 	add.w	r4, r4, #1
 8000248:	f8d5 30b8 	ldr.w	r3, [r5, #184]	; 0xb8
 800024c:	42a3      	cmp	r3, r4
 800024e:	dcee      	bgt.n	800022e <terminal_print_line+0x32>
 8000250:	4628      	mov	r0, r5
 8000252:	f7ff ff93 	bl	800017c <terminal_reset_cursor>
 8000256:	4628      	mov	r0, r5
 8000258:	4641      	mov	r1, r8
 800025a:	f7ff ffa5 	bl	80001a8 <terminal_move_cursor>
 800025e:	b002      	add	sp, #8
 8000260:	e8bd 81f0 	ldmia.w	sp!, {r4, r5, r6, r7, r8, pc}
 8000264:	08003230 	.word	0x08003230

08000268 <hist_search>:
 8000268:	b5f8      	push	{r3, r4, r5, r6, r7, lr}
 800026a:	4605      	mov	r5, r0
 800026c:	4684      	mov	ip, r0
 800026e:	f100 0050 	add.w	r0, r0, #80	; 0x50
 8000272:	6c2c      	ldr	r4, [r5, #64]	; 0x40
 8000274:	5d2e      	ldrb	r6, [r5, r4]
 8000276:	b186      	cbz	r6, 800029a <hist_search+0x32>
 8000278:	4632      	mov	r2, r6
 800027a:	4623      	mov	r3, r4
 800027c:	f04f 0700 	mov.w	r7, #0
 8000280:	f103 0301 	add.w	r3, r3, #1
 8000284:	189b      	adds	r3, r3, r2
 8000286:	2b3f      	cmp	r3, #63	; 0x3f
 8000288:	bfc8      	it	gt
 800028a:	3b40      	subgt	r3, #64	; 0x40
 800028c:	f107 0701 	add.w	r7, r7, #1
 8000290:	f81c 2003 	ldrb.w	r2, [ip, r3]
 8000294:	2a00      	cmp	r2, #0
 8000296:	d1f3      	bne.n	8000280 <hist_search+0x18>
 8000298:	e001      	b.n	800029e <hist_search+0x36>
 800029a:	f04f 0700 	mov.w	r7, #0
 800029e:	2900      	cmp	r1, #0
 80002a0:	d139      	bne.n	8000316 <hist_search+0xae>
 80002a2:	6ca9      	ldr	r1, [r5, #72]	; 0x48
 80002a4:	42b9      	cmp	r1, r7
 80002a6:	dc7e      	bgt.n	80003a6 <hist_search+0x13e>
 80002a8:	2e00      	cmp	r6, #0
 80002aa:	d07c      	beq.n	80003a6 <hist_search+0x13e>
 80002ac:	f107 33ff 	add.w	r3, r7, #4294967295
 80002b0:	4299      	cmp	r1, r3
 80002b2:	d076      	beq.n	80003a2 <hist_search+0x13a>
 80002b4:	1a7f      	subs	r7, r7, r1
 80002b6:	f04f 0301 	mov.w	r3, #1
 80002ba:	f104 0401 	add.w	r4, r4, #1
 80002be:	19a4      	adds	r4, r4, r6
 80002c0:	2c3f      	cmp	r4, #63	; 0x3f
 80002c2:	bfc8      	it	gt
 80002c4:	3c40      	subgt	r4, #64	; 0x40
 80002c6:	f81c 6004 	ldrb.w	r6, [ip, r4]
 80002ca:	b11e      	cbz	r6, 80002d4 <hist_search+0x6c>
 80002cc:	f103 0301 	add.w	r3, r3, #1
 80002d0:	42bb      	cmp	r3, r7
 80002d2:	d1f2      	bne.n	80002ba <hist_search+0x52>
 80002d4:	5d2a      	ldrb	r2, [r5, r4]
 80002d6:	2a00      	cmp	r2, #0
 80002d8:	d065      	beq.n	80003a6 <hist_search+0x13e>
 80002da:	f101 0101 	add.w	r1, r1, #1
 80002de:	64a9      	str	r1, [r5, #72]	; 0x48
 80002e0:	1913      	adds	r3, r2, r4
 80002e2:	2b3f      	cmp	r3, #63	; 0x3f
 80002e4:	dc05      	bgt.n	80002f2 <hist_search+0x8a>
 80002e6:	f104 0101 	add.w	r1, r4, #1
 80002ea:	1869      	adds	r1, r5, r1
 80002ec:	f001 ff98 	bl	8002220 <memcpy>
 80002f0:	e00f      	b.n	8000312 <hist_search+0xaa>
 80002f2:	f1c4 063f 	rsb	r6, r4, #63	; 0x3f
 80002f6:	f104 0101 	add.w	r1, r4, #1
 80002fa:	1869      	adds	r1, r5, r1
 80002fc:	4632      	mov	r2, r6
 80002fe:	f001 ff8f 	bl	8002220 <memcpy>
 8000302:	f106 0050 	add.w	r0, r6, #80	; 0x50
 8000306:	5d2a      	ldrb	r2, [r5, r4]
 8000308:	1828      	adds	r0, r5, r0
 800030a:	4629      	mov	r1, r5
 800030c:	1b92      	subs	r2, r2, r6
 800030e:	f001 ff87 	bl	8002220 <memcpy>
 8000312:	5d2b      	ldrb	r3, [r5, r4]
 8000314:	e035      	b.n	8000382 <hist_search+0x11a>
 8000316:	6cab      	ldr	r3, [r5, #72]	; 0x48
 8000318:	2b00      	cmp	r3, #0
 800031a:	dd44      	ble.n	80003a6 <hist_search+0x13e>
 800031c:	f103 32ff 	add.w	r2, r3, #4294967295
 8000320:	64aa      	str	r2, [r5, #72]	; 0x48
 8000322:	b19e      	cbz	r6, 800034c <hist_search+0xe4>
 8000324:	42ba      	cmp	r2, r7
 8000326:	d011      	beq.n	800034c <hist_search+0xe4>
 8000328:	f1c3 0301 	rsb	r3, r3, #1
 800032c:	19df      	adds	r7, r3, r7
 800032e:	f04f 0200 	mov.w	r2, #0
 8000332:	f104 0401 	add.w	r4, r4, #1
 8000336:	19a4      	adds	r4, r4, r6
 8000338:	2c3f      	cmp	r4, #63	; 0x3f
 800033a:	bfc8      	it	gt
 800033c:	3c40      	subgt	r4, #64	; 0x40
 800033e:	f81c 6004 	ldrb.w	r6, [ip, r4]
 8000342:	b11e      	cbz	r6, 800034c <hist_search+0xe4>
 8000344:	f102 0201 	add.w	r2, r2, #1
 8000348:	42ba      	cmp	r2, r7
 800034a:	d1f2      	bne.n	8000332 <hist_search+0xca>
 800034c:	5d2a      	ldrb	r2, [r5, r4]
 800034e:	1913      	adds	r3, r2, r4
 8000350:	2b3f      	cmp	r3, #63	; 0x3f
 8000352:	dc05      	bgt.n	8000360 <hist_search+0xf8>
 8000354:	f104 0101 	add.w	r1, r4, #1
 8000358:	1869      	adds	r1, r5, r1
 800035a:	f001 ff61 	bl	8002220 <memcpy>
 800035e:	e00f      	b.n	8000380 <hist_search+0x118>
 8000360:	f1c4 063f 	rsb	r6, r4, #63	; 0x3f
 8000364:	f104 0101 	add.w	r1, r4, #1
 8000368:	1869      	adds	r1, r5, r1
 800036a:	4632      	mov	r2, r6
 800036c:	f001 ff58 	bl	8002220 <memcpy>
 8000370:	f106 0050 	add.w	r0, r6, #80	; 0x50
 8000374:	5d2a      	ldrb	r2, [r5, r4]
 8000376:	1828      	adds	r0, r5, r0
 8000378:	4629      	mov	r1, r5
 800037a:	1b92      	subs	r2, r2, r6
 800037c:	f001 ff50 	bl	8002220 <memcpy>
 8000380:	5d2b      	ldrb	r3, [r5, r4]
 8000382:	b183      	cbz	r3, 80003a6 <hist_search+0x13e>
 8000384:	f8c5 30b8 	str.w	r3, [r5, #184]	; 0xb8
 8000388:	f8c5 30bc 	str.w	r3, [r5, #188]	; 0xbc
 800038c:	4628      	mov	r0, r5
 800038e:	f7ff fef5 	bl	800017c <terminal_reset_cursor>
 8000392:	4628      	mov	r0, r5
 8000394:	f04f 0100 	mov.w	r1, #0
 8000398:	f8d5 20bc 	ldr.w	r2, [r5, #188]	; 0xbc
 800039c:	f7ff ff2e 	bl	80001fc <terminal_print_line>
 80003a0:	bdf8      	pop	{r3, r4, r5, r6, r7, pc}
 80003a2:	5d2a      	ldrb	r2, [r5, r4]
 80003a4:	e799      	b.n	80002da <hist_search+0x72>
 80003a6:	bdf8      	pop	{r3, r4, r5, r6, r7, pc}

080003a8 <microrl_backspace>:
 80003a8:	b510      	push	{r4, lr}
 80003aa:	4604      	mov	r4, r0
 80003ac:	f8d0 30bc 	ldr.w	r3, [r0, #188]	; 0xbc
 80003b0:	2b00      	cmp	r3, #0
 80003b2:	dd23      	ble.n	80003fc <microrl_backspace+0x54>
 80003b4:	f8d0 30e8 	ldr.w	r3, [r0, #232]	; 0xe8
 80003b8:	4811      	ldr	r0, [pc, #68]	; (8000400 <microrl_backspace+0x58>)
 80003ba:	4798      	blx	r3
 80003bc:	f104 0150 	add.w	r1, r4, #80	; 0x50
 80003c0:	f8d4 30bc 	ldr.w	r3, [r4, #188]	; 0xbc
 80003c4:	f103 30ff 	add.w	r0, r3, #4294967295
 80003c8:	f8d4 20b8 	ldr.w	r2, [r4, #184]	; 0xb8
 80003cc:	f102 0201 	add.w	r2, r2, #1
 80003d0:	1808      	adds	r0, r1, r0
 80003d2:	18c9      	adds	r1, r1, r3
 80003d4:	1ad2      	subs	r2, r2, r3
 80003d6:	f001 ffcb 	bl	8002370 <memmove>
 80003da:	f8d4 30bc 	ldr.w	r3, [r4, #188]	; 0xbc
 80003de:	f103 33ff 	add.w	r3, r3, #4294967295
 80003e2:	f8c4 30bc 	str.w	r3, [r4, #188]	; 0xbc
 80003e6:	f8d4 30b8 	ldr.w	r3, [r4, #184]	; 0xb8
 80003ea:	18e2      	adds	r2, r4, r3
 80003ec:	f04f 0100 	mov.w	r1, #0
 80003f0:	f882 1050 	strb.w	r1, [r2, #80]	; 0x50
 80003f4:	f103 33ff 	add.w	r3, r3, #4294967295
 80003f8:	f8c4 30b8 	str.w	r3, [r4, #184]	; 0xb8
 80003fc:	bd10      	pop	{r4, pc}
 80003fe:	bf00      	nop
 8000400:	08003234 	.word	0x08003234

08000404 <microrl_insert_text>:
 8000404:	b570      	push	{r4, r5, r6, lr}
 8000406:	4605      	mov	r5, r0
 8000408:	460e      	mov	r6, r1
 800040a:	4614      	mov	r4, r2
 800040c:	f8d0 30b8 	ldr.w	r3, [r0, #184]	; 0xb8
 8000410:	18d2      	adds	r2, r2, r3
 8000412:	2a64      	cmp	r2, #100	; 0x64
 8000414:	dc30      	bgt.n	8000478 <microrl_insert_text+0x74>
 8000416:	f100 0150 	add.w	r1, r0, #80	; 0x50
 800041a:	f8d0 20bc 	ldr.w	r2, [r0, #188]	; 0xbc
 800041e:	18a0      	adds	r0, r4, r2
 8000420:	1808      	adds	r0, r1, r0
 8000422:	1889      	adds	r1, r1, r2
 8000424:	1a9a      	subs	r2, r3, r2
 8000426:	f001 ffa3 	bl	8002370 <memmove>
 800042a:	2c00      	cmp	r4, #0
 800042c:	dd12      	ble.n	8000454 <microrl_insert_text+0x50>
 800042e:	f8d5 10bc 	ldr.w	r1, [r5, #188]	; 0xbc
 8000432:	f101 0150 	add.w	r1, r1, #80	; 0x50
 8000436:	1869      	adds	r1, r5, r1
 8000438:	f04f 0300 	mov.w	r3, #0
 800043c:	4618      	mov	r0, r3
 800043e:	5cf2      	ldrb	r2, [r6, r3]
 8000440:	f801 2b01 	strb.w	r2, [r1], #1
 8000444:	2a20      	cmp	r2, #32
 8000446:	bf08      	it	eq
 8000448:	f801 0c01 	strbeq.w	r0, [r1, #-1]
 800044c:	f103 0301 	add.w	r3, r3, #1
 8000450:	42a3      	cmp	r3, r4
 8000452:	d1f4      	bne.n	800043e <microrl_insert_text+0x3a>
 8000454:	f8d5 30bc 	ldr.w	r3, [r5, #188]	; 0xbc
 8000458:	191b      	adds	r3, r3, r4
 800045a:	f8c5 30bc 	str.w	r3, [r5, #188]	; 0xbc
 800045e:	f8d5 30b8 	ldr.w	r3, [r5, #184]	; 0xb8
 8000462:	18e4      	adds	r4, r4, r3
 8000464:	f8c5 40b8 	str.w	r4, [r5, #184]	; 0xb8
 8000468:	192c      	adds	r4, r5, r4
 800046a:	f04f 0300 	mov.w	r3, #0
 800046e:	f884 3050 	strb.w	r3, [r4, #80]	; 0x50
 8000472:	f04f 0001 	mov.w	r0, #1
 8000476:	bd70      	pop	{r4, r5, r6, pc}
 8000478:	f04f 0000 	mov.w	r0, #0
 800047c:	bd70      	pop	{r4, r5, r6, pc}
 800047e:	bf00      	nop

08000480 <microrl_init>:
 8000480:	b538      	push	{r3, r4, r5, lr}
 8000482:	4604      	mov	r4, r0
 8000484:	460d      	mov	r5, r1
 8000486:	f100 0050 	add.w	r0, r0, #80	; 0x50
 800048a:	f04f 0100 	mov.w	r1, #0
 800048e:	f04f 0265 	mov.w	r2, #101	; 0x65
 8000492:	f001 ffc7 	bl	8002424 <memset>
 8000496:	4620      	mov	r0, r4
 8000498:	f04f 0100 	mov.w	r1, #0
 800049c:	f04f 0240 	mov.w	r2, #64	; 0x40
 80004a0:	f001 ffc0 	bl	8002424 <memset>
 80004a4:	f04f 0300 	mov.w	r3, #0
 80004a8:	6423      	str	r3, [r4, #64]	; 0x40
 80004aa:	6463      	str	r3, [r4, #68]	; 0x44
 80004ac:	64a3      	str	r3, [r4, #72]	; 0x48
 80004ae:	f8c4 30b8 	str.w	r3, [r4, #184]	; 0xb8
 80004b2:	f8c4 30bc 	str.w	r3, [r4, #188]	; 0xbc
 80004b6:	f8c4 30e0 	str.w	r3, [r4, #224]	; 0xe0
 80004ba:	f8c4 30e4 	str.w	r3, [r4, #228]	; 0xe4
 80004be:	f8c4 30ec 	str.w	r3, [r4, #236]	; 0xec
 80004c2:	4b03      	ldr	r3, [pc, #12]	; (80004d0 <microrl_init+0x50>)
 80004c4:	681b      	ldr	r3, [r3, #0]
 80004c6:	64e3      	str	r3, [r4, #76]	; 0x4c
 80004c8:	f8c4 50e8 	str.w	r5, [r4, #232]	; 0xe8
 80004cc:	bd38      	pop	{r3, r4, r5, pc}
 80004ce:	bf00      	nop
 80004d0:	20000000 	.word	0x20000000

080004d4 <microrl_set_complite_callback>:
 80004d4:	f8c0 10e4 	str.w	r1, [r0, #228]	; 0xe4
 80004d8:	4770      	bx	lr
 80004da:	bf00      	nop

080004dc <microrl_set_execute_callback>:
 80004dc:	f8c0 10e0 	str.w	r1, [r0, #224]	; 0xe0
 80004e0:	4770      	bx	lr
 80004e2:	bf00      	nop

080004e4 <microrl_set_sigint_callback>:
 80004e4:	f8c0 10ec 	str.w	r1, [r0, #236]	; 0xec
 80004e8:	4770      	bx	lr
 80004ea:	bf00      	nop

080004ec <microrl_insert_char>:
 80004ec:	e92d 43f0 	stmdb	sp!, {r4, r5, r6, r7, r8, r9, lr}
 80004f0:	b083      	sub	sp, #12
 80004f2:	4604      	mov	r4, r0
 80004f4:	9101      	str	r1, [sp, #4]
 80004f6:	4b8c      	ldr	r3, [pc, #560]	; (8000728 <microrl_insert_char+0x23c>)
 80004f8:	681b      	ldr	r3, [r3, #0]
 80004fa:	2b00      	cmp	r3, #0
 80004fc:	d06a      	beq.n	80005d4 <microrl_insert_char+0xe8>
 80004fe:	f89d 3004 	ldrb.w	r3, [sp, #4]
 8000502:	2b5b      	cmp	r3, #91	; 0x5b
 8000504:	d104      	bne.n	8000510 <microrl_insert_char+0x24>
 8000506:	f04f 0201 	mov.w	r2, #1
 800050a:	4b87      	ldr	r3, [pc, #540]	; (8000728 <microrl_insert_char+0x23c>)
 800050c:	605a      	str	r2, [r3, #4]
 800050e:	e26e      	b.n	80009ee <microrl_insert_char+0x502>
 8000510:	4a85      	ldr	r2, [pc, #532]	; (8000728 <microrl_insert_char+0x23c>)
 8000512:	6852      	ldr	r2, [r2, #4]
 8000514:	2a01      	cmp	r2, #1
 8000516:	d142      	bne.n	800059e <microrl_insert_char+0xb2>
 8000518:	2b41      	cmp	r3, #65	; 0x41
 800051a:	d104      	bne.n	8000526 <microrl_insert_char+0x3a>
 800051c:	f04f 0100 	mov.w	r1, #0
 8000520:	f7ff fea2 	bl	8000268 <hist_search>
 8000524:	e257      	b.n	80009d6 <microrl_insert_char+0x4ea>
 8000526:	2b42      	cmp	r3, #66	; 0x42
 8000528:	d104      	bne.n	8000534 <microrl_insert_char+0x48>
 800052a:	f04f 0101 	mov.w	r1, #1
 800052e:	f7ff fe9b 	bl	8000268 <hist_search>
 8000532:	e250      	b.n	80009d6 <microrl_insert_char+0x4ea>
 8000534:	2b43      	cmp	r3, #67	; 0x43
 8000536:	d111      	bne.n	800055c <microrl_insert_char+0x70>
 8000538:	f8d0 20bc 	ldr.w	r2, [r0, #188]	; 0xbc
 800053c:	f8d0 30b8 	ldr.w	r3, [r0, #184]	; 0xb8
 8000540:	429a      	cmp	r2, r3
 8000542:	f280 8248 	bge.w	80009d6 <microrl_insert_char+0x4ea>
 8000546:	f04f 0101 	mov.w	r1, #1
 800054a:	f7ff fe2d 	bl	80001a8 <terminal_move_cursor>
 800054e:	f8d4 30bc 	ldr.w	r3, [r4, #188]	; 0xbc
 8000552:	f103 0301 	add.w	r3, r3, #1
 8000556:	f8c4 30bc 	str.w	r3, [r4, #188]	; 0xbc
 800055a:	e23c      	b.n	80009d6 <microrl_insert_char+0x4ea>
 800055c:	2b44      	cmp	r3, #68	; 0x44
 800055e:	d10f      	bne.n	8000580 <microrl_insert_char+0x94>
 8000560:	f8d0 30bc 	ldr.w	r3, [r0, #188]	; 0xbc
 8000564:	2b00      	cmp	r3, #0
 8000566:	f340 8236 	ble.w	80009d6 <microrl_insert_char+0x4ea>
 800056a:	f04f 31ff 	mov.w	r1, #4294967295
 800056e:	f7ff fe1b 	bl	80001a8 <terminal_move_cursor>
 8000572:	f8d4 30bc 	ldr.w	r3, [r4, #188]	; 0xbc
 8000576:	f103 33ff 	add.w	r3, r3, #4294967295
 800057a:	f8c4 30bc 	str.w	r3, [r4, #188]	; 0xbc
 800057e:	e22a      	b.n	80009d6 <microrl_insert_char+0x4ea>
 8000580:	2b37      	cmp	r3, #55	; 0x37
 8000582:	d104      	bne.n	800058e <microrl_insert_char+0xa2>
 8000584:	f04f 0202 	mov.w	r2, #2
 8000588:	4b67      	ldr	r3, [pc, #412]	; (8000728 <microrl_insert_char+0x23c>)
 800058a:	605a      	str	r2, [r3, #4]
 800058c:	e22f      	b.n	80009ee <microrl_insert_char+0x502>
 800058e:	2b38      	cmp	r3, #56	; 0x38
 8000590:	f040 822d 	bne.w	80009ee <microrl_insert_char+0x502>
 8000594:	f04f 0203 	mov.w	r2, #3
 8000598:	4b63      	ldr	r3, [pc, #396]	; (8000728 <microrl_insert_char+0x23c>)
 800059a:	605a      	str	r2, [r3, #4]
 800059c:	e227      	b.n	80009ee <microrl_insert_char+0x502>
 800059e:	2b7e      	cmp	r3, #126	; 0x7e
 80005a0:	f040 8225 	bne.w	80009ee <microrl_insert_char+0x502>
 80005a4:	2a02      	cmp	r2, #2
 80005a6:	d106      	bne.n	80005b6 <microrl_insert_char+0xca>
 80005a8:	f7ff fde8 	bl	800017c <terminal_reset_cursor>
 80005ac:	f04f 0300 	mov.w	r3, #0
 80005b0:	f8c4 30bc 	str.w	r3, [r4, #188]	; 0xbc
 80005b4:	e20f      	b.n	80009d6 <microrl_insert_char+0x4ea>
 80005b6:	2a03      	cmp	r2, #3
 80005b8:	f040 8219 	bne.w	80009ee <microrl_insert_char+0x502>
 80005bc:	f8d0 10b8 	ldr.w	r1, [r0, #184]	; 0xb8
 80005c0:	f8d0 30bc 	ldr.w	r3, [r0, #188]	; 0xbc
 80005c4:	1ac9      	subs	r1, r1, r3
 80005c6:	f7ff fdef 	bl	80001a8 <terminal_move_cursor>
 80005ca:	f8d4 30b8 	ldr.w	r3, [r4, #184]	; 0xb8
 80005ce:	f8c4 30bc 	str.w	r3, [r4, #188]	; 0xbc
 80005d2:	e200      	b.n	80009d6 <microrl_insert_char+0x4ea>
 80005d4:	9a01      	ldr	r2, [sp, #4]
 80005d6:	f102 33ff 	add.w	r3, r2, #4294967295
 80005da:	2b7e      	cmp	r3, #126	; 0x7e
 80005dc:	f200 81e7 	bhi.w	80009ae <microrl_insert_char+0x4c2>
 80005e0:	e8df f013 	tbh	[pc, r3, lsl #1]
 80005e4:	01be01a6 	.word	0x01be01a6
 80005e8:	01e501e0 	.word	0x01e501e0
 80005ec:	01ad019a 	.word	0x01ad019a
 80005f0:	01d701e5 	.word	0x01d701e5
 80005f4:	00850102 	.word	0x00850102
 80005f8:	01e50191 	.word	0x01e50191
 80005fc:	01d20085 	.word	0x01d20085
 8000600:	01cd01e5 	.word	0x01cd01e5
 8000604:	01e501e5 	.word	0x01e501e5
 8000608:	01e501e5 	.word	0x01e501e5
 800060c:	01e5007f 	.word	0x01e5007f
 8000610:	01e501e5 	.word	0x01e501e5
 8000614:	01e501e5 	.word	0x01e501e5
 8000618:	01e5017f 	.word	0x01e5017f
 800061c:	01e501e5 	.word	0x01e501e5
 8000620:	01e501e5 	.word	0x01e501e5
 8000624:	01e501e5 	.word	0x01e501e5
 8000628:	01e501e5 	.word	0x01e501e5
 800062c:	01e501e5 	.word	0x01e501e5
 8000630:	01e501e5 	.word	0x01e501e5
 8000634:	01e501e5 	.word	0x01e501e5
 8000638:	01e501e5 	.word	0x01e501e5
 800063c:	01e501e5 	.word	0x01e501e5
 8000640:	01e501e5 	.word	0x01e501e5
 8000644:	01e501e5 	.word	0x01e501e5
 8000648:	01e501e5 	.word	0x01e501e5
 800064c:	01e501e5 	.word	0x01e501e5
 8000650:	01e501e5 	.word	0x01e501e5
 8000654:	01e501e5 	.word	0x01e501e5
 8000658:	01e501e5 	.word	0x01e501e5
 800065c:	01e501e5 	.word	0x01e501e5
 8000660:	01e501e5 	.word	0x01e501e5
 8000664:	01e501e5 	.word	0x01e501e5
 8000668:	01e501e5 	.word	0x01e501e5
 800066c:	01e501e5 	.word	0x01e501e5
 8000670:	01e501e5 	.word	0x01e501e5
 8000674:	01e501e5 	.word	0x01e501e5
 8000678:	01e501e5 	.word	0x01e501e5
 800067c:	01e501e5 	.word	0x01e501e5
 8000680:	01e501e5 	.word	0x01e501e5
 8000684:	01e501e5 	.word	0x01e501e5
 8000688:	01e501e5 	.word	0x01e501e5
 800068c:	01e501e5 	.word	0x01e501e5
 8000690:	01e501e5 	.word	0x01e501e5
 8000694:	01e501e5 	.word	0x01e501e5
 8000698:	01e501e5 	.word	0x01e501e5
 800069c:	01e501e5 	.word	0x01e501e5
 80006a0:	01e501e5 	.word	0x01e501e5
 80006a4:	01e501e5 	.word	0x01e501e5
 80006a8:	01e501e5 	.word	0x01e501e5
 80006ac:	01e501e5 	.word	0x01e501e5
 80006b0:	01e501e5 	.word	0x01e501e5
 80006b4:	01e501e5 	.word	0x01e501e5
 80006b8:	01e501e5 	.word	0x01e501e5
 80006bc:	01e501e5 	.word	0x01e501e5
 80006c0:	01e501e5 	.word	0x01e501e5
 80006c4:	01e501e5 	.word	0x01e501e5
 80006c8:	01e501e5 	.word	0x01e501e5
 80006cc:	01e501e5 	.word	0x01e501e5
 80006d0:	01e501e5 	.word	0x01e501e5
 80006d4:	01e501e5 	.word	0x01e501e5
 80006d8:	01e501e5 	.word	0x01e501e5
 80006dc:	01e501e5 	.word	0x01e501e5
 80006e0:	01d7      	.short	0x01d7
 80006e2:	f8d0 20bc 	ldr.w	r2, [r0, #188]	; 0xbc
 80006e6:	2a00      	cmp	r2, #0
 80006e8:	f300 8100 	bgt.w	80008ec <microrl_insert_char+0x400>
 80006ec:	e105      	b.n	80008fa <microrl_insert_char+0x40e>
 80006ee:	f8d0 30e8 	ldr.w	r3, [r0, #232]	; 0xe8
 80006f2:	480e      	ldr	r0, [pc, #56]	; (800072c <microrl_insert_char+0x240>)
 80006f4:	4798      	blx	r3
 80006f6:	f8d4 50b8 	ldr.w	r5, [r4, #184]	; 0xb8
 80006fa:	2d00      	cmp	r5, #0
 80006fc:	dd4c      	ble.n	8000798 <microrl_insert_char+0x2ac>
 80006fe:	4623      	mov	r3, r4
 8000700:	2d3e      	cmp	r5, #62	; 0x3e
 8000702:	dd03      	ble.n	800070c <microrl_insert_char+0x220>
 8000704:	e048      	b.n	8000798 <microrl_insert_char+0x2ac>
 8000706:	f1a2 0240 	sub.w	r2, r2, #64	; 0x40
 800070a:	641a      	str	r2, [r3, #64]	; 0x40
 800070c:	6c1a      	ldr	r2, [r3, #64]	; 0x40
 800070e:	5c99      	ldrb	r1, [r3, r2]
 8000710:	b1a1      	cbz	r1, 800073c <microrl_insert_char+0x250>
 8000712:	6c58      	ldr	r0, [r3, #68]	; 0x44
 8000714:	4282      	cmp	r2, r0
 8000716:	dc0b      	bgt.n	8000730 <microrl_insert_char+0x244>
 8000718:	f102 063f 	add.w	r6, r2, #63	; 0x3f
 800071c:	1a30      	subs	r0, r6, r0
 800071e:	4285      	cmp	r5, r0
 8000720:	f280 815e 	bge.w	80009e0 <microrl_insert_char+0x4f4>
 8000724:	e00a      	b.n	800073c <microrl_insert_char+0x250>
 8000726:	bf00      	nop
 8000728:	20000140 	.word	0x20000140
 800072c:	080034e4 	.word	0x080034e4
 8000730:	f102 36ff 	add.w	r6, r2, #4294967295
 8000734:	1a30      	subs	r0, r6, r0
 8000736:	4285      	cmp	r5, r0
 8000738:	f280 8152 	bge.w	80009e0 <microrl_insert_char+0x4f4>
 800073c:	6c23      	ldr	r3, [r4, #64]	; 0x40
 800073e:	5ce2      	ldrb	r2, [r4, r3]
 8000740:	b902      	cbnz	r2, 8000744 <microrl_insert_char+0x258>
 8000742:	54e5      	strb	r5, [r4, r3]
 8000744:	f104 0150 	add.w	r1, r4, #80	; 0x50
 8000748:	6c63      	ldr	r3, [r4, #68]	; 0x44
 800074a:	f1c3 063f 	rsb	r6, r3, #63	; 0x3f
 800074e:	42b5      	cmp	r5, r6
 8000750:	da06      	bge.n	8000760 <microrl_insert_char+0x274>
 8000752:	f103 0301 	add.w	r3, r3, #1
 8000756:	18e0      	adds	r0, r4, r3
 8000758:	462a      	mov	r2, r5
 800075a:	f001 fd61 	bl	8002220 <memcpy>
 800075e:	e00c      	b.n	800077a <microrl_insert_char+0x28e>
 8000760:	f103 0301 	add.w	r3, r3, #1
 8000764:	18e0      	adds	r0, r4, r3
 8000766:	4632      	mov	r2, r6
 8000768:	f001 fd5a 	bl	8002220 <memcpy>
 800076c:	f106 0150 	add.w	r1, r6, #80	; 0x50
 8000770:	4620      	mov	r0, r4
 8000772:	1861      	adds	r1, r4, r1
 8000774:	1baa      	subs	r2, r5, r6
 8000776:	f001 fd53 	bl	8002220 <memcpy>
 800077a:	6c63      	ldr	r3, [r4, #68]	; 0x44
 800077c:	54e5      	strb	r5, [r4, r3]
 800077e:	18ed      	adds	r5, r5, r3
 8000780:	f105 0501 	add.w	r5, r5, #1
 8000784:	6465      	str	r5, [r4, #68]	; 0x44
 8000786:	2d3f      	cmp	r5, #63	; 0x3f
 8000788:	bfc4      	itt	gt
 800078a:	3d40      	subgt	r5, #64	; 0x40
 800078c:	6465      	strgt	r5, [r4, #68]	; 0x44
 800078e:	6c62      	ldr	r2, [r4, #68]	; 0x44
 8000790:	f04f 0300 	mov.w	r3, #0
 8000794:	54a3      	strb	r3, [r4, r2]
 8000796:	64a3      	str	r3, [r4, #72]	; 0x48
 8000798:	4620      	mov	r0, r4
 800079a:	f8d4 10b8 	ldr.w	r1, [r4, #184]	; 0xb8
 800079e:	f7ff fcc1 	bl	8000124 <split>
 80007a2:	f1b0 3fff 	cmp.w	r0, #4294967295
 80007a6:	d104      	bne.n	80007b2 <microrl_insert_char+0x2c6>
 80007a8:	f8d4 30e8 	ldr.w	r3, [r4, #232]	; 0xe8
 80007ac:	4891      	ldr	r0, [pc, #580]	; (80009f4 <microrl_insert_char+0x508>)
 80007ae:	4798      	blx	r3
 80007b0:	e007      	b.n	80007c2 <microrl_insert_char+0x2d6>
 80007b2:	2800      	cmp	r0, #0
 80007b4:	dd05      	ble.n	80007c2 <microrl_insert_char+0x2d6>
 80007b6:	f8d4 30e0 	ldr.w	r3, [r4, #224]	; 0xe0
 80007ba:	b113      	cbz	r3, 80007c2 <microrl_insert_char+0x2d6>
 80007bc:	f104 01c0 	add.w	r1, r4, #192	; 0xc0
 80007c0:	4798      	blx	r3
 80007c2:	f8d4 30e8 	ldr.w	r3, [r4, #232]	; 0xe8
 80007c6:	6ce0      	ldr	r0, [r4, #76]	; 0x4c
 80007c8:	4798      	blx	r3
 80007ca:	f04f 0500 	mov.w	r5, #0
 80007ce:	f8c4 50b8 	str.w	r5, [r4, #184]	; 0xb8
 80007d2:	f8c4 50bc 	str.w	r5, [r4, #188]	; 0xbc
 80007d6:	f104 0050 	add.w	r0, r4, #80	; 0x50
 80007da:	4629      	mov	r1, r5
 80007dc:	f04f 0265 	mov.w	r2, #101	; 0x65
 80007e0:	f001 fe20 	bl	8002424 <memset>
 80007e4:	64a5      	str	r5, [r4, #72]	; 0x48
 80007e6:	e102      	b.n	80009ee <microrl_insert_char+0x502>
 80007e8:	f8d0 30e4 	ldr.w	r3, [r0, #228]	; 0xe4
 80007ec:	2b00      	cmp	r3, #0
 80007ee:	f000 80fe 	beq.w	80009ee <microrl_insert_char+0x502>
 80007f2:	f8d0 10bc 	ldr.w	r1, [r0, #188]	; 0xbc
 80007f6:	f7ff fc95 	bl	8000124 <split>
 80007fa:	4681      	mov	r9, r0
 80007fc:	f8d4 30bc 	ldr.w	r3, [r4, #188]	; 0xbc
 8000800:	18e3      	adds	r3, r4, r3
 8000802:	f893 304f 	ldrb.w	r3, [r3, #79]	; 0x4f
 8000806:	b933      	cbnz	r3, 8000816 <microrl_insert_char+0x32a>
 8000808:	f100 0330 	add.w	r3, r0, #48	; 0x30
 800080c:	4a7a      	ldr	r2, [pc, #488]	; (80009f8 <microrl_insert_char+0x50c>)
 800080e:	f844 2023 	str.w	r2, [r4, r3, lsl #2]
 8000812:	f100 0901 	add.w	r9, r0, #1
 8000816:	f8d4 30e4 	ldr.w	r3, [r4, #228]	; 0xe4
 800081a:	4648      	mov	r0, r9
 800081c:	f104 01c0 	add.w	r1, r4, #192	; 0xc0
 8000820:	4798      	blx	r3
 8000822:	4606      	mov	r6, r0
 8000824:	6800      	ldr	r0, [r0, #0]
 8000826:	2800      	cmp	r0, #0
 8000828:	f000 80e1 	beq.w	80009ee <microrl_insert_char+0x502>
 800082c:	6873      	ldr	r3, [r6, #4]
 800082e:	b9b3      	cbnz	r3, 800085e <microrl_insert_char+0x372>
 8000830:	f001 ff40 	bl	80026b4 <strlen>
 8000834:	4605      	mov	r5, r0
 8000836:	e033      	b.n	80008a0 <microrl_insert_char+0x3b4>
 8000838:	5d5b      	ldrb	r3, [r3, r5]
 800083a:	f102 31ff 	add.w	r1, r2, #4294967295
 800083e:	f856 1021 	ldr.w	r1, [r6, r1, lsl #2]
 8000842:	5d49      	ldrb	r1, [r1, r5]
 8000844:	4299      	cmp	r1, r3
 8000846:	d100      	bne.n	800084a <microrl_insert_char+0x35e>
 8000848:	b933      	cbnz	r3, 8000858 <microrl_insert_char+0x36c>
 800084a:	f8d4 30e8 	ldr.w	r3, [r4, #232]	; 0xe8
 800084e:	486b      	ldr	r0, [pc, #428]	; (80009fc <microrl_insert_char+0x510>)
 8000850:	4798      	blx	r3
 8000852:	6830      	ldr	r0, [r6, #0]
 8000854:	b970      	cbnz	r0, 8000874 <microrl_insert_char+0x388>
 8000856:	e01b      	b.n	8000890 <microrl_insert_char+0x3a4>
 8000858:	f105 0501 	add.w	r5, r5, #1
 800085c:	e003      	b.n	8000866 <microrl_insert_char+0x37a>
 800085e:	f04f 0201 	mov.w	r2, #1
 8000862:	f04f 0500 	mov.w	r5, #0
 8000866:	f856 3022 	ldr.w	r3, [r6, r2, lsl #2]
 800086a:	2b00      	cmp	r3, #0
 800086c:	d1e4      	bne.n	8000838 <microrl_insert_char+0x34c>
 800086e:	f102 0201 	add.w	r2, r2, #1
 8000872:	e7f8      	b.n	8000866 <microrl_insert_char+0x37a>
 8000874:	4637      	mov	r7, r6
 8000876:	f8df 8188 	ldr.w	r8, [pc, #392]	; 8000a00 <microrl_insert_char+0x514>
 800087a:	f8d4 30e8 	ldr.w	r3, [r4, #232]	; 0xe8
 800087e:	4798      	blx	r3
 8000880:	f8d4 30e8 	ldr.w	r3, [r4, #232]	; 0xe8
 8000884:	4640      	mov	r0, r8
 8000886:	4798      	blx	r3
 8000888:	f857 0f04 	ldr.w	r0, [r7, #4]!
 800088c:	2800      	cmp	r0, #0
 800088e:	d1f4      	bne.n	800087a <microrl_insert_char+0x38e>
 8000890:	f8d4 30e8 	ldr.w	r3, [r4, #232]	; 0xe8
 8000894:	4859      	ldr	r0, [pc, #356]	; (80009fc <microrl_insert_char+0x510>)
 8000896:	4798      	blx	r3
 8000898:	f8d4 30e8 	ldr.w	r3, [r4, #232]	; 0xe8
 800089c:	6ce0      	ldr	r0, [r4, #76]	; 0x4c
 800089e:	4798      	blx	r3
 80008a0:	b1a5      	cbz	r5, 80008cc <microrl_insert_char+0x3e0>
 80008a2:	f109 092f 	add.w	r9, r9, #47	; 0x2f
 80008a6:	f854 0029 	ldr.w	r0, [r4, r9, lsl #2]
 80008aa:	f001 ff03 	bl	80026b4 <strlen>
 80008ae:	4602      	mov	r2, r0
 80008b0:	6831      	ldr	r1, [r6, #0]
 80008b2:	4620      	mov	r0, r4
 80008b4:	1889      	adds	r1, r1, r2
 80008b6:	1aaa      	subs	r2, r5, r2
 80008b8:	f7ff fda4 	bl	8000404 <microrl_insert_text>
 80008bc:	6873      	ldr	r3, [r6, #4]
 80008be:	b92b      	cbnz	r3, 80008cc <microrl_insert_char+0x3e0>
 80008c0:	4620      	mov	r0, r4
 80008c2:	494f      	ldr	r1, [pc, #316]	; (8000a00 <microrl_insert_char+0x514>)
 80008c4:	f04f 0201 	mov.w	r2, #1
 80008c8:	f7ff fd9c 	bl	8000404 <microrl_insert_text>
 80008cc:	4620      	mov	r0, r4
 80008ce:	f7ff fc55 	bl	800017c <terminal_reset_cursor>
 80008d2:	4620      	mov	r0, r4
 80008d4:	f04f 0100 	mov.w	r1, #0
 80008d8:	f8d4 20bc 	ldr.w	r2, [r4, #188]	; 0xbc
 80008dc:	f7ff fc8e 	bl	80001fc <terminal_print_line>
 80008e0:	e085      	b.n	80009ee <microrl_insert_char+0x502>
 80008e2:	f04f 0201 	mov.w	r2, #1
 80008e6:	4b47      	ldr	r3, [pc, #284]	; (8000a04 <microrl_insert_char+0x518>)
 80008e8:	601a      	str	r2, [r3, #0]
 80008ea:	e080      	b.n	80009ee <microrl_insert_char+0x502>
 80008ec:	4620      	mov	r0, r4
 80008ee:	f7ff fd5b 	bl	80003a8 <microrl_backspace>
 80008f2:	f8d4 20bc 	ldr.w	r2, [r4, #188]	; 0xbc
 80008f6:	2a00      	cmp	r2, #0
 80008f8:	dcf8      	bgt.n	80008ec <microrl_insert_char+0x400>
 80008fa:	4620      	mov	r0, r4
 80008fc:	f04f 0100 	mov.w	r1, #0
 8000900:	f7ff fc7c 	bl	80001fc <terminal_print_line>
 8000904:	e073      	b.n	80009ee <microrl_insert_char+0x502>
 8000906:	f8d0 30e8 	ldr.w	r3, [r0, #232]	; 0xe8
 800090a:	483f      	ldr	r0, [pc, #252]	; (8000a08 <microrl_insert_char+0x51c>)
 800090c:	4798      	blx	r3
 800090e:	f8d4 30bc 	ldr.w	r3, [r4, #188]	; 0xbc
 8000912:	f8c4 30b8 	str.w	r3, [r4, #184]	; 0xb8
 8000916:	e06a      	b.n	80009ee <microrl_insert_char+0x502>
 8000918:	f8d0 10b8 	ldr.w	r1, [r0, #184]	; 0xb8
 800091c:	f8d0 30bc 	ldr.w	r3, [r0, #188]	; 0xbc
 8000920:	1ac9      	subs	r1, r1, r3
 8000922:	f7ff fc41 	bl	80001a8 <terminal_move_cursor>
 8000926:	f8d4 30b8 	ldr.w	r3, [r4, #184]	; 0xb8
 800092a:	f8c4 30bc 	str.w	r3, [r4, #188]	; 0xbc
 800092e:	e05e      	b.n	80009ee <microrl_insert_char+0x502>
 8000930:	f7ff fc24 	bl	800017c <terminal_reset_cursor>
 8000934:	f04f 0300 	mov.w	r3, #0
 8000938:	f8c4 30bc 	str.w	r3, [r4, #188]	; 0xbc
 800093c:	e057      	b.n	80009ee <microrl_insert_char+0x502>
 800093e:	f8d0 20bc 	ldr.w	r2, [r0, #188]	; 0xbc
 8000942:	f8d0 30b8 	ldr.w	r3, [r0, #184]	; 0xb8
 8000946:	429a      	cmp	r2, r3
 8000948:	da51      	bge.n	80009ee <microrl_insert_char+0x502>
 800094a:	f04f 0101 	mov.w	r1, #1
 800094e:	f7ff fc2b 	bl	80001a8 <terminal_move_cursor>
 8000952:	f8d4 30bc 	ldr.w	r3, [r4, #188]	; 0xbc
 8000956:	f103 0301 	add.w	r3, r3, #1
 800095a:	f8c4 30bc 	str.w	r3, [r4, #188]	; 0xbc
 800095e:	e046      	b.n	80009ee <microrl_insert_char+0x502>
 8000960:	f8d0 30bc 	ldr.w	r3, [r0, #188]	; 0xbc
 8000964:	2b00      	cmp	r3, #0
 8000966:	d042      	beq.n	80009ee <microrl_insert_char+0x502>
 8000968:	f04f 31ff 	mov.w	r1, #4294967295
 800096c:	f7ff fc1c 	bl	80001a8 <terminal_move_cursor>
 8000970:	f8d4 30bc 	ldr.w	r3, [r4, #188]	; 0xbc
 8000974:	f103 33ff 	add.w	r3, r3, #4294967295
 8000978:	f8c4 30bc 	str.w	r3, [r4, #188]	; 0xbc
 800097c:	e037      	b.n	80009ee <microrl_insert_char+0x502>
 800097e:	f04f 0100 	mov.w	r1, #0
 8000982:	f7ff fc71 	bl	8000268 <hist_search>
 8000986:	e032      	b.n	80009ee <microrl_insert_char+0x502>
 8000988:	f04f 0101 	mov.w	r1, #1
 800098c:	f7ff fc6c 	bl	8000268 <hist_search>
 8000990:	e02d      	b.n	80009ee <microrl_insert_char+0x502>
 8000992:	f7ff fd09 	bl	80003a8 <microrl_backspace>
 8000996:	f8d4 20bc 	ldr.w	r2, [r4, #188]	; 0xbc
 800099a:	4620      	mov	r0, r4
 800099c:	4611      	mov	r1, r2
 800099e:	f7ff fc2d 	bl	80001fc <terminal_print_line>
 80009a2:	e024      	b.n	80009ee <microrl_insert_char+0x502>
 80009a4:	f8d0 30ec 	ldr.w	r3, [r0, #236]	; 0xec
 80009a8:	b30b      	cbz	r3, 80009ee <microrl_insert_char+0x502>
 80009aa:	4798      	blx	r3
 80009ac:	e01f      	b.n	80009ee <microrl_insert_char+0x502>
 80009ae:	2a20      	cmp	r2, #32
 80009b0:	d102      	bne.n	80009b8 <microrl_insert_char+0x4cc>
 80009b2:	f8d0 30b8 	ldr.w	r3, [r0, #184]	; 0xb8
 80009b6:	b1d3      	cbz	r3, 80009ee <microrl_insert_char+0x502>
 80009b8:	4620      	mov	r0, r4
 80009ba:	a901      	add	r1, sp, #4
 80009bc:	f04f 0201 	mov.w	r2, #1
 80009c0:	f7ff fd20 	bl	8000404 <microrl_insert_text>
 80009c4:	b198      	cbz	r0, 80009ee <microrl_insert_char+0x502>
 80009c6:	f8d4 20bc 	ldr.w	r2, [r4, #188]	; 0xbc
 80009ca:	4620      	mov	r0, r4
 80009cc:	f102 31ff 	add.w	r1, r2, #4294967295
 80009d0:	f7ff fc14 	bl	80001fc <terminal_print_line>
 80009d4:	e00b      	b.n	80009ee <microrl_insert_char+0x502>
 80009d6:	f04f 0200 	mov.w	r2, #0
 80009da:	4b0a      	ldr	r3, [pc, #40]	; (8000a04 <microrl_insert_char+0x518>)
 80009dc:	601a      	str	r2, [r3, #0]
 80009de:	e006      	b.n	80009ee <microrl_insert_char+0x502>
 80009e0:	f102 0201 	add.w	r2, r2, #1
 80009e4:	1852      	adds	r2, r2, r1
 80009e6:	2a3f      	cmp	r2, #63	; 0x3f
 80009e8:	f73f ae8d 	bgt.w	8000706 <microrl_insert_char+0x21a>
 80009ec:	e68d      	b.n	800070a <microrl_insert_char+0x21e>
 80009ee:	b003      	add	sp, #12
 80009f0:	e8bd 83f0 	ldmia.w	sp!, {r4, r5, r6, r7, r8, r9, pc}
 80009f4:	0800323c 	.word	0x0800323c
 80009f8:	080032e0 	.word	0x080032e0
 80009fc:	080034e4 	.word	0x080034e4
 8000a00:	08003254 	.word	0x08003254
 8000a04:	20000140 	.word	0x20000140
 8000a08:	08003230 	.word	0x08003230

08000a0c <TI1_Config>:
 8000a0c:	b430      	push	{r4, r5}
 8000a0e:	8c04      	ldrh	r4, [r0, #32]
 8000a10:	f024 0401 	bic.w	r4, r4, #1
 8000a14:	ea4f 4404 	mov.w	r4, r4, lsl #16
 8000a18:	ea4f 4414 	mov.w	r4, r4, lsr #16
 8000a1c:	8404      	strh	r4, [r0, #32]
 8000a1e:	8b04      	ldrh	r4, [r0, #24]
 8000a20:	8c05      	ldrh	r5, [r0, #32]
 8000a22:	b2ad      	uxth	r5, r5
 8000a24:	f024 04f3 	bic.w	r4, r4, #243	; 0xf3
 8000a28:	ea4f 4404 	mov.w	r4, r4, lsl #16
 8000a2c:	ea4f 4414 	mov.w	r4, r4, lsr #16
 8000a30:	ea42 0404 	orr.w	r4, r2, r4
 8000a34:	ea44 1403 	orr.w	r4, r4, r3, lsl #4
 8000a38:	b2a4      	uxth	r4, r4
 8000a3a:	4b13      	ldr	r3, [pc, #76]	; (8000a88 <TI1_Config+0x7c>)
 8000a3c:	4298      	cmp	r0, r3
 8000a3e:	d011      	beq.n	8000a64 <TI1_Config+0x58>
 8000a40:	f503 6300 	add.w	r3, r3, #2048	; 0x800
 8000a44:	4298      	cmp	r0, r3
 8000a46:	d00d      	beq.n	8000a64 <TI1_Config+0x58>
 8000a48:	f1b0 4f80 	cmp.w	r0, #1073741824	; 0x40000000
 8000a4c:	d00a      	beq.n	8000a64 <TI1_Config+0x58>
 8000a4e:	4b0f      	ldr	r3, [pc, #60]	; (8000a8c <TI1_Config+0x80>)
 8000a50:	4298      	cmp	r0, r3
 8000a52:	d007      	beq.n	8000a64 <TI1_Config+0x58>
 8000a54:	f503 6380 	add.w	r3, r3, #1024	; 0x400
 8000a58:	4298      	cmp	r0, r3
 8000a5a:	d003      	beq.n	8000a64 <TI1_Config+0x58>
 8000a5c:	f503 6380 	add.w	r3, r3, #1024	; 0x400
 8000a60:	4298      	cmp	r0, r3
 8000a62:	d106      	bne.n	8000a72 <TI1_Config+0x66>
 8000a64:	f025 0502 	bic.w	r5, r5, #2
 8000a68:	f045 0501 	orr.w	r5, r5, #1
 8000a6c:	ea45 0101 	orr.w	r1, r5, r1
 8000a70:	e005      	b.n	8000a7e <TI1_Config+0x72>
 8000a72:	f025 050a 	bic.w	r5, r5, #10
 8000a76:	f045 0501 	orr.w	r5, r5, #1
 8000a7a:	ea45 0101 	orr.w	r1, r5, r1
 8000a7e:	8304      	strh	r4, [r0, #24]
 8000a80:	8401      	strh	r1, [r0, #32]
 8000a82:	bc30      	pop	{r4, r5}
 8000a84:	4770      	bx	lr
 8000a86:	bf00      	nop
 8000a88:	40012c00 	.word	0x40012c00
 8000a8c:	40000400 	.word	0x40000400

08000a90 <TI2_Config>:
 8000a90:	b430      	push	{r4, r5}
 8000a92:	8c04      	ldrh	r4, [r0, #32]
 8000a94:	f024 0410 	bic.w	r4, r4, #16
 8000a98:	ea4f 4404 	mov.w	r4, r4, lsl #16
 8000a9c:	ea4f 4414 	mov.w	r4, r4, lsr #16
 8000aa0:	8404      	strh	r4, [r0, #32]
 8000aa2:	8b04      	ldrh	r4, [r0, #24]
 8000aa4:	8c05      	ldrh	r5, [r0, #32]
 8000aa6:	b2ad      	uxth	r5, r5
 8000aa8:	f424 7440 	bic.w	r4, r4, #768	; 0x300
 8000aac:	ea4f 5404 	mov.w	r4, r4, lsl #20
 8000ab0:	ea4f 5414 	mov.w	r4, r4, lsr #20
 8000ab4:	ea44 2402 	orr.w	r4, r4, r2, lsl #8
 8000ab8:	ea44 3403 	orr.w	r4, r4, r3, lsl #12
 8000abc:	b2a4      	uxth	r4, r4
 8000abe:	4b13      	ldr	r3, [pc, #76]	; (8000b0c <TI2_Config+0x7c>)
 8000ac0:	4298      	cmp	r0, r3
 8000ac2:	d011      	beq.n	8000ae8 <TI2_Config+0x58>
 8000ac4:	f503 6300 	add.w	r3, r3, #2048	; 0x800
 8000ac8:	4298      	cmp	r0, r3
 8000aca:	d00d      	beq.n	8000ae8 <TI2_Config+0x58>
 8000acc:	f1b0 4f80 	cmp.w	r0, #1073741824	; 0x40000000
 8000ad0:	d00a      	beq.n	8000ae8 <TI2_Config+0x58>
 8000ad2:	4b0f      	ldr	r3, [pc, #60]	; (8000b10 <TI2_Config+0x80>)
 8000ad4:	4298      	cmp	r0, r3
 8000ad6:	d007      	beq.n	8000ae8 <TI2_Config+0x58>
 8000ad8:	f503 6380 	add.w	r3, r3, #1024	; 0x400
 8000adc:	4298      	cmp	r0, r3
 8000ade:	d003      	beq.n	8000ae8 <TI2_Config+0x58>
 8000ae0:	f503 6380 	add.w	r3, r3, #1024	; 0x400
 8000ae4:	4298      	cmp	r0, r3
 8000ae6:	d107      	bne.n	8000af8 <TI2_Config+0x68>
 8000ae8:	f025 0520 	bic.w	r5, r5, #32
 8000aec:	f045 0510 	orr.w	r5, r5, #16
 8000af0:	ea45 1101 	orr.w	r1, r5, r1, lsl #4
 8000af4:	b289      	uxth	r1, r1
 8000af6:	e005      	b.n	8000b04 <TI2_Config+0x74>
 8000af8:	f025 05a0 	bic.w	r5, r5, #160	; 0xa0
 8000afc:	f045 0510 	orr.w	r5, r5, #16
 8000b00:	ea45 0101 	orr.w	r1, r5, r1
 8000b04:	8304      	strh	r4, [r0, #24]
 8000b06:	8401      	strh	r1, [r0, #32]
 8000b08:	bc30      	pop	{r4, r5}
 8000b0a:	4770      	bx	lr
 8000b0c:	40012c00 	.word	0x40012c00
 8000b10:	40000400 	.word	0x40000400

08000b14 <TIM_TimeBaseInit>:
 8000b14:	8803      	ldrh	r3, [r0, #0]
 8000b16:	b29b      	uxth	r3, r3
 8000b18:	4a25      	ldr	r2, [pc, #148]	; (8000bb0 <TIM_TimeBaseInit+0x9c>)
 8000b1a:	4290      	cmp	r0, r2
 8000b1c:	d011      	beq.n	8000b42 <TIM_TimeBaseInit+0x2e>
 8000b1e:	f502 6200 	add.w	r2, r2, #2048	; 0x800
 8000b22:	4290      	cmp	r0, r2
 8000b24:	d00d      	beq.n	8000b42 <TIM_TimeBaseInit+0x2e>
 8000b26:	f1b0 4f80 	cmp.w	r0, #1073741824	; 0x40000000
 8000b2a:	d00a      	beq.n	8000b42 <TIM_TimeBaseInit+0x2e>
 8000b2c:	4a21      	ldr	r2, [pc, #132]	; (8000bb4 <TIM_TimeBaseInit+0xa0>)
 8000b2e:	4290      	cmp	r0, r2
 8000b30:	d007      	beq.n	8000b42 <TIM_TimeBaseInit+0x2e>
 8000b32:	f502 6280 	add.w	r2, r2, #1024	; 0x400
 8000b36:	4290      	cmp	r0, r2
 8000b38:	d003      	beq.n	8000b42 <TIM_TimeBaseInit+0x2e>
 8000b3a:	f502 6280 	add.w	r2, r2, #1024	; 0x400
 8000b3e:	4290      	cmp	r0, r2
 8000b40:	d106      	bne.n	8000b50 <TIM_TimeBaseInit+0x3c>
 8000b42:	f64f 728f 	movw	r2, #65423	; 0xff8f
 8000b46:	ea03 0202 	and.w	r2, r3, r2
 8000b4a:	884b      	ldrh	r3, [r1, #2]
 8000b4c:	ea42 0303 	orr.w	r3, r2, r3
 8000b50:	4a19      	ldr	r2, [pc, #100]	; (8000bb8 <TIM_TimeBaseInit+0xa4>)
 8000b52:	4290      	cmp	r0, r2
 8000b54:	d026      	beq.n	8000ba4 <TIM_TimeBaseInit+0x90>
 8000b56:	f502 6280 	add.w	r2, r2, #1024	; 0x400
 8000b5a:	4290      	cmp	r0, r2
 8000b5c:	d022      	beq.n	8000ba4 <TIM_TimeBaseInit+0x90>
 8000b5e:	f64f 42ff 	movw	r2, #64767	; 0xfcff
 8000b62:	ea03 0202 	and.w	r2, r3, r2
 8000b66:	88cb      	ldrh	r3, [r1, #6]
 8000b68:	431a      	orrs	r2, r3
 8000b6a:	8002      	strh	r2, [r0, #0]
 8000b6c:	888b      	ldrh	r3, [r1, #4]
 8000b6e:	8583      	strh	r3, [r0, #44]	; 0x2c
 8000b70:	880b      	ldrh	r3, [r1, #0]
 8000b72:	8503      	strh	r3, [r0, #40]	; 0x28
 8000b74:	4b0e      	ldr	r3, [pc, #56]	; (8000bb0 <TIM_TimeBaseInit+0x9c>)
 8000b76:	4298      	cmp	r0, r3
 8000b78:	d00e      	beq.n	8000b98 <TIM_TimeBaseInit+0x84>
 8000b7a:	4b10      	ldr	r3, [pc, #64]	; (8000bbc <TIM_TimeBaseInit+0xa8>)
 8000b7c:	4298      	cmp	r0, r3
 8000b7e:	d00b      	beq.n	8000b98 <TIM_TimeBaseInit+0x84>
 8000b80:	f503 6340 	add.w	r3, r3, #3072	; 0xc00
 8000b84:	4298      	cmp	r0, r3
 8000b86:	d007      	beq.n	8000b98 <TIM_TimeBaseInit+0x84>
 8000b88:	f503 6380 	add.w	r3, r3, #1024	; 0x400
 8000b8c:	4298      	cmp	r0, r3
 8000b8e:	d003      	beq.n	8000b98 <TIM_TimeBaseInit+0x84>
 8000b90:	f503 6380 	add.w	r3, r3, #1024	; 0x400
 8000b94:	4298      	cmp	r0, r3
 8000b96:	d101      	bne.n	8000b9c <TIM_TimeBaseInit+0x88>
 8000b98:	7a0b      	ldrb	r3, [r1, #8]
 8000b9a:	8603      	strh	r3, [r0, #48]	; 0x30
 8000b9c:	f04f 0301 	mov.w	r3, #1
 8000ba0:	8283      	strh	r3, [r0, #20]
 8000ba2:	4770      	bx	lr
 8000ba4:	8003      	strh	r3, [r0, #0]
 8000ba6:	888b      	ldrh	r3, [r1, #4]
 8000ba8:	8583      	strh	r3, [r0, #44]	; 0x2c
 8000baa:	880b      	ldrh	r3, [r1, #0]
 8000bac:	8503      	strh	r3, [r0, #40]	; 0x28
 8000bae:	e7e4      	b.n	8000b7a <TIM_TimeBaseInit+0x66>
 8000bb0:	40012c00 	.word	0x40012c00
 8000bb4:	40000400 	.word	0x40000400
 8000bb8:	40001000 	.word	0x40001000
 8000bbc:	40013400 	.word	0x40013400

08000bc0 <TIM_OC1Init>:
 8000bc0:	b470      	push	{r4, r5, r6}
 8000bc2:	8c03      	ldrh	r3, [r0, #32]
 8000bc4:	f023 0301 	bic.w	r3, r3, #1
 8000bc8:	ea4f 4303 	mov.w	r3, r3, lsl #16
 8000bcc:	ea4f 4313 	mov.w	r3, r3, lsr #16
 8000bd0:	8403      	strh	r3, [r0, #32]
 8000bd2:	8c03      	ldrh	r3, [r0, #32]
 8000bd4:	8884      	ldrh	r4, [r0, #4]
 8000bd6:	b2a4      	uxth	r4, r4
 8000bd8:	8b02      	ldrh	r2, [r0, #24]
 8000bda:	f022 0273 	bic.w	r2, r2, #115	; 0x73
 8000bde:	ea4f 4202 	mov.w	r2, r2, lsl #16
 8000be2:	ea4f 4212 	mov.w	r2, r2, lsr #16
 8000be6:	880d      	ldrh	r5, [r1, #0]
 8000be8:	432a      	orrs	r2, r5
 8000bea:	f023 0302 	bic.w	r3, r3, #2
 8000bee:	ea4f 4303 	mov.w	r3, r3, lsl #16
 8000bf2:	ea4f 4313 	mov.w	r3, r3, lsr #16
 8000bf6:	884e      	ldrh	r6, [r1, #2]
 8000bf8:	890d      	ldrh	r5, [r1, #8]
 8000bfa:	ea46 0505 	orr.w	r5, r6, r5
 8000bfe:	b2ad      	uxth	r5, r5
 8000c00:	ea45 0303 	orr.w	r3, r5, r3
 8000c04:	4d17      	ldr	r5, [pc, #92]	; (8000c64 <TIM_OC1Init+0xa4>)
 8000c06:	42a8      	cmp	r0, r5
 8000c08:	d00f      	beq.n	8000c2a <TIM_OC1Init+0x6a>
 8000c0a:	f505 6500 	add.w	r5, r5, #2048	; 0x800
 8000c0e:	42a8      	cmp	r0, r5
 8000c10:	d00b      	beq.n	8000c2a <TIM_OC1Init+0x6a>
 8000c12:	f505 6540 	add.w	r5, r5, #3072	; 0xc00
 8000c16:	42a8      	cmp	r0, r5
 8000c18:	d007      	beq.n	8000c2a <TIM_OC1Init+0x6a>
 8000c1a:	f505 6580 	add.w	r5, r5, #1024	; 0x400
 8000c1e:	42a8      	cmp	r0, r5
 8000c20:	d003      	beq.n	8000c2a <TIM_OC1Init+0x6a>
 8000c22:	f505 6580 	add.w	r5, r5, #1024	; 0x400
 8000c26:	42a8      	cmp	r0, r5
 8000c28:	d115      	bne.n	8000c56 <TIM_OC1Init+0x96>
 8000c2a:	f64f 75f7 	movw	r5, #65527	; 0xfff7
 8000c2e:	ea03 0505 	and.w	r5, r3, r5
 8000c32:	894b      	ldrh	r3, [r1, #10]
 8000c34:	431d      	orrs	r5, r3
 8000c36:	f64f 73fb 	movw	r3, #65531	; 0xfffb
 8000c3a:	ea05 0303 	and.w	r3, r5, r3
 8000c3e:	888d      	ldrh	r5, [r1, #4]
 8000c40:	432b      	orrs	r3, r5
 8000c42:	f64f 45ff 	movw	r5, #64767	; 0xfcff
 8000c46:	ea04 0505 	and.w	r5, r4, r5
 8000c4a:	89ce      	ldrh	r6, [r1, #14]
 8000c4c:	898c      	ldrh	r4, [r1, #12]
 8000c4e:	ea46 0404 	orr.w	r4, r6, r4
 8000c52:	b2a4      	uxth	r4, r4
 8000c54:	432c      	orrs	r4, r5
 8000c56:	8084      	strh	r4, [r0, #4]
 8000c58:	8302      	strh	r2, [r0, #24]
 8000c5a:	88ca      	ldrh	r2, [r1, #6]
 8000c5c:	8682      	strh	r2, [r0, #52]	; 0x34
 8000c5e:	8403      	strh	r3, [r0, #32]
 8000c60:	bc70      	pop	{r4, r5, r6}
 8000c62:	4770      	bx	lr
 8000c64:	40012c00 	.word	0x40012c00

08000c68 <TIM_Cmd>:
 8000c68:	b129      	cbz	r1, 8000c76 <TIM_Cmd+0xe>
 8000c6a:	8803      	ldrh	r3, [r0, #0]
 8000c6c:	b29b      	uxth	r3, r3
 8000c6e:	f043 0301 	orr.w	r3, r3, #1
 8000c72:	8003      	strh	r3, [r0, #0]
 8000c74:	4770      	bx	lr
 8000c76:	8803      	ldrh	r3, [r0, #0]
 8000c78:	f023 0301 	bic.w	r3, r3, #1
 8000c7c:	ea4f 4303 	mov.w	r3, r3, lsl #16
 8000c80:	ea4f 4313 	mov.w	r3, r3, lsr #16
 8000c84:	8003      	strh	r3, [r0, #0]
 8000c86:	4770      	bx	lr

08000c88 <TIM_ITConfig>:
 8000c88:	b122      	cbz	r2, 8000c94 <TIM_ITConfig+0xc>
 8000c8a:	8983      	ldrh	r3, [r0, #12]
 8000c8c:	b29b      	uxth	r3, r3
 8000c8e:	4319      	orrs	r1, r3
 8000c90:	8181      	strh	r1, [r0, #12]
 8000c92:	4770      	bx	lr
 8000c94:	8983      	ldrh	r3, [r0, #12]
 8000c96:	b29b      	uxth	r3, r3
 8000c98:	ea23 0101 	bic.w	r1, r3, r1
 8000c9c:	8181      	strh	r1, [r0, #12]
 8000c9e:	4770      	bx	lr

08000ca0 <TIM_SelectInputTrigger>:
 8000ca0:	8903      	ldrh	r3, [r0, #8]
 8000ca2:	f023 0370 	bic.w	r3, r3, #112	; 0x70
 8000ca6:	ea4f 4303 	mov.w	r3, r3, lsl #16
 8000caa:	ea4f 4313 	mov.w	r3, r3, lsr #16
 8000cae:	ea41 0303 	orr.w	r3, r1, r3
 8000cb2:	8103      	strh	r3, [r0, #8]
 8000cb4:	4770      	bx	lr
 8000cb6:	bf00      	nop

08000cb8 <TIM_ARRPreloadConfig>:
 8000cb8:	b129      	cbz	r1, 8000cc6 <TIM_ARRPreloadConfig+0xe>
 8000cba:	8803      	ldrh	r3, [r0, #0]
 8000cbc:	b29b      	uxth	r3, r3
 8000cbe:	f043 0380 	orr.w	r3, r3, #128	; 0x80
 8000cc2:	8003      	strh	r3, [r0, #0]
 8000cc4:	4770      	bx	lr
 8000cc6:	8803      	ldrh	r3, [r0, #0]
 8000cc8:	f023 0380 	bic.w	r3, r3, #128	; 0x80
 8000ccc:	ea4f 4303 	mov.w	r3, r3, lsl #16
 8000cd0:	ea4f 4313 	mov.w	r3, r3, lsr #16
 8000cd4:	8003      	strh	r3, [r0, #0]
 8000cd6:	4770      	bx	lr

08000cd8 <TIM_OC1PreloadConfig>:
 8000cd8:	8b03      	ldrh	r3, [r0, #24]
 8000cda:	f023 0308 	bic.w	r3, r3, #8
 8000cde:	ea4f 4303 	mov.w	r3, r3, lsl #16
 8000ce2:	ea4f 4313 	mov.w	r3, r3, lsr #16
 8000ce6:	ea41 0303 	orr.w	r3, r1, r3
 8000cea:	8303      	strh	r3, [r0, #24]
 8000cec:	4770      	bx	lr
 8000cee:	bf00      	nop

08000cf0 <TIM_SelectSlaveMode>:
 8000cf0:	8903      	ldrh	r3, [r0, #8]
 8000cf2:	f023 0307 	bic.w	r3, r3, #7
 8000cf6:	ea4f 4303 	mov.w	r3, r3, lsl #16
 8000cfa:	ea4f 4313 	mov.w	r3, r3, lsr #16
 8000cfe:	8103      	strh	r3, [r0, #8]
 8000d00:	8903      	ldrh	r3, [r0, #8]
 8000d02:	b29b      	uxth	r3, r3
 8000d04:	ea41 0303 	orr.w	r3, r1, r3
 8000d08:	8103      	strh	r3, [r0, #8]
 8000d0a:	4770      	bx	lr

08000d0c <TIM_SelectMasterSlaveMode>:
 8000d0c:	8903      	ldrh	r3, [r0, #8]
 8000d0e:	f023 0380 	bic.w	r3, r3, #128	; 0x80
 8000d12:	ea4f 4303 	mov.w	r3, r3, lsl #16
 8000d16:	ea4f 4313 	mov.w	r3, r3, lsr #16
 8000d1a:	8103      	strh	r3, [r0, #8]
 8000d1c:	8903      	ldrh	r3, [r0, #8]
 8000d1e:	b29b      	uxth	r3, r3
 8000d20:	ea41 0303 	orr.w	r3, r1, r3
 8000d24:	8103      	strh	r3, [r0, #8]
 8000d26:	4770      	bx	lr

08000d28 <TIM_SetIC1Prescaler>:
 8000d28:	8b03      	ldrh	r3, [r0, #24]
 8000d2a:	f023 030c 	bic.w	r3, r3, #12
 8000d2e:	ea4f 4303 	mov.w	r3, r3, lsl #16
 8000d32:	ea4f 4313 	mov.w	r3, r3, lsr #16
 8000d36:	8303      	strh	r3, [r0, #24]
 8000d38:	8b03      	ldrh	r3, [r0, #24]
 8000d3a:	b29b      	uxth	r3, r3
 8000d3c:	ea41 0303 	orr.w	r3, r1, r3
 8000d40:	8303      	strh	r3, [r0, #24]
 8000d42:	4770      	bx	lr

08000d44 <TIM_SetIC2Prescaler>:
 8000d44:	8b03      	ldrh	r3, [r0, #24]
 8000d46:	f423 6340 	bic.w	r3, r3, #3072	; 0xc00
 8000d4a:	ea4f 4303 	mov.w	r3, r3, lsl #16
 8000d4e:	ea4f 4313 	mov.w	r3, r3, lsr #16
 8000d52:	8303      	strh	r3, [r0, #24]
 8000d54:	8b03      	ldrh	r3, [r0, #24]
 8000d56:	b29b      	uxth	r3, r3
 8000d58:	ea43 2301 	orr.w	r3, r3, r1, lsl #8
 8000d5c:	b29b      	uxth	r3, r3
 8000d5e:	8303      	strh	r3, [r0, #24]
 8000d60:	4770      	bx	lr
 8000d62:	bf00      	nop

08000d64 <TIM_PWMIConfig>:
 8000d64:	b5f8      	push	{r3, r4, r5, r6, r7, lr}
 8000d66:	4605      	mov	r5, r0
 8000d68:	460c      	mov	r4, r1
 8000d6a:	8849      	ldrh	r1, [r1, #2]
 8000d6c:	2900      	cmp	r1, #0
 8000d6e:	bf0c      	ite	eq
 8000d70:	2602      	moveq	r6, #2
 8000d72:	2600      	movne	r6, #0
 8000d74:	88a2      	ldrh	r2, [r4, #4]
 8000d76:	2a01      	cmp	r2, #1
 8000d78:	bf14      	ite	ne
 8000d7a:	2701      	movne	r7, #1
 8000d7c:	2702      	moveq	r7, #2
 8000d7e:	8823      	ldrh	r3, [r4, #0]
 8000d80:	b98b      	cbnz	r3, 8000da6 <TIM_PWMIConfig+0x42>
 8000d82:	8923      	ldrh	r3, [r4, #8]
 8000d84:	f7ff fe42 	bl	8000a0c <TI1_Config>
 8000d88:	4628      	mov	r0, r5
 8000d8a:	88e1      	ldrh	r1, [r4, #6]
 8000d8c:	f7ff ffcc 	bl	8000d28 <TIM_SetIC1Prescaler>
 8000d90:	4628      	mov	r0, r5
 8000d92:	4631      	mov	r1, r6
 8000d94:	463a      	mov	r2, r7
 8000d96:	8923      	ldrh	r3, [r4, #8]
 8000d98:	f7ff fe7a 	bl	8000a90 <TI2_Config>
 8000d9c:	4628      	mov	r0, r5
 8000d9e:	88e1      	ldrh	r1, [r4, #6]
 8000da0:	f7ff ffd0 	bl	8000d44 <TIM_SetIC2Prescaler>
 8000da4:	bdf8      	pop	{r3, r4, r5, r6, r7, pc}
 8000da6:	8923      	ldrh	r3, [r4, #8]
 8000da8:	f7ff fe72 	bl	8000a90 <TI2_Config>
 8000dac:	4628      	mov	r0, r5
 8000dae:	88e1      	ldrh	r1, [r4, #6]
 8000db0:	f7ff ffc8 	bl	8000d44 <TIM_SetIC2Prescaler>
 8000db4:	4628      	mov	r0, r5
 8000db6:	4631      	mov	r1, r6
 8000db8:	463a      	mov	r2, r7
 8000dba:	8923      	ldrh	r3, [r4, #8]
 8000dbc:	f7ff fe26 	bl	8000a0c <TI1_Config>
 8000dc0:	4628      	mov	r0, r5
 8000dc2:	88e1      	ldrh	r1, [r4, #6]
 8000dc4:	f7ff ffb0 	bl	8000d28 <TIM_SetIC1Prescaler>
 8000dc8:	bdf8      	pop	{r3, r4, r5, r6, r7, pc}
 8000dca:	bf00      	nop

08000dcc <TIM_GetCapture1>:
 8000dcc:	8e80      	ldrh	r0, [r0, #52]	; 0x34
 8000dce:	b280      	uxth	r0, r0
 8000dd0:	4770      	bx	lr
 8000dd2:	bf00      	nop

08000dd4 <TIM_GetCapture2>:
 8000dd4:	8f00      	ldrh	r0, [r0, #56]	; 0x38
 8000dd6:	b280      	uxth	r0, r0
 8000dd8:	4770      	bx	lr
 8000dda:	bf00      	nop

08000ddc <TIM_ClearITPendingBit>:
 8000ddc:	ea6f 0101 	mvn.w	r1, r1
 8000de0:	b289      	uxth	r1, r1
 8000de2:	8201      	strh	r1, [r0, #16]
 8000de4:	4770      	bx	lr
 8000de6:	bf00      	nop

08000de8 <Default_Reset_Handler>:
 8000de8:	b508      	push	{r3, lr}
 8000dea:	4b0d      	ldr	r3, [pc, #52]	; (8000e20 <zero_loop+0x14>)
 8000dec:	4a0d      	ldr	r2, [pc, #52]	; (8000e24 <zero_loop+0x18>)
 8000dee:	429a      	cmp	r2, r3
 8000df0:	d208      	bcs.n	8000e04 <Default_Reset_Handler+0x1c>
 8000df2:	4a0d      	ldr	r2, [pc, #52]	; (8000e28 <zero_loop+0x1c>)
 8000df4:	4b0b      	ldr	r3, [pc, #44]	; (8000e24 <zero_loop+0x18>)
 8000df6:	480a      	ldr	r0, [pc, #40]	; (8000e20 <zero_loop+0x14>)
 8000df8:	f852 1b04 	ldr.w	r1, [r2], #4
 8000dfc:	f843 1b04 	str.w	r1, [r3], #4
 8000e00:	4283      	cmp	r3, r0
 8000e02:	d3f9      	bcc.n	8000df8 <Default_Reset_Handler+0x10>
 8000e04:	4809      	ldr	r0, [pc, #36]	; (8000e2c <zero_loop+0x20>)
 8000e06:	490a      	ldr	r1, [pc, #40]	; (8000e30 <zero_loop+0x24>)
 8000e08:	f04f 0200 	mov.w	r2, #0

08000e0c <zero_loop>:
 8000e0c:	4288      	cmp	r0, r1
 8000e0e:	bfb8      	it	lt
 8000e10:	f840 2b04 	strlt.w	r2, [r0], #4
 8000e14:	dbfa      	blt.n	8000e0c <zero_loop>
 8000e16:	f000 fb5b 	bl	80014d0 <SystemInit>
 8000e1a:	f000 fc57 	bl	80016cc <main>
 8000e1e:	bd08      	pop	{r3, pc}
 8000e20:	20000140 	.word	0x20000140
 8000e24:	20000000 	.word	0x20000000
 8000e28:	080036cc 	.word	0x080036cc
 8000e2c:	20000140 	.word	0x20000140
 8000e30:	2000128c 	.word	0x2000128c

08000e34 <ADC1_IRQHandler>:
 8000e34:	e7fe      	b.n	8000e34 <ADC1_IRQHandler>
 8000e36:	bf00      	nop

08000e38 <GetFrequencyInterval>:
 8000e38:	b470      	push	{r4, r5, r6}
 8000e3a:	f5c0 42ea 	rsb	r2, r0, #29952	; 0x7500
 8000e3e:	f102 0230 	add.w	r2, r2, #48	; 0x30
 8000e42:	2a00      	cmp	r2, #0
 8000e44:	bfb8      	it	lt
 8000e46:	4252      	neglt	r2, r2
 8000e48:	f5c0 41fa 	rsb	r1, r0, #32000	; 0x7d00
 8000e4c:	2900      	cmp	r1, #0
 8000e4e:	bfb8      	it	lt
 8000e50:	4249      	neglt	r1, r1
 8000e52:	f5b2 7f7a 	cmp.w	r2, #1000	; 0x3e8
 8000e56:	d917      	bls.n	8000e88 <GetFrequencyInterval+0x50>
 8000e58:	f5b1 7f7a 	cmp.w	r1, #1000	; 0x3e8
 8000e5c:	d919      	bls.n	8000e92 <GetFrequencyInterval+0x5a>
 8000e5e:	4c14      	ldr	r4, [pc, #80]	; (8000eb0 <GetFrequencyInterval+0x78>)
 8000e60:	f104 0638 	add.w	r6, r4, #56	; 0x38
 8000e64:	f854 5f04 	ldr.w	r5, [r4, #4]!
 8000e68:	1a2a      	subs	r2, r5, r0
 8000e6a:	2a00      	cmp	r2, #0
 8000e6c:	bfb8      	it	lt
 8000e6e:	4252      	neglt	r2, r2
 8000e70:	6863      	ldr	r3, [r4, #4]
 8000e72:	1a19      	subs	r1, r3, r0
 8000e74:	2900      	cmp	r1, #0
 8000e76:	bfb8      	it	lt
 8000e78:	4249      	neglt	r1, r1
 8000e7a:	f5b2 7f7a 	cmp.w	r2, #1000	; 0x3e8
 8000e7e:	d90c      	bls.n	8000e9a <GetFrequencyInterval+0x62>
 8000e80:	f5b1 7f7a 	cmp.w	r1, #1000	; 0x3e8
 8000e84:	d80d      	bhi.n	8000ea2 <GetFrequencyInterval+0x6a>
 8000e86:	e008      	b.n	8000e9a <GetFrequencyInterval+0x62>
 8000e88:	f44f 43fa 	mov.w	r3, #32000	; 0x7d00
 8000e8c:	f247 5530 	movw	r5, #30000	; 0x7530
 8000e90:	e003      	b.n	8000e9a <GetFrequencyInterval+0x62>
 8000e92:	f44f 43fa 	mov.w	r3, #32000	; 0x7d00
 8000e96:	f247 5530 	movw	r5, #30000	; 0x7530
 8000e9a:	428a      	cmp	r2, r1
 8000e9c:	bf38      	it	cc
 8000e9e:	462b      	movcc	r3, r5
 8000ea0:	e003      	b.n	8000eaa <GetFrequencyInterval+0x72>
 8000ea2:	42b4      	cmp	r4, r6
 8000ea4:	d1de      	bne.n	8000e64 <GetFrequencyInterval+0x2c>
 8000ea6:	f04f 0300 	mov.w	r3, #0
 8000eaa:	4618      	mov	r0, r3
 8000eac:	bc70      	pop	{r4, r5, r6}
 8000eae:	4770      	bx	lr
 8000eb0:	0800326c 	.word	0x0800326c

08000eb4 <SetCarrierFrequency>:
 8000eb4:	e92d 41f0 	stmdb	sp!, {r4, r5, r6, r7, r8, lr}
 8000eb8:	b082      	sub	sp, #8
 8000eba:	4606      	mov	r6, r0
 8000ebc:	4b4c      	ldr	r3, [pc, #304]	; (8000ff0 <SetCarrierFrequency+0x13c>)
 8000ebe:	681b      	ldr	r3, [r3, #0]
 8000ec0:	f013 0f01 	tst.w	r3, #1
 8000ec4:	d15c      	bne.n	8000f80 <SetCarrierFrequency+0xcc>
 8000ec6:	4b4b      	ldr	r3, [pc, #300]	; (8000ff4 <SetCarrierFrequency+0x140>)
 8000ec8:	681a      	ldr	r2, [r3, #0]
 8000eca:	4b4b      	ldr	r3, [pc, #300]	; (8000ff8 <SetCarrierFrequency+0x144>)
 8000ecc:	fba3 1802 	umull	r1, r8, r3, r2
 8000ed0:	ea4f 3858 	mov.w	r8, r8, lsr #13
 8000ed4:	f108 38ff 	add.w	r8, r8, #4294967295
 8000ed8:	fa1f f888 	uxth.w	r8, r8
 8000edc:	f04f 0004 	mov.w	r0, #4
 8000ee0:	f04f 0101 	mov.w	r1, #1
 8000ee4:	f001 f89e 	bl	8002024 <RCC_APB1PeriphClockCmd>
 8000ee8:	4944      	ldr	r1, [pc, #272]	; (8000ffc <SetCarrierFrequency+0x148>)
 8000eea:	f8a1 8004 	strh.w	r8, [r1, #4]
 8000eee:	f04f 0700 	mov.w	r7, #0
 8000ef2:	800f      	strh	r7, [r1, #0]
 8000ef4:	80cf      	strh	r7, [r1, #6]
 8000ef6:	804f      	strh	r7, [r1, #2]
 8000ef8:	4d41      	ldr	r5, [pc, #260]	; (8001000 <SetCarrierFrequency+0x14c>)
 8000efa:	4628      	mov	r0, r5
 8000efc:	f7ff fe0a 	bl	8000b14 <TIM_TimeBaseInit>
 8000f00:	4940      	ldr	r1, [pc, #256]	; (8001004 <SetCarrierFrequency+0x150>)
 8000f02:	f04f 0370 	mov.w	r3, #112	; 0x70
 8000f06:	800b      	strh	r3, [r1, #0]
 8000f08:	f04f 0401 	mov.w	r4, #1
 8000f0c:	804c      	strh	r4, [r1, #2]
 8000f0e:	f108 38ff 	add.w	r8, r8, #4294967295
 8000f12:	eb08 0888 	add.w	r8, r8, r8, lsl #2
 8000f16:	4b3c      	ldr	r3, [pc, #240]	; (8001008 <SetCarrierFrequency+0x154>)
 8000f18:	fba3 2808 	umull	r2, r8, r3, r8
 8000f1c:	ea4f 08d8 	mov.w	r8, r8, lsr #3
 8000f20:	f8a1 8006 	strh.w	r8, [r1, #6]
 8000f24:	810f      	strh	r7, [r1, #8]
 8000f26:	4628      	mov	r0, r5
 8000f28:	f7ff fe4a 	bl	8000bc0 <TIM_OC1Init>
 8000f2c:	4628      	mov	r0, r5
 8000f2e:	f04f 0108 	mov.w	r1, #8
 8000f32:	f7ff fed1 	bl	8000cd8 <TIM_OC1PreloadConfig>
 8000f36:	4620      	mov	r0, r4
 8000f38:	4621      	mov	r1, r4
 8000f3a:	f001 f865 	bl	8002008 <RCC_APB2PeriphClockCmd>
 8000f3e:	f04f 0008 	mov.w	r0, #8
 8000f42:	4621      	mov	r1, r4
 8000f44:	f001 f860 	bl	8002008 <RCC_APB2PeriphClockCmd>
 8000f48:	f04f 0340 	mov.w	r3, #64	; 0x40
 8000f4c:	f8ad 3004 	strh.w	r3, [sp, #4]
 8000f50:	f04f 0318 	mov.w	r3, #24
 8000f54:	f88d 3007 	strb.w	r3, [sp, #7]
 8000f58:	f04f 0303 	mov.w	r3, #3
 8000f5c:	f88d 3006 	strb.w	r3, [sp, #6]
 8000f60:	482a      	ldr	r0, [pc, #168]	; (800100c <SetCarrierFrequency+0x158>)
 8000f62:	a901      	add	r1, sp, #4
 8000f64:	f000 fb26 	bl	80015b4 <GPIO_Init>
 8000f68:	4628      	mov	r0, r5
 8000f6a:	4621      	mov	r1, r4
 8000f6c:	f7ff fea4 	bl	8000cb8 <TIM_ARRPreloadConfig>
 8000f70:	4628      	mov	r0, r5
 8000f72:	4621      	mov	r1, r4
 8000f74:	f7ff fe78 	bl	8000c68 <TIM_Cmd>
 8000f78:	4b1d      	ldr	r3, [pc, #116]	; (8000ff0 <SetCarrierFrequency+0x13c>)
 8000f7a:	681a      	ldr	r2, [r3, #0]
 8000f7c:	4322      	orrs	r2, r4
 8000f7e:	601a      	str	r2, [r3, #0]
 8000f80:	4c1f      	ldr	r4, [pc, #124]	; (8001000 <SetCarrierFrequency+0x14c>)
 8000f82:	4620      	mov	r0, r4
 8000f84:	f04f 0100 	mov.w	r1, #0
 8000f88:	f7ff fe6e 	bl	8000c68 <TIM_Cmd>
 8000f8c:	4620      	mov	r0, r4
 8000f8e:	f04f 0100 	mov.w	r1, #0
 8000f92:	f7ff fe91 	bl	8000cb8 <TIM_ARRPreloadConfig>
 8000f96:	4b17      	ldr	r3, [pc, #92]	; (8000ff4 <SetCarrierFrequency+0x140>)
 8000f98:	681b      	ldr	r3, [r3, #0]
 8000f9a:	fbb3 f6f6 	udiv	r6, r3, r6
 8000f9e:	f106 36ff 	add.w	r6, r6, #4294967295
 8000fa2:	b2b6      	uxth	r6, r6
 8000fa4:	4915      	ldr	r1, [pc, #84]	; (8000ffc <SetCarrierFrequency+0x148>)
 8000fa6:	808e      	strh	r6, [r1, #4]
 8000fa8:	4620      	mov	r0, r4
 8000faa:	f7ff fdb3 	bl	8000b14 <TIM_TimeBaseInit>
 8000fae:	4915      	ldr	r1, [pc, #84]	; (8001004 <SetCarrierFrequency+0x150>)
 8000fb0:	f106 36ff 	add.w	r6, r6, #4294967295
 8000fb4:	eb06 0686 	add.w	r6, r6, r6, lsl #2
 8000fb8:	4b13      	ldr	r3, [pc, #76]	; (8001008 <SetCarrierFrequency+0x154>)
 8000fba:	fba3 2606 	umull	r2, r6, r3, r6
 8000fbe:	ea4f 06d6 	mov.w	r6, r6, lsr #3
 8000fc2:	80ce      	strh	r6, [r1, #6]
 8000fc4:	4620      	mov	r0, r4
 8000fc6:	f7ff fdfb 	bl	8000bc0 <TIM_OC1Init>
 8000fca:	4620      	mov	r0, r4
 8000fcc:	f04f 0108 	mov.w	r1, #8
 8000fd0:	f7ff fe82 	bl	8000cd8 <TIM_OC1PreloadConfig>
 8000fd4:	4620      	mov	r0, r4
 8000fd6:	f04f 0101 	mov.w	r1, #1
 8000fda:	f7ff fe6d 	bl	8000cb8 <TIM_ARRPreloadConfig>
 8000fde:	4620      	mov	r0, r4
 8000fe0:	f04f 0101 	mov.w	r1, #1
 8000fe4:	f7ff fe40 	bl	8000c68 <TIM_Cmd>
 8000fe8:	b002      	add	sp, #8
 8000fea:	e8bd 81f0 	ldmia.w	sp!, {r4, r5, r6, r7, r8, pc}
 8000fee:	bf00      	nop
 8000ff0:	20000148 	.word	0x20000148
 8000ff4:	20000004 	.word	0x20000004
 8000ff8:	45e7b273 	.word	0x45e7b273
 8000ffc:	20001164 	.word	0x20001164
 8001000:	40000800 	.word	0x40000800
 8001004:	20001170 	.word	0x20001170
 8001008:	cccccccd 	.word	0xcccccccd
 800100c:	40010c00 	.word	0x40010c00

08001010 <Scan>:
 8001010:	e92d 41f0 	stmdb	sp!, {r4, r5, r6, r7, r8, lr}
 8001014:	b088      	sub	sp, #32
 8001016:	4604      	mov	r4, r0
 8001018:	4b85      	ldr	r3, [pc, #532]	; (8001230 <Scan+0x220>)
 800101a:	681b      	ldr	r3, [r3, #0]
 800101c:	f013 0f02 	tst.w	r3, #2
 8001020:	f040 8083 	bne.w	800112a <Scan+0x11a>
 8001024:	4b83      	ldr	r3, [pc, #524]	; (8001234 <Scan+0x224>)
 8001026:	681d      	ldr	r5, [r3, #0]
 8001028:	4b83      	ldr	r3, [pc, #524]	; (8001238 <Scan+0x228>)
 800102a:	fba3 2505 	umull	r2, r5, r3, r5
 800102e:	ea4f 4595 	mov.w	r5, r5, lsr #18
 8001032:	f105 35ff 	add.w	r5, r5, #4294967295
 8001036:	b2ad      	uxth	r5, r5
 8001038:	f04f 0002 	mov.w	r0, #2
 800103c:	f04f 0101 	mov.w	r1, #1
 8001040:	f000 fff0 	bl	8002024 <RCC_APB1PeriphClockCmd>
 8001044:	f04f 0001 	mov.w	r0, #1
 8001048:	4601      	mov	r1, r0
 800104a:	f000 ffeb 	bl	8002024 <RCC_APB1PeriphClockCmd>
 800104e:	f04f 0004 	mov.w	r0, #4
 8001052:	f04f 0101 	mov.w	r1, #1
 8001056:	f000 ffd7 	bl	8002008 <RCC_APB2PeriphClockCmd>
 800105a:	f04f 0001 	mov.w	r0, #1
 800105e:	4601      	mov	r1, r0
 8001060:	f000 ffd2 	bl	8002008 <RCC_APB2PeriphClockCmd>
 8001064:	a807      	add	r0, sp, #28
 8001066:	f000 fb07 	bl	8001678 <GPIO_StructInit>
 800106a:	f04f 0780 	mov.w	r7, #128	; 0x80
 800106e:	f8ad 701c 	strh.w	r7, [sp, #28]
 8001072:	f04f 0604 	mov.w	r6, #4
 8001076:	f88d 601f 	strb.w	r6, [sp, #31]
 800107a:	f04f 0303 	mov.w	r3, #3
 800107e:	f88d 301e 	strb.w	r3, [sp, #30]
 8001082:	486e      	ldr	r0, [pc, #440]	; (800123c <Scan+0x22c>)
 8001084:	a907      	add	r1, sp, #28
 8001086:	f000 fa95 	bl	80015b4 <GPIO_Init>
 800108a:	f04f 32ff 	mov.w	r2, #4294967295
 800108e:	f8ad 2014 	strh.w	r2, [sp, #20]
 8001092:	f8ad 5010 	strh.w	r5, [sp, #16]
 8001096:	f04f 0500 	mov.w	r5, #0
 800109a:	f8ad 5016 	strh.w	r5, [sp, #22]
 800109e:	f8ad 5012 	strh.w	r5, [sp, #18]
 80010a2:	f04f 4080 	mov.w	r0, #1073741824	; 0x40000000
 80010a6:	a904      	add	r1, sp, #16
 80010a8:	f7ff fd34 	bl	8000b14 <TIM_TimeBaseInit>
 80010ac:	f04f 4080 	mov.w	r0, #1073741824	; 0x40000000
 80010b0:	f04f 0101 	mov.w	r1, #1
 80010b4:	460a      	mov	r2, r1
 80010b6:	f7ff fde7 	bl	8000c88 <TIM_ITConfig>
 80010ba:	f8ad 6004 	strh.w	r6, [sp, #4]
 80010be:	f8ad 5006 	strh.w	r5, [sp, #6]
 80010c2:	f04f 0801 	mov.w	r8, #1
 80010c6:	f8ad 8008 	strh.w	r8, [sp, #8]
 80010ca:	f8ad 500a 	strh.w	r5, [sp, #10]
 80010ce:	f8ad 500c 	strh.w	r5, [sp, #12]
 80010d2:	4d5b      	ldr	r5, [pc, #364]	; (8001240 <Scan+0x230>)
 80010d4:	4628      	mov	r0, r5
 80010d6:	eb0d 0106 	add.w	r1, sp, r6
 80010da:	f7ff fe43 	bl	8000d64 <TIM_PWMIConfig>
 80010de:	4628      	mov	r0, r5
 80010e0:	f04f 0160 	mov.w	r1, #96	; 0x60
 80010e4:	f7ff fddc 	bl	8000ca0 <TIM_SelectInputTrigger>
 80010e8:	4628      	mov	r0, r5
 80010ea:	4631      	mov	r1, r6
 80010ec:	f7ff fe00 	bl	8000cf0 <TIM_SelectSlaveMode>
 80010f0:	4628      	mov	r0, r5
 80010f2:	4639      	mov	r1, r7
 80010f4:	f7ff fe0a 	bl	8000d0c <TIM_SelectMasterSlaveMode>
 80010f8:	4628      	mov	r0, r5
 80010fa:	4631      	mov	r1, r6
 80010fc:	4642      	mov	r2, r8
 80010fe:	f7ff fdc3 	bl	8000c88 <TIM_ITConfig>
 8001102:	4b50      	ldr	r3, [pc, #320]	; (8001244 <Scan+0x234>)
 8001104:	f04f 5280 	mov.w	r2, #268435456	; 0x10000000
 8001108:	601a      	str	r2, [r3, #0]
 800110a:	f04f 0230 	mov.w	r2, #48	; 0x30
 800110e:	f883 231c 	strb.w	r2, [r3, #796]	; 0x31c
 8001112:	f04f 5200 	mov.w	r2, #536870912	; 0x20000000
 8001116:	601a      	str	r2, [r3, #0]
 8001118:	f04f 0240 	mov.w	r2, #64	; 0x40
 800111c:	f883 231d 	strb.w	r2, [r3, #797]	; 0x31d
 8001120:	4b43      	ldr	r3, [pc, #268]	; (8001230 <Scan+0x220>)
 8001122:	681a      	ldr	r2, [r3, #0]
 8001124:	f042 0202 	orr.w	r2, r2, #2
 8001128:	601a      	str	r2, [r3, #0]
 800112a:	4b41      	ldr	r3, [pc, #260]	; (8001230 <Scan+0x220>)
 800112c:	681b      	ldr	r3, [r3, #0]
 800112e:	f013 0f04 	tst.w	r3, #4
 8001132:	d13a      	bne.n	80011aa <Scan+0x19a>
 8001134:	f04f 0010 	mov.w	r0, #16
 8001138:	f04f 0101 	mov.w	r1, #1
 800113c:	f000 ff64 	bl	8002008 <RCC_APB2PeriphClockCmd>
 8001140:	f04f 0001 	mov.w	r0, #1
 8001144:	4601      	mov	r1, r0
 8001146:	f000 ff5f 	bl	8002008 <RCC_APB2PeriphClockCmd>
 800114a:	a807      	add	r0, sp, #28
 800114c:	f000 fa94 	bl	8001678 <GPIO_StructInit>
 8001150:	f04f 0501 	mov.w	r5, #1
 8001154:	f8ad 501c 	strh.w	r5, [sp, #28]
 8001158:	f04f 0328 	mov.w	r3, #40	; 0x28
 800115c:	f88d 301f 	strb.w	r3, [sp, #31]
 8001160:	f04f 0303 	mov.w	r3, #3
 8001164:	f88d 301e 	strb.w	r3, [sp, #30]
 8001168:	4837      	ldr	r0, [pc, #220]	; (8001248 <Scan+0x238>)
 800116a:	a907      	add	r1, sp, #28
 800116c:	f000 fa22 	bl	80015b4 <GPIO_Init>
 8001170:	f04f 0610 	mov.w	r6, #16
 8001174:	4b33      	ldr	r3, [pc, #204]	; (8001244 <Scan+0x234>)
 8001176:	f883 6306 	strb.w	r6, [r3, #774]	; 0x306
 800117a:	f04f 0002 	mov.w	r0, #2
 800117e:	f04f 0100 	mov.w	r1, #0
 8001182:	f000 fa83 	bl	800168c <GPIO_EXTILineConfig>
 8001186:	9504      	str	r5, [sp, #16]
 8001188:	f04f 0300 	mov.w	r3, #0
 800118c:	f88d 3014 	strb.w	r3, [sp, #20]
 8001190:	f88d 6015 	strb.w	r6, [sp, #21]
 8001194:	f88d 5016 	strb.w	r5, [sp, #22]
 8001198:	eb0d 0006 	add.w	r0, sp, r6
 800119c:	f000 ff50 	bl	8002040 <EXTI_Init>
 80011a0:	4b23      	ldr	r3, [pc, #140]	; (8001230 <Scan+0x220>)
 80011a2:	681a      	ldr	r2, [r3, #0]
 80011a4:	f042 0204 	orr.w	r2, r2, #4
 80011a8:	601a      	str	r2, [r3, #0]
 80011aa:	2c00      	cmp	r4, #0
 80011ac:	d03c      	beq.n	8001228 <Scan+0x218>
 80011ae:	4b20      	ldr	r3, [pc, #128]	; (8001230 <Scan+0x220>)
 80011b0:	605c      	str	r4, [r3, #4]
 80011b2:	f04f 0300 	mov.w	r3, #0
 80011b6:	7223      	strb	r3, [r4, #8]
 80011b8:	7263      	strb	r3, [r4, #9]
 80011ba:	72a3      	strb	r3, [r4, #10]
 80011bc:	72e3      	strb	r3, [r4, #11]
 80011be:	7323      	strb	r3, [r4, #12]
 80011c0:	7363      	strb	r3, [r4, #13]
 80011c2:	73a3      	strb	r3, [r4, #14]
 80011c4:	73e3      	strb	r3, [r4, #15]
 80011c6:	4b20      	ldr	r3, [pc, #128]	; (8001248 <Scan+0x238>)
 80011c8:	689b      	ldr	r3, [r3, #8]
 80011ca:	f013 0f01 	tst.w	r3, #1
 80011ce:	6923      	ldr	r3, [r4, #16]
 80011d0:	bf14      	ite	ne
 80011d2:	f043 4300 	orrne.w	r3, r3, #2147483648	; 0x80000000
 80011d6:	f023 4300 	biceq.w	r3, r3, #2147483648	; 0x80000000
 80011da:	6123      	str	r3, [r4, #16]
 80011dc:	4b14      	ldr	r3, [pc, #80]	; (8001230 <Scan+0x220>)
 80011de:	f04f 0400 	mov.w	r4, #0
 80011e2:	609c      	str	r4, [r3, #8]
 80011e4:	f04f 0601 	mov.w	r6, #1
 80011e8:	60de      	str	r6, [r3, #12]
 80011ea:	611c      	str	r4, [r3, #16]
 80011ec:	4f14      	ldr	r7, [pc, #80]	; (8001240 <Scan+0x230>)
 80011ee:	4638      	mov	r0, r7
 80011f0:	f04f 0104 	mov.w	r1, #4
 80011f4:	f7ff fdf2 	bl	8000ddc <TIM_ClearITPendingBit>
 80011f8:	f04f 4080 	mov.w	r0, #1073741824	; 0x40000000
 80011fc:	4631      	mov	r1, r6
 80011fe:	f7ff fded 	bl	8000ddc <TIM_ClearITPendingBit>
 8001202:	f04f 4580 	mov.w	r5, #1073741824	; 0x40000000
 8001206:	84ac      	strh	r4, [r5, #36]	; 0x24
 8001208:	84bc      	strh	r4, [r7, #36]	; 0x24
 800120a:	4630      	mov	r0, r6
 800120c:	f000 ff62 	bl	80020d4 <EXTI_ClearITPendingBit>
 8001210:	4628      	mov	r0, r5
 8001212:	4621      	mov	r1, r4
 8001214:	f7ff fd28 	bl	8000c68 <TIM_Cmd>
 8001218:	4638      	mov	r0, r7
 800121a:	4631      	mov	r1, r6
 800121c:	f7ff fd24 	bl	8000c68 <TIM_Cmd>
 8001220:	f04f 0240 	mov.w	r2, #64	; 0x40
 8001224:	4b07      	ldr	r3, [pc, #28]	; (8001244 <Scan+0x234>)
 8001226:	601a      	str	r2, [r3, #0]
 8001228:	b008      	add	sp, #32
 800122a:	e8bd 81f0 	ldmia.w	sp!, {r4, r5, r6, r7, r8, pc}
 800122e:	bf00      	nop
 8001230:	20000148 	.word	0x20000148
 8001234:	20000004 	.word	0x20000004
 8001238:	431bde83 	.word	0x431bde83
 800123c:	40010800 	.word	0x40010800
 8001240:	40000400 	.word	0x40000400
 8001244:	e000e100 	.word	0xe000e100
 8001248:	40011000 	.word	0x40011000

0800124c <StopScan>:
 800124c:	b510      	push	{r4, lr}
 800124e:	f04f 0240 	mov.w	r2, #64	; 0x40
 8001252:	4b0d      	ldr	r3, [pc, #52]	; (8001288 <StopScan+0x3c>)
 8001254:	f8c3 2080 	str.w	r2, [r3, #128]	; 0x80
 8001258:	f04f 4080 	mov.w	r0, #1073741824	; 0x40000000
 800125c:	f04f 0100 	mov.w	r1, #0
 8001260:	f7ff fd02 	bl	8000c68 <TIM_Cmd>
 8001264:	4809      	ldr	r0, [pc, #36]	; (800128c <StopScan+0x40>)
 8001266:	f04f 0100 	mov.w	r1, #0
 800126a:	f7ff fcfd 	bl	8000c68 <TIM_Cmd>
 800126e:	4b08      	ldr	r3, [pc, #32]	; (8001290 <StopScan+0x44>)
 8001270:	685c      	ldr	r4, [r3, #4]
 8001272:	b11c      	cbz	r4, 800127c <StopScan+0x30>
 8001274:	6918      	ldr	r0, [r3, #16]
 8001276:	f7ff fddf 	bl	8000e38 <GetFrequencyInterval>
 800127a:	60a0      	str	r0, [r4, #8]
 800127c:	4b04      	ldr	r3, [pc, #16]	; (8001290 <StopScan+0x44>)
 800127e:	f04f 0200 	mov.w	r2, #0
 8001282:	605a      	str	r2, [r3, #4]
 8001284:	60da      	str	r2, [r3, #12]
 8001286:	bd10      	pop	{r4, pc}
 8001288:	e000e100 	.word	0xe000e100
 800128c:	40000400 	.word	0x40000400
 8001290:	20000148 	.word	0x20000148

08001294 <IsScanning>:
 8001294:	4b02      	ldr	r3, [pc, #8]	; (80012a0 <IsScanning+0xc>)
 8001296:	68d8      	ldr	r0, [r3, #12]
 8001298:	3800      	subs	r0, #0
 800129a:	bf18      	it	ne
 800129c:	2001      	movne	r0, #1
 800129e:	4770      	bx	lr
 80012a0:	20000148 	.word	0x20000148

080012a4 <EXTI0_IRQHandler>:
 80012a4:	b570      	push	{r4, r5, r6, lr}
 80012a6:	f04f 4080 	mov.w	r0, #1073741824	; 0x40000000
 80012aa:	f04f 0100 	mov.w	r1, #0
 80012ae:	f7ff fcdb 	bl	8000c68 <TIM_Cmd>
 80012b2:	4b29      	ldr	r3, [pc, #164]	; (8001358 <EXTI0_IRQHandler+0xb4>)
 80012b4:	685b      	ldr	r3, [r3, #4]
 80012b6:	2b00      	cmp	r3, #0
 80012b8:	d048      	beq.n	800134c <EXTI0_IRQHandler+0xa8>
 80012ba:	68da      	ldr	r2, [r3, #12]
 80012bc:	f04f 4180 	mov.w	r1, #1073741824	; 0x40000000
 80012c0:	8c8d      	ldrh	r5, [r1, #36]	; 0x24
 80012c2:	b2ad      	uxth	r5, r5
 80012c4:	f102 0004 	add.w	r0, r2, #4
 80012c8:	f853 4020 	ldr.w	r4, [r3, r0, lsl #2]
 80012cc:	f102 0101 	add.w	r1, r2, #1
 80012d0:	1966      	adds	r6, r4, r5
 80012d2:	f026 4600 	bic.w	r6, r6, #2147483648	; 0x80000000
 80012d6:	f004 4400 	and.w	r4, r4, #2147483648	; 0x80000000
 80012da:	ea46 0404 	orr.w	r4, r6, r4
 80012de:	f843 4020 	str.w	r4, [r3, r0, lsl #2]
 80012e2:	f102 0205 	add.w	r2, r2, #5
 80012e6:	f853 0022 	ldr.w	r0, [r3, r2, lsl #2]
 80012ea:	f000 4000 	and.w	r0, r0, #2147483648	; 0x80000000
 80012ee:	f843 0022 	str.w	r0, [r3, r2, lsl #2]
 80012f2:	4a1a      	ldr	r2, [pc, #104]	; (800135c <EXTI0_IRQHandler+0xb8>)
 80012f4:	6890      	ldr	r0, [r2, #8]
 80012f6:	f000 0001 	and.w	r0, r0, #1
 80012fa:	2800      	cmp	r0, #0
 80012fc:	bf14      	ite	ne
 80012fe:	f04f 4000 	movne.w	r0, #2147483648	; 0x80000000
 8001302:	2000      	moveq	r0, #0
 8001304:	f101 0204 	add.w	r2, r1, #4
 8001308:	f843 0022 	str.w	r0, [r3, r2, lsl #2]
 800130c:	60d9      	str	r1, [r3, #12]
 800130e:	f04f 4480 	mov.w	r4, #1073741824	; 0x40000000
 8001312:	f04f 0300 	mov.w	r3, #0
 8001316:	84a3      	strh	r3, [r4, #36]	; 0x24
 8001318:	4620      	mov	r0, r4
 800131a:	f04f 0101 	mov.w	r1, #1
 800131e:	f7ff fd5d 	bl	8000ddc <TIM_ClearITPendingBit>
 8001322:	4620      	mov	r0, r4
 8001324:	f04f 0101 	mov.w	r1, #1
 8001328:	f7ff fc9e 	bl	8000c68 <TIM_Cmd>
 800132c:	4b0a      	ldr	r3, [pc, #40]	; (8001358 <EXTI0_IRQHandler+0xb4>)
 800132e:	689a      	ldr	r2, [r3, #8]
 8001330:	18ad      	adds	r5, r5, r2
 8001332:	609d      	str	r5, [r3, #8]
 8001334:	689a      	ldr	r2, [r3, #8]
 8001336:	4b0a      	ldr	r3, [pc, #40]	; (8001360 <EXTI0_IRQHandler+0xbc>)
 8001338:	429a      	cmp	r2, r3
 800133a:	d805      	bhi.n	8001348 <EXTI0_IRQHandler+0xa4>
 800133c:	4b06      	ldr	r3, [pc, #24]	; (8001358 <EXTI0_IRQHandler+0xb4>)
 800133e:	685b      	ldr	r3, [r3, #4]
 8001340:	68db      	ldr	r3, [r3, #12]
 8001342:	f5b3 7ffe 	cmp.w	r3, #508	; 0x1fc
 8001346:	d301      	bcc.n	800134c <EXTI0_IRQHandler+0xa8>
 8001348:	f7ff ff80 	bl	800124c <StopScan>
 800134c:	f04f 0001 	mov.w	r0, #1
 8001350:	f000 fec0 	bl	80020d4 <EXTI_ClearITPendingBit>
 8001354:	bd70      	pop	{r4, r5, r6, pc}
 8001356:	bf00      	nop
 8001358:	20000148 	.word	0x20000148
 800135c:	40011000 	.word	0x40011000
 8001360:	004c4b40 	.word	0x004c4b40

08001364 <TIM2_IRQHandler>:
 8001364:	b538      	push	{r3, r4, r5, lr}
 8001366:	f04f 4080 	mov.w	r0, #1073741824	; 0x40000000
 800136a:	f04f 0101 	mov.w	r1, #1
 800136e:	f7ff fd35 	bl	8000ddc <TIM_ClearITPendingBit>
 8001372:	4b10      	ldr	r3, [pc, #64]	; (80013b4 <TIM2_IRQHandler+0x50>)
 8001374:	685b      	ldr	r3, [r3, #4]
 8001376:	b1e3      	cbz	r3, 80013b2 <TIM2_IRQHandler+0x4e>
 8001378:	68dc      	ldr	r4, [r3, #12]
 800137a:	f104 0104 	add.w	r1, r4, #4
 800137e:	f853 0021 	ldr.w	r0, [r3, r1, lsl #2]
 8001382:	f64f 72ff 	movw	r2, #65535	; 0xffff
 8001386:	1885      	adds	r5, r0, r2
 8001388:	f025 4500 	bic.w	r5, r5, #2147483648	; 0x80000000
 800138c:	f000 4000 	and.w	r0, r0, #2147483648	; 0x80000000
 8001390:	ea45 0000 	orr.w	r0, r5, r0
 8001394:	f843 0021 	str.w	r0, [r3, r1, lsl #2]
 8001398:	4b06      	ldr	r3, [pc, #24]	; (80013b4 <TIM2_IRQHandler+0x50>)
 800139a:	6899      	ldr	r1, [r3, #8]
 800139c:	188a      	adds	r2, r1, r2
 800139e:	609a      	str	r2, [r3, #8]
 80013a0:	689a      	ldr	r2, [r3, #8]
 80013a2:	4b05      	ldr	r3, [pc, #20]	; (80013b8 <TIM2_IRQHandler+0x54>)
 80013a4:	429a      	cmp	r2, r3
 80013a6:	d802      	bhi.n	80013ae <TIM2_IRQHandler+0x4a>
 80013a8:	f5b4 7ffe 	cmp.w	r4, #508	; 0x1fc
 80013ac:	d301      	bcc.n	80013b2 <TIM2_IRQHandler+0x4e>
 80013ae:	f7ff ff4d 	bl	800124c <StopScan>
 80013b2:	bd38      	pop	{r3, r4, r5, pc}
 80013b4:	20000148 	.word	0x20000148
 80013b8:	004c4b40 	.word	0x004c4b40

080013bc <TIM3_IRQHandler>:
 80013bc:	b510      	push	{r4, lr}
 80013be:	4c1c      	ldr	r4, [pc, #112]	; (8001430 <TIM3_IRQHandler+0x74>)
 80013c0:	4620      	mov	r0, r4
 80013c2:	f04f 0104 	mov.w	r1, #4
 80013c6:	f7ff fd09 	bl	8000ddc <TIM_ClearITPendingBit>
 80013ca:	4620      	mov	r0, r4
 80013cc:	f7ff fd02 	bl	8000dd4 <TIM_GetCapture2>
 80013d0:	4b18      	ldr	r3, [pc, #96]	; (8001434 <TIM3_IRQHandler+0x78>)
 80013d2:	8298      	strh	r0, [r3, #20]
 80013d4:	8a9b      	ldrh	r3, [r3, #20]
 80013d6:	b29b      	uxth	r3, r3
 80013d8:	b31b      	cbz	r3, 8001422 <TIM3_IRQHandler+0x66>
 80013da:	4620      	mov	r0, r4
 80013dc:	f7ff fcf6 	bl	8000dcc <TIM_GetCapture1>
 80013e0:	4b14      	ldr	r3, [pc, #80]	; (8001434 <TIM3_IRQHandler+0x78>)
 80013e2:	8a9a      	ldrh	r2, [r3, #20]
 80013e4:	b292      	uxth	r2, r2
 80013e6:	f04f 0164 	mov.w	r1, #100	; 0x64
 80013ea:	fb01 f100 	mul.w	r1, r1, r0
 80013ee:	fb91 f2f2 	sdiv	r2, r1, r2
 80013f2:	b292      	uxth	r2, r2
 80013f4:	82da      	strh	r2, [r3, #22]
 80013f6:	8a9a      	ldrh	r2, [r3, #20]
 80013f8:	b292      	uxth	r2, r2
 80013fa:	490f      	ldr	r1, [pc, #60]	; (8001438 <TIM3_IRQHandler+0x7c>)
 80013fc:	6809      	ldr	r1, [r1, #0]
 80013fe:	fbb1 f2f2 	udiv	r2, r1, r2
 8001402:	619a      	str	r2, [r3, #24]
 8001404:	699a      	ldr	r2, [r3, #24]
 8001406:	f247 1348 	movw	r3, #29000	; 0x7148
 800140a:	429a      	cmp	r2, r3
 800140c:	d90e      	bls.n	800142c <TIM3_IRQHandler+0x70>
 800140e:	4b09      	ldr	r3, [pc, #36]	; (8001434 <TIM3_IRQHandler+0x78>)
 8001410:	699a      	ldr	r2, [r3, #24]
 8001412:	f64e 4353 	movw	r3, #60499	; 0xec53
 8001416:	429a      	cmp	r2, r3
 8001418:	d808      	bhi.n	800142c <TIM3_IRQHandler+0x70>
 800141a:	4b06      	ldr	r3, [pc, #24]	; (8001434 <TIM3_IRQHandler+0x78>)
 800141c:	699a      	ldr	r2, [r3, #24]
 800141e:	611a      	str	r2, [r3, #16]
 8001420:	bd10      	pop	{r4, pc}
 8001422:	4b04      	ldr	r3, [pc, #16]	; (8001434 <TIM3_IRQHandler+0x78>)
 8001424:	f04f 0200 	mov.w	r2, #0
 8001428:	82da      	strh	r2, [r3, #22]
 800142a:	619a      	str	r2, [r3, #24]
 800142c:	bd10      	pop	{r4, pc}
 800142e:	bf00      	nop
 8001430:	40000400 	.word	0x40000400
 8001434:	20000148 	.word	0x20000148
 8001438:	20000004 	.word	0x20000004

0800143c <DebugPrint>:
 800143c:	b570      	push	{r4, r5, r6, lr}
 800143e:	4605      	mov	r5, r0
 8001440:	b918      	cbnz	r0, 800144a <DebugPrint+0xe>
 8001442:	481b      	ldr	r0, [pc, #108]	; (80014b0 <DebugPrint+0x74>)
 8001444:	f000 fd7a 	bl	8001f3c <printf>
 8001448:	bd70      	pop	{r4, r5, r6, pc}
 800144a:	481a      	ldr	r0, [pc, #104]	; (80014b4 <DebugPrint+0x78>)
 800144c:	6829      	ldr	r1, [r5, #0]
 800144e:	f000 fd75 	bl	8001f3c <printf>
 8001452:	4819      	ldr	r0, [pc, #100]	; (80014b8 <DebugPrint+0x7c>)
 8001454:	68a9      	ldr	r1, [r5, #8]
 8001456:	f000 fd71 	bl	8001f3c <printf>
 800145a:	6869      	ldr	r1, [r5, #4]
 800145c:	4817      	ldr	r0, [pc, #92]	; (80014bc <DebugPrint+0x80>)
 800145e:	b289      	uxth	r1, r1
 8001460:	f000 fd6c 	bl	8001f3c <printf>
 8001464:	4816      	ldr	r0, [pc, #88]	; (80014c0 <DebugPrint+0x84>)
 8001466:	68e9      	ldr	r1, [r5, #12]
 8001468:	f000 fd68 	bl	8001f3c <printf>
 800146c:	68eb      	ldr	r3, [r5, #12]
 800146e:	f5b3 7ffe 	cmp.w	r3, #508	; 0x1fc
 8001472:	d801      	bhi.n	8001478 <DebugPrint+0x3c>
 8001474:	b923      	cbnz	r3, 8001480 <DebugPrint+0x44>
 8001476:	e017      	b.n	80014a8 <DebugPrint+0x6c>
 8001478:	4812      	ldr	r0, [pc, #72]	; (80014c4 <DebugPrint+0x88>)
 800147a:	f000 fd5f 	bl	8001f3c <printf>
 800147e:	bd70      	pop	{r4, r5, r6, pc}
 8001480:	f04f 0400 	mov.w	r4, #0
 8001484:	4e10      	ldr	r6, [pc, #64]	; (80014c8 <DebugPrint+0x8c>)
 8001486:	f104 0304 	add.w	r3, r4, #4
 800148a:	f855 3023 	ldr.w	r3, [r5, r3, lsl #2]
 800148e:	4630      	mov	r0, r6
 8001490:	4621      	mov	r1, r4
 8001492:	ea4f 72d3 	mov.w	r2, r3, lsr #31
 8001496:	f023 4300 	bic.w	r3, r3, #2147483648	; 0x80000000
 800149a:	f000 fd4f 	bl	8001f3c <printf>
 800149e:	f104 0401 	add.w	r4, r4, #1
 80014a2:	68eb      	ldr	r3, [r5, #12]
 80014a4:	42a3      	cmp	r3, r4
 80014a6:	d8ee      	bhi.n	8001486 <DebugPrint+0x4a>
 80014a8:	4808      	ldr	r0, [pc, #32]	; (80014cc <DebugPrint+0x90>)
 80014aa:	f000 fd47 	bl	8001f3c <printf>
 80014ae:	bd70      	pop	{r4, r5, r6, pc}
 80014b0:	080032b8 	.word	0x080032b8
 80014b4:	080032d4 	.word	0x080032d4
 80014b8:	080032e4 	.word	0x080032e4
 80014bc:	080032fc 	.word	0x080032fc
 80014c0:	0800330c 	.word	0x0800330c
 80014c4:	08003318 	.word	0x08003318
 80014c8:	08003338 	.word	0x08003338
 80014cc:	08003354 	.word	0x08003354

080014d0 <SystemInit>:
 80014d0:	b082      	sub	sp, #8
 80014d2:	4b35      	ldr	r3, [pc, #212]	; (80015a8 <SystemInit+0xd8>)
 80014d4:	681a      	ldr	r2, [r3, #0]
 80014d6:	f042 0201 	orr.w	r2, r2, #1
 80014da:	601a      	str	r2, [r3, #0]
 80014dc:	6859      	ldr	r1, [r3, #4]
 80014de:	4a33      	ldr	r2, [pc, #204]	; (80015ac <SystemInit+0xdc>)
 80014e0:	ea01 0202 	and.w	r2, r1, r2
 80014e4:	605a      	str	r2, [r3, #4]
 80014e6:	681a      	ldr	r2, [r3, #0]
 80014e8:	f022 7284 	bic.w	r2, r2, #17301504	; 0x1080000
 80014ec:	f422 3280 	bic.w	r2, r2, #65536	; 0x10000
 80014f0:	601a      	str	r2, [r3, #0]
 80014f2:	681a      	ldr	r2, [r3, #0]
 80014f4:	f422 2280 	bic.w	r2, r2, #262144	; 0x40000
 80014f8:	601a      	str	r2, [r3, #0]
 80014fa:	685a      	ldr	r2, [r3, #4]
 80014fc:	f422 02fe 	bic.w	r2, r2, #8323072	; 0x7f0000
 8001500:	605a      	str	r2, [r3, #4]
 8001502:	f44f 021f 	mov.w	r2, #10420224	; 0x9f0000
 8001506:	609a      	str	r2, [r3, #8]
 8001508:	f04f 0200 	mov.w	r2, #0
 800150c:	62da      	str	r2, [r3, #44]	; 0x2c
 800150e:	9201      	str	r2, [sp, #4]
 8001510:	9200      	str	r2, [sp, #0]
 8001512:	681a      	ldr	r2, [r3, #0]
 8001514:	f442 3280 	orr.w	r2, r2, #65536	; 0x10000
 8001518:	601a      	str	r2, [r3, #0]
 800151a:	461a      	mov	r2, r3
 800151c:	6813      	ldr	r3, [r2, #0]
 800151e:	f403 3300 	and.w	r3, r3, #131072	; 0x20000
 8001522:	9300      	str	r3, [sp, #0]
 8001524:	9b01      	ldr	r3, [sp, #4]
 8001526:	f103 0301 	add.w	r3, r3, #1
 800152a:	9301      	str	r3, [sp, #4]
 800152c:	9b00      	ldr	r3, [sp, #0]
 800152e:	b91b      	cbnz	r3, 8001538 <SystemInit+0x68>
 8001530:	9b01      	ldr	r3, [sp, #4]
 8001532:	f5b3 6fa0 	cmp.w	r3, #1280	; 0x500
 8001536:	d1f1      	bne.n	800151c <SystemInit+0x4c>
 8001538:	4b1b      	ldr	r3, [pc, #108]	; (80015a8 <SystemInit+0xd8>)
 800153a:	681b      	ldr	r3, [r3, #0]
 800153c:	f413 3f00 	tst.w	r3, #131072	; 0x20000
 8001540:	bf14      	ite	ne
 8001542:	2301      	movne	r3, #1
 8001544:	2300      	moveq	r3, #0
 8001546:	9300      	str	r3, [sp, #0]
 8001548:	9b00      	ldr	r3, [sp, #0]
 800154a:	2b01      	cmp	r3, #1
 800154c:	d126      	bne.n	800159c <SystemInit+0xcc>
 800154e:	4b16      	ldr	r3, [pc, #88]	; (80015a8 <SystemInit+0xd8>)
 8001550:	685a      	ldr	r2, [r3, #4]
 8001552:	605a      	str	r2, [r3, #4]
 8001554:	685a      	ldr	r2, [r3, #4]
 8001556:	605a      	str	r2, [r3, #4]
 8001558:	685a      	ldr	r2, [r3, #4]
 800155a:	605a      	str	r2, [r3, #4]
 800155c:	685a      	ldr	r2, [r3, #4]
 800155e:	f422 127c 	bic.w	r2, r2, #4128768	; 0x3f0000
 8001562:	605a      	str	r2, [r3, #4]
 8001564:	685a      	ldr	r2, [r3, #4]
 8001566:	f442 1298 	orr.w	r2, r2, #1245184	; 0x130000
 800156a:	605a      	str	r2, [r3, #4]
 800156c:	681a      	ldr	r2, [r3, #0]
 800156e:	f042 7280 	orr.w	r2, r2, #16777216	; 0x1000000
 8001572:	601a      	str	r2, [r3, #0]
 8001574:	461a      	mov	r2, r3
 8001576:	6813      	ldr	r3, [r2, #0]
 8001578:	f013 7f00 	tst.w	r3, #33554432	; 0x2000000
 800157c:	d0fb      	beq.n	8001576 <SystemInit+0xa6>
 800157e:	4b0a      	ldr	r3, [pc, #40]	; (80015a8 <SystemInit+0xd8>)
 8001580:	685a      	ldr	r2, [r3, #4]
 8001582:	f022 0203 	bic.w	r2, r2, #3
 8001586:	605a      	str	r2, [r3, #4]
 8001588:	685a      	ldr	r2, [r3, #4]
 800158a:	f042 0202 	orr.w	r2, r2, #2
 800158e:	605a      	str	r2, [r3, #4]
 8001590:	461a      	mov	r2, r3
 8001592:	6853      	ldr	r3, [r2, #4]
 8001594:	f003 030c 	and.w	r3, r3, #12
 8001598:	2b08      	cmp	r3, #8
 800159a:	d1fa      	bne.n	8001592 <SystemInit+0xc2>
 800159c:	f04f 6200 	mov.w	r2, #134217728	; 0x8000000
 80015a0:	4b03      	ldr	r3, [pc, #12]	; (80015b0 <SystemInit+0xe0>)
 80015a2:	609a      	str	r2, [r3, #8]
 80015a4:	b002      	add	sp, #8
 80015a6:	4770      	bx	lr
 80015a8:	40021000 	.word	0x40021000
 80015ac:	f8ff0000 	.word	0xf8ff0000
 80015b0:	e000ed00 	.word	0xe000ed00

080015b4 <GPIO_Init>:
 80015b4:	e92d 03f0 	stmdb	sp!, {r4, r5, r6, r7, r8, r9}
 80015b8:	78cb      	ldrb	r3, [r1, #3]
 80015ba:	f003 050f 	and.w	r5, r3, #15
 80015be:	f013 0f10 	tst.w	r3, #16
 80015c2:	bf1c      	itt	ne
 80015c4:	788b      	ldrbne	r3, [r1, #2]
 80015c6:	431d      	orrne	r5, r3
 80015c8:	780b      	ldrb	r3, [r1, #0]
 80015ca:	b333      	cbz	r3, 800161a <GPIO_Init+0x66>
 80015cc:	f8d0 c000 	ldr.w	ip, [r0]
 80015d0:	f04f 0300 	mov.w	r3, #0
 80015d4:	f04f 0601 	mov.w	r6, #1
 80015d8:	f04f 080f 	mov.w	r8, #15
 80015dc:	fa06 f203 	lsl.w	r2, r6, r3
 80015e0:	880c      	ldrh	r4, [r1, #0]
 80015e2:	ea02 0404 	and.w	r4, r2, r4
 80015e6:	4294      	cmp	r4, r2
 80015e8:	d111      	bne.n	800160e <GPIO_Init+0x5a>
 80015ea:	ea4f 0783 	mov.w	r7, r3, lsl #2
 80015ee:	fa08 f907 	lsl.w	r9, r8, r7
 80015f2:	ea2c 0c09 	bic.w	ip, ip, r9
 80015f6:	fa05 f707 	lsl.w	r7, r5, r7
 80015fa:	ea4c 0c07 	orr.w	ip, ip, r7
 80015fe:	78cf      	ldrb	r7, [r1, #3]
 8001600:	2f28      	cmp	r7, #40	; 0x28
 8001602:	d101      	bne.n	8001608 <GPIO_Init+0x54>
 8001604:	6144      	str	r4, [r0, #20]
 8001606:	e002      	b.n	800160e <GPIO_Init+0x5a>
 8001608:	2f48      	cmp	r7, #72	; 0x48
 800160a:	bf08      	it	eq
 800160c:	6102      	streq	r2, [r0, #16]
 800160e:	f103 0301 	add.w	r3, r3, #1
 8001612:	2b08      	cmp	r3, #8
 8001614:	d1e2      	bne.n	80015dc <GPIO_Init+0x28>
 8001616:	f8c0 c000 	str.w	ip, [r0]
 800161a:	880b      	ldrh	r3, [r1, #0]
 800161c:	2bff      	cmp	r3, #255	; 0xff
 800161e:	d928      	bls.n	8001672 <GPIO_Init+0xbe>
 8001620:	f8d0 c004 	ldr.w	ip, [r0, #4]
 8001624:	f04f 0300 	mov.w	r3, #0
 8001628:	f04f 0601 	mov.w	r6, #1
 800162c:	f04f 080f 	mov.w	r8, #15
 8001630:	f103 0208 	add.w	r2, r3, #8
 8001634:	fa06 f202 	lsl.w	r2, r6, r2
 8001638:	880c      	ldrh	r4, [r1, #0]
 800163a:	ea02 0404 	and.w	r4, r2, r4
 800163e:	4294      	cmp	r4, r2
 8001640:	d111      	bne.n	8001666 <GPIO_Init+0xb2>
 8001642:	ea4f 0783 	mov.w	r7, r3, lsl #2
 8001646:	fa08 f907 	lsl.w	r9, r8, r7
 800164a:	ea2c 0c09 	bic.w	ip, ip, r9
 800164e:	fa05 f707 	lsl.w	r7, r5, r7
 8001652:	ea4c 0c07 	orr.w	ip, ip, r7
 8001656:	78cf      	ldrb	r7, [r1, #3]
 8001658:	2f28      	cmp	r7, #40	; 0x28
 800165a:	bf08      	it	eq
 800165c:	6144      	streq	r4, [r0, #20]
 800165e:	78cc      	ldrb	r4, [r1, #3]
 8001660:	2c48      	cmp	r4, #72	; 0x48
 8001662:	bf08      	it	eq
 8001664:	6102      	streq	r2, [r0, #16]
 8001666:	f103 0301 	add.w	r3, r3, #1
 800166a:	2b08      	cmp	r3, #8
 800166c:	d1e0      	bne.n	8001630 <GPIO_Init+0x7c>
 800166e:	f8c0 c004 	str.w	ip, [r0, #4]
 8001672:	e8bd 03f0 	ldmia.w	sp!, {r4, r5, r6, r7, r8, r9}
 8001676:	4770      	bx	lr

08001678 <GPIO_StructInit>:
 8001678:	f04f 33ff 	mov.w	r3, #4294967295
 800167c:	8003      	strh	r3, [r0, #0]
 800167e:	f04f 0302 	mov.w	r3, #2
 8001682:	7083      	strb	r3, [r0, #2]
 8001684:	f04f 0304 	mov.w	r3, #4
 8001688:	70c3      	strb	r3, [r0, #3]
 800168a:	4770      	bx	lr

0800168c <GPIO_EXTILineConfig>:
 800168c:	b430      	push	{r4, r5}
 800168e:	f001 0203 	and.w	r2, r1, #3
 8001692:	ea4f 0282 	mov.w	r2, r2, lsl #2
 8001696:	ea4f 0191 	mov.w	r1, r1, lsr #2
 800169a:	4b0b      	ldr	r3, [pc, #44]	; (80016c8 <GPIO_EXTILineConfig+0x3c>)
 800169c:	f101 0102 	add.w	r1, r1, #2
 80016a0:	f853 5021 	ldr.w	r5, [r3, r1, lsl #2]
 80016a4:	f04f 040f 	mov.w	r4, #15
 80016a8:	fa04 f402 	lsl.w	r4, r4, r2
 80016ac:	ea25 0404 	bic.w	r4, r5, r4
 80016b0:	f843 4021 	str.w	r4, [r3, r1, lsl #2]
 80016b4:	f853 4021 	ldr.w	r4, [r3, r1, lsl #2]
 80016b8:	fa00 f202 	lsl.w	r2, r0, r2
 80016bc:	ea42 0404 	orr.w	r4, r2, r4
 80016c0:	f843 4021 	str.w	r4, [r3, r1, lsl #2]
 80016c4:	bc30      	pop	{r4, r5}
 80016c6:	4770      	bx	lr
 80016c8:	40010000 	.word	0x40010000

080016cc <main>:
 80016cc:	b530      	push	{r4, r5, lr}
 80016ce:	b087      	sub	sp, #28
 80016d0:	f44f 4080 	mov.w	r0, #16384	; 0x4000
 80016d4:	f04f 0101 	mov.w	r1, #1
 80016d8:	f000 fc96 	bl	8002008 <RCC_APB2PeriphClockCmd>
 80016dc:	f04f 0001 	mov.w	r0, #1
 80016e0:	4601      	mov	r1, r0
 80016e2:	f000 fc91 	bl	8002008 <RCC_APB2PeriphClockCmd>
 80016e6:	f04f 0004 	mov.w	r0, #4
 80016ea:	f04f 0101 	mov.w	r1, #1
 80016ee:	f000 fc8b 	bl	8002008 <RCC_APB2PeriphClockCmd>
 80016f2:	a805      	add	r0, sp, #20
 80016f4:	f7ff ffc0 	bl	8001678 <GPIO_StructInit>
 80016f8:	f44f 6280 	mov.w	r2, #1024	; 0x400
 80016fc:	f8ad 2014 	strh.w	r2, [sp, #20]
 8001700:	f04f 0304 	mov.w	r3, #4
 8001704:	f88d 3017 	strb.w	r3, [sp, #23]
 8001708:	f04f 0403 	mov.w	r4, #3
 800170c:	f88d 4016 	strb.w	r4, [sp, #22]
 8001710:	4825      	ldr	r0, [pc, #148]	; (80017a8 <main+0xdc>)
 8001712:	a905      	add	r1, sp, #20
 8001714:	f7ff ff4e 	bl	80015b4 <GPIO_Init>
 8001718:	a805      	add	r0, sp, #20
 800171a:	f7ff ffad 	bl	8001678 <GPIO_StructInit>
 800171e:	f44f 7300 	mov.w	r3, #512	; 0x200
 8001722:	f8ad 3014 	strh.w	r3, [sp, #20]
 8001726:	f04f 0318 	mov.w	r3, #24
 800172a:	f88d 3017 	strb.w	r3, [sp, #23]
 800172e:	f88d 4016 	strb.w	r4, [sp, #22]
 8001732:	481d      	ldr	r0, [pc, #116]	; (80017a8 <main+0xdc>)
 8001734:	a905      	add	r1, sp, #20
 8001736:	f7ff ff3d 	bl	80015b4 <GPIO_Init>
 800173a:	f44f 33e1 	mov.w	r3, #115200	; 0x1c200
 800173e:	9301      	str	r3, [sp, #4]
 8001740:	f04f 0300 	mov.w	r3, #0
 8001744:	f8ad 3010 	strh.w	r3, [sp, #16]
 8001748:	f04f 020c 	mov.w	r2, #12
 800174c:	f8ad 200e 	strh.w	r2, [sp, #14]
 8001750:	f8ad 300a 	strh.w	r3, [sp, #10]
 8001754:	f04f 0208 	mov.w	r2, #8
 8001758:	f8ad 2008 	strh.w	r2, [sp, #8]
 800175c:	f8ad 300c 	strh.w	r3, [sp, #12]
 8001760:	4812      	ldr	r0, [pc, #72]	; (80017ac <main+0xe0>)
 8001762:	a901      	add	r1, sp, #4
 8001764:	f000 fcbc 	bl	80020e0 <USART_Init>
 8001768:	4810      	ldr	r0, [pc, #64]	; (80017ac <main+0xe0>)
 800176a:	f04f 0101 	mov.w	r1, #1
 800176e:	f000 fd2d 	bl	80021cc <USART_Cmd>
 8001772:	4c0f      	ldr	r4, [pc, #60]	; (80017b0 <main+0xe4>)
 8001774:	6820      	ldr	r0, [r4, #0]
 8001776:	490f      	ldr	r1, [pc, #60]	; (80017b4 <main+0xe8>)
 8001778:	f7fe fe82 	bl	8000480 <microrl_init>
 800177c:	6820      	ldr	r0, [r4, #0]
 800177e:	490e      	ldr	r1, [pc, #56]	; (80017b8 <main+0xec>)
 8001780:	f7fe feac 	bl	80004dc <microrl_set_execute_callback>
 8001784:	6820      	ldr	r0, [r4, #0]
 8001786:	490d      	ldr	r1, [pc, #52]	; (80017bc <main+0xf0>)
 8001788:	f7fe fea4 	bl	80004d4 <microrl_set_complite_callback>
 800178c:	6820      	ldr	r0, [r4, #0]
 800178e:	490c      	ldr	r1, [pc, #48]	; (80017c0 <main+0xf4>)
 8001790:	f7fe fea8 	bl	80004e4 <microrl_set_sigint_callback>
 8001794:	4625      	mov	r5, r4
 8001796:	682c      	ldr	r4, [r5, #0]
 8001798:	f000 f820 	bl	80017dc <get_char>
 800179c:	4601      	mov	r1, r0
 800179e:	4620      	mov	r0, r4
 80017a0:	f7fe fea4 	bl	80004ec <microrl_insert_char>
 80017a4:	e7f7      	b.n	8001796 <main+0xca>
 80017a6:	bf00      	nop
 80017a8:	40010800 	.word	0x40010800
 80017ac:	40013800 	.word	0x40013800
 80017b0:	20000018 	.word	0x20000018
 80017b4:	080017c5 	.word	0x080017c5
 80017b8:	08001841 	.word	0x08001841
 80017bc:	08001a2d 	.word	0x08001a2d
 80017c0:	08001a99 	.word	0x08001a99

080017c4 <print>:
 80017c4:	b510      	push	{r4, lr}
 80017c6:	4604      	mov	r4, r0
 80017c8:	7800      	ldrb	r0, [r0, #0]
 80017ca:	b128      	cbz	r0, 80017d8 <print+0x14>
 80017cc:	f000 f96c 	bl	8001aa8 <PrintChar>
 80017d0:	f814 0f01 	ldrb.w	r0, [r4, #1]!
 80017d4:	2800      	cmp	r0, #0
 80017d6:	d1f9      	bne.n	80017cc <print+0x8>
 80017d8:	bd10      	pop	{r4, pc}
 80017da:	bf00      	nop

080017dc <get_char>:
 80017dc:	b538      	push	{r3, r4, r5, lr}
 80017de:	4d07      	ldr	r5, [pc, #28]	; (80017fc <get_char+0x20>)
 80017e0:	f04f 0420 	mov.w	r4, #32
 80017e4:	4628      	mov	r0, r5
 80017e6:	4621      	mov	r1, r4
 80017e8:	f000 fd0c 	bl	8002204 <USART_GetFlagStatus>
 80017ec:	2800      	cmp	r0, #0
 80017ee:	d0f9      	beq.n	80017e4 <get_char+0x8>
 80017f0:	4802      	ldr	r0, [pc, #8]	; (80017fc <get_char+0x20>)
 80017f2:	f000 fd01 	bl	80021f8 <USART_ReceiveData>
 80017f6:	b2c0      	uxtb	r0, r0
 80017f8:	bd38      	pop	{r3, r4, r5, pc}
 80017fa:	bf00      	nop
 80017fc:	40013800 	.word	0x40013800

08001800 <print_help>:
 8001800:	b508      	push	{r3, lr}
 8001802:	4809      	ldr	r0, [pc, #36]	; (8001828 <print_help+0x28>)
 8001804:	f7ff ffde 	bl	80017c4 <print>
 8001808:	4808      	ldr	r0, [pc, #32]	; (800182c <print_help+0x2c>)
 800180a:	f7ff ffdb 	bl	80017c4 <print>
 800180e:	4808      	ldr	r0, [pc, #32]	; (8001830 <print_help+0x30>)
 8001810:	f7ff ffd8 	bl	80017c4 <print>
 8001814:	4807      	ldr	r0, [pc, #28]	; (8001834 <print_help+0x34>)
 8001816:	f7ff ffd5 	bl	80017c4 <print>
 800181a:	4807      	ldr	r0, [pc, #28]	; (8001838 <print_help+0x38>)
 800181c:	f7ff ffd2 	bl	80017c4 <print>
 8001820:	4806      	ldr	r0, [pc, #24]	; (800183c <print_help+0x3c>)
 8001822:	f7ff ffcf 	bl	80017c4 <print>
 8001826:	bd08      	pop	{r3, pc}
 8001828:	0800335c 	.word	0x0800335c
 800182c:	08003384 	.word	0x08003384
 8001830:	080033cc 	.word	0x080033cc
 8001834:	08003408 	.word	0x08003408
 8001838:	08003430 	.word	0x08003430
 800183c:	0800345c 	.word	0x0800345c

08001840 <execute>:
 8001840:	e92d 4ff8 	stmdb	sp!, {r3, r4, r5, r6, r7, r8, r9, sl, fp, lr}
 8001844:	468b      	mov	fp, r1
 8001846:	1e07      	subs	r7, r0, #0
 8001848:	f340 80c0 	ble.w	80019cc <execute+0x18c>
 800184c:	460e      	mov	r6, r1
 800184e:	f04f 0500 	mov.w	r5, #0
 8001852:	f8df 81cc 	ldr.w	r8, [pc, #460]	; 8001a20 <execute+0x1e0>
 8001856:	f8df 91cc 	ldr.w	r9, [pc, #460]	; 8001a24 <execute+0x1e4>
 800185a:	f8df a1cc 	ldr.w	sl, [pc, #460]	; 8001a28 <execute+0x1e8>
 800185e:	f856 4b04 	ldr.w	r4, [r6], #4
 8001862:	4620      	mov	r0, r4
 8001864:	4641      	mov	r1, r8
 8001866:	f000 fe37 	bl	80024d8 <strcmp>
 800186a:	b988      	cbnz	r0, 8001890 <execute+0x50>
 800186c:	4859      	ldr	r0, [pc, #356]	; (80019d4 <execute+0x194>)
 800186e:	f7ff ffa9 	bl	80017c4 <print>
 8001872:	4859      	ldr	r0, [pc, #356]	; (80019d8 <execute+0x198>)
 8001874:	f7ff ffa6 	bl	80017c4 <print>
 8001878:	4858      	ldr	r0, [pc, #352]	; (80019dc <execute+0x19c>)
 800187a:	f7ff ffa3 	bl	80017c4 <print>
 800187e:	4858      	ldr	r0, [pc, #352]	; (80019e0 <execute+0x1a0>)
 8001880:	f7ff ffa0 	bl	80017c4 <print>
 8001884:	4857      	ldr	r0, [pc, #348]	; (80019e4 <execute+0x1a4>)
 8001886:	f7ff ff9d 	bl	80017c4 <print>
 800188a:	f7ff ffb9 	bl	8001800 <print_help>
 800188e:	e094      	b.n	80019ba <execute+0x17a>
 8001890:	4620      	mov	r0, r4
 8001892:	4649      	mov	r1, r9
 8001894:	f000 fe20 	bl	80024d8 <strcmp>
 8001898:	b930      	cbnz	r0, 80018a8 <execute+0x68>
 800189a:	4853      	ldr	r0, [pc, #332]	; (80019e8 <execute+0x1a8>)
 800189c:	f7ff ff92 	bl	80017c4 <print>
 80018a0:	4852      	ldr	r0, [pc, #328]	; (80019ec <execute+0x1ac>)
 80018a2:	f7ff ff8f 	bl	80017c4 <print>
 80018a6:	e088      	b.n	80019ba <execute+0x17a>
 80018a8:	4620      	mov	r0, r4
 80018aa:	4651      	mov	r1, sl
 80018ac:	f000 fe14 	bl	80024d8 <strcmp>
 80018b0:	2800      	cmp	r0, #0
 80018b2:	d12c      	bne.n	800190e <execute+0xce>
 80018b4:	f105 0501 	add.w	r5, r5, #1
 80018b8:	42af      	cmp	r7, r5
 80018ba:	dd21      	ble.n	8001900 <execute+0xc0>
 80018bc:	f85b 0025 	ldr.w	r0, [fp, r5, lsl #2]
 80018c0:	f000 fca6 	bl	8002210 <atoi>
 80018c4:	2801      	cmp	r0, #1
 80018c6:	d906      	bls.n	80018d6 <execute+0x96>
 80018c8:	4849      	ldr	r0, [pc, #292]	; (80019f0 <execute+0x1b0>)
 80018ca:	f7ff ff7b 	bl	80017c4 <print>
 80018ce:	f04f 30ff 	mov.w	r0, #4294967295
 80018d2:	e8bd 8ff8 	ldmia.w	sp!, {r3, r4, r5, r6, r7, r8, r9, sl, fp, pc}
 80018d6:	ea4f 20c0 	mov.w	r0, r0, lsl #11
 80018da:	4c46      	ldr	r4, [pc, #280]	; (80019f4 <execute+0x1b4>)
 80018dc:	1824      	adds	r4, r4, r0
 80018de:	4620      	mov	r0, r4
 80018e0:	f7ff fb96 	bl	8001010 <Scan>
 80018e4:	4844      	ldr	r0, [pc, #272]	; (80019f8 <execute+0x1b8>)
 80018e6:	f7ff ff6d 	bl	80017c4 <print>
 80018ea:	f7ff fcd3 	bl	8001294 <IsScanning>
 80018ee:	2800      	cmp	r0, #0
 80018f0:	d1fb      	bne.n	80018ea <execute+0xaa>
 80018f2:	4620      	mov	r0, r4
 80018f4:	f7ff fda2 	bl	800143c <DebugPrint>
 80018f8:	f04f 0000 	mov.w	r0, #0
 80018fc:	e8bd 8ff8 	ldmia.w	sp!, {r3, r4, r5, r6, r7, r8, r9, sl, fp, pc}
 8001900:	483e      	ldr	r0, [pc, #248]	; (80019fc <execute+0x1bc>)
 8001902:	f7ff ff5f 	bl	80017c4 <print>
 8001906:	f04f 30ff 	mov.w	r0, #4294967295
 800190a:	e8bd 8ff8 	ldmia.w	sp!, {r3, r4, r5, r6, r7, r8, r9, sl, fp, pc}
 800190e:	4620      	mov	r0, r4
 8001910:	493b      	ldr	r1, [pc, #236]	; (8001a00 <execute+0x1c0>)
 8001912:	f000 fde1 	bl	80024d8 <strcmp>
 8001916:	b9e0      	cbnz	r0, 8001952 <execute+0x112>
 8001918:	f105 0501 	add.w	r5, r5, #1
 800191c:	42af      	cmp	r7, r5
 800191e:	dd0c      	ble.n	800193a <execute+0xfa>
 8001920:	f85b 0025 	ldr.w	r0, [fp, r5, lsl #2]
 8001924:	f000 fc74 	bl	8002210 <atoi>
 8001928:	2801      	cmp	r0, #1
 800192a:	d908      	bls.n	800193e <execute+0xfe>
 800192c:	4835      	ldr	r0, [pc, #212]	; (8001a04 <execute+0x1c4>)
 800192e:	f7ff ff49 	bl	80017c4 <print>
 8001932:	f04f 30ff 	mov.w	r0, #4294967295
 8001936:	e8bd 8ff8 	ldmia.w	sp!, {r3, r4, r5, r6, r7, r8, r9, sl, fp, pc}
 800193a:	f04f 0000 	mov.w	r0, #0
 800193e:	ea4f 20c0 	mov.w	r0, r0, lsl #11
 8001942:	4b2c      	ldr	r3, [pc, #176]	; (80019f4 <execute+0x1b4>)
 8001944:	1818      	adds	r0, r3, r0
 8001946:	f7ff fd79 	bl	800143c <DebugPrint>
 800194a:	f04f 0000 	mov.w	r0, #0
 800194e:	e8bd 8ff8 	ldmia.w	sp!, {r3, r4, r5, r6, r7, r8, r9, sl, fp, pc}
 8001952:	4620      	mov	r0, r4
 8001954:	492c      	ldr	r1, [pc, #176]	; (8001a08 <execute+0x1c8>)
 8001956:	f000 fdbf 	bl	80024d8 <strcmp>
 800195a:	bb20      	cbnz	r0, 80019a6 <execute+0x166>
 800195c:	f105 0501 	add.w	r5, r5, #1
 8001960:	42af      	cmp	r7, r5
 8001962:	dd19      	ble.n	8001998 <execute+0x158>
 8001964:	f85b 0025 	ldr.w	r0, [fp, r5, lsl #2]
 8001968:	f000 fc52 	bl	8002210 <atoi>
 800196c:	f7ff fa64 	bl	8000e38 <GetFrequencyInterval>
 8001970:	4604      	mov	r4, r0
 8001972:	b930      	cbnz	r0, 8001982 <execute+0x142>
 8001974:	4825      	ldr	r0, [pc, #148]	; (8001a0c <execute+0x1cc>)
 8001976:	f7ff ff25 	bl	80017c4 <print>
 800197a:	f04f 30ff 	mov.w	r0, #4294967295
 800197e:	e8bd 8ff8 	ldmia.w	sp!, {r3, r4, r5, r6, r7, r8, r9, sl, fp, pc}
 8001982:	4823      	ldr	r0, [pc, #140]	; (8001a10 <execute+0x1d0>)
 8001984:	4621      	mov	r1, r4
 8001986:	f000 fad9 	bl	8001f3c <printf>
 800198a:	4620      	mov	r0, r4
 800198c:	f7ff fa92 	bl	8000eb4 <SetCarrierFrequency>
 8001990:	f04f 0000 	mov.w	r0, #0
 8001994:	e8bd 8ff8 	ldmia.w	sp!, {r3, r4, r5, r6, r7, r8, r9, sl, fp, pc}
 8001998:	481e      	ldr	r0, [pc, #120]	; (8001a14 <execute+0x1d4>)
 800199a:	f7ff ff13 	bl	80017c4 <print>
 800199e:	f04f 0001 	mov.w	r0, #1
 80019a2:	e8bd 8ff8 	ldmia.w	sp!, {r3, r4, r5, r6, r7, r8, r9, sl, fp, pc}
 80019a6:	481c      	ldr	r0, [pc, #112]	; (8001a18 <execute+0x1d8>)
 80019a8:	f7ff ff0c 	bl	80017c4 <print>
 80019ac:	f856 0c04 	ldr.w	r0, [r6, #-4]
 80019b0:	f7ff ff08 	bl	80017c4 <print>
 80019b4:	4819      	ldr	r0, [pc, #100]	; (8001a1c <execute+0x1dc>)
 80019b6:	f7ff ff05 	bl	80017c4 <print>
 80019ba:	f105 0501 	add.w	r5, r5, #1
 80019be:	42bd      	cmp	r5, r7
 80019c0:	f47f af4d 	bne.w	800185e <execute+0x1e>
 80019c4:	f04f 0000 	mov.w	r0, #0
 80019c8:	e8bd 8ff8 	ldmia.w	sp!, {r3, r4, r5, r6, r7, r8, r9, sl, fp, pc}
 80019cc:	f04f 0000 	mov.w	r0, #0
 80019d0:	e8bd 8ff8 	ldmia.w	sp!, {r3, r4, r5, r6, r7, r8, r9, sl, fp, pc}
 80019d4:	08003480 	.word	0x08003480
 80019d8:	0800348c 	.word	0x0800348c
 80019dc:	08003490 	.word	0x08003490
 80019e0:	080034a4 	.word	0x080034a4
 80019e4:	080034e4 	.word	0x080034e4
 80019e8:	080034b0 	.word	0x080034b0
 80019ec:	080034b8 	.word	0x080034b8
 80019f0:	080034c4 	.word	0x080034c4
 80019f4:	20000164 	.word	0x20000164
 80019f8:	080034d8 	.word	0x080034d8
 80019fc:	080034e8 	.word	0x080034e8
 8001a00:	08003500 	.word	0x08003500
 8001a04:	08003508 	.word	0x08003508
 8001a08:	08003524 	.word	0x08003524
 8001a0c:	08003528 	.word	0x08003528
 8001a10:	08003544 	.word	0x08003544
 8001a14:	08003558 	.word	0x08003558
 8001a18:	08003574 	.word	0x08003574
 8001a1c:	08003580 	.word	0x08003580
 8001a20:	08003478 	.word	0x08003478
 8001a24:	080034a8 	.word	0x080034a8
 8001a28:	080034bc 	.word	0x080034bc

08001a2c <complet>:
 8001a2c:	e92d 43f8 	stmdb	sp!, {r3, r4, r5, r6, r7, r8, r9, lr}
 8001a30:	f04f 0200 	mov.w	r2, #0
 8001a34:	4b16      	ldr	r3, [pc, #88]	; (8001a90 <complet+0x64>)
 8001a36:	601a      	str	r2, [r3, #0]
 8001a38:	2801      	cmp	r0, #1
 8001a3a:	d116      	bne.n	8001a6a <complet+0x3e>
 8001a3c:	680f      	ldr	r7, [r1, #0]
 8001a3e:	4b15      	ldr	r3, [pc, #84]	; (8001a94 <complet+0x68>)
 8001a40:	f1a3 0404 	sub.w	r4, r3, #4
 8001a44:	f103 0814 	add.w	r8, r3, #20
 8001a48:	4616      	mov	r6, r2
 8001a4a:	f8df 9044 	ldr.w	r9, [pc, #68]	; 8001a90 <complet+0x64>
 8001a4e:	f854 5f04 	ldr.w	r5, [r4, #4]!
 8001a52:	4628      	mov	r0, r5
 8001a54:	4639      	mov	r1, r7
 8001a56:	f000 ffd3 	bl	8002a00 <strstr>
 8001a5a:	4285      	cmp	r5, r0
 8001a5c:	bf04      	itt	eq
 8001a5e:	f849 5026 	streq.w	r5, [r9, r6, lsl #2]
 8001a62:	3601      	addeq	r6, #1
 8001a64:	4544      	cmp	r4, r8
 8001a66:	d1f2      	bne.n	8001a4e <complet+0x22>
 8001a68:	e00b      	b.n	8001a82 <complet+0x56>
 8001a6a:	f04f 0300 	mov.w	r3, #0
 8001a6e:	4808      	ldr	r0, [pc, #32]	; (8001a90 <complet+0x64>)
 8001a70:	4908      	ldr	r1, [pc, #32]	; (8001a94 <complet+0x68>)
 8001a72:	58ca      	ldr	r2, [r1, r3]
 8001a74:	501a      	str	r2, [r3, r0]
 8001a76:	f103 0304 	add.w	r3, r3, #4
 8001a7a:	2b18      	cmp	r3, #24
 8001a7c:	d1f9      	bne.n	8001a72 <complet+0x46>
 8001a7e:	f04f 0606 	mov.w	r6, #6
 8001a82:	4803      	ldr	r0, [pc, #12]	; (8001a90 <complet+0x64>)
 8001a84:	f04f 0300 	mov.w	r3, #0
 8001a88:	f840 3026 	str.w	r3, [r0, r6, lsl #2]
 8001a8c:	e8bd 83f8 	ldmia.w	sp!, {r3, r4, r5, r6, r7, r8, r9, pc}
 8001a90:	20001270 	.word	0x20001270
 8001a94:	2000001c 	.word	0x2000001c

08001a98 <sigint>:
 8001a98:	b508      	push	{r3, lr}
 8001a9a:	4802      	ldr	r0, [pc, #8]	; (8001aa4 <sigint+0xc>)
 8001a9c:	f7ff fe92 	bl	80017c4 <print>
 8001aa0:	bd08      	pop	{r3, pc}
 8001aa2:	bf00      	nop
 8001aa4:	08003590 	.word	0x08003590

08001aa8 <PrintChar>:
 8001aa8:	b570      	push	{r4, r5, r6, lr}
 8001aaa:	4606      	mov	r6, r0
 8001aac:	4d06      	ldr	r5, [pc, #24]	; (8001ac8 <PrintChar+0x20>)
 8001aae:	f04f 0480 	mov.w	r4, #128	; 0x80
 8001ab2:	4628      	mov	r0, r5
 8001ab4:	4621      	mov	r1, r4
 8001ab6:	f000 fba5 	bl	8002204 <USART_GetFlagStatus>
 8001aba:	2800      	cmp	r0, #0
 8001abc:	d0f9      	beq.n	8001ab2 <PrintChar+0xa>
 8001abe:	4802      	ldr	r0, [pc, #8]	; (8001ac8 <PrintChar+0x20>)
 8001ac0:	4631      	mov	r1, r6
 8001ac2:	f000 fb93 	bl	80021ec <USART_SendData>
 8001ac6:	bd70      	pop	{r4, r5, r6, pc}
 8001ac8:	40013800 	.word	0x40013800

08001acc <PutChar>:
 8001acc:	7001      	strb	r1, [r0, #0]
 8001ace:	f04f 0001 	mov.w	r0, #1
 8001ad2:	4770      	bx	lr

08001ad4 <PutString>:
 8001ad4:	4603      	mov	r3, r0
 8001ad6:	780a      	ldrb	r2, [r1, #0]
 8001ad8:	b14a      	cbz	r2, 8001aee <PutString+0x1a>
 8001ada:	f04f 0000 	mov.w	r0, #0
 8001ade:	541a      	strb	r2, [r3, r0]
 8001ae0:	f100 0001 	add.w	r0, r0, #1
 8001ae4:	f811 2f01 	ldrb.w	r2, [r1, #1]!
 8001ae8:	2a00      	cmp	r2, #0
 8001aea:	d1f8      	bne.n	8001ade <PutString+0xa>
 8001aec:	4770      	bx	lr
 8001aee:	f04f 0000 	mov.w	r0, #0
 8001af2:	4770      	bx	lr

08001af4 <PutUnsignedInt>:
 8001af4:	e92d 43f8 	stmdb	sp!, {r3, r4, r5, r6, r7, r8, r9, lr}
 8001af8:	4607      	mov	r7, r0
 8001afa:	460e      	mov	r6, r1
 8001afc:	4691      	mov	r9, r2
 8001afe:	4698      	mov	r8, r3
 8001b00:	f102 32ff 	add.w	r2, r2, #4294967295
 8001b04:	2b09      	cmp	r3, #9
 8001b06:	d804      	bhi.n	8001b12 <PutUnsignedInt+0x1e>
 8001b08:	2a00      	cmp	r2, #0
 8001b0a:	dc0d      	bgt.n	8001b28 <PutUnsignedInt+0x34>
 8001b0c:	f04f 0900 	mov.w	r9, #0
 8001b10:	e01a      	b.n	8001b48 <PutUnsignedInt+0x54>
 8001b12:	4b16      	ldr	r3, [pc, #88]	; (8001b6c <PutUnsignedInt+0x78>)
 8001b14:	fba3 1308 	umull	r1, r3, r3, r8
 8001b18:	4631      	mov	r1, r6
 8001b1a:	ea4f 03d3 	mov.w	r3, r3, lsr #3
 8001b1e:	f7ff ffe9 	bl	8001af4 <PutUnsignedInt>
 8001b22:	4681      	mov	r9, r0
 8001b24:	183f      	adds	r7, r7, r0
 8001b26:	e00f      	b.n	8001b48 <PutUnsignedInt+0x54>
 8001b28:	f100 35ff 	add.w	r5, r0, #4294967295
 8001b2c:	444d      	add	r5, r9
 8001b2e:	4604      	mov	r4, r0
 8001b30:	4620      	mov	r0, r4
 8001b32:	4631      	mov	r1, r6
 8001b34:	f7ff ffca 	bl	8001acc <PutChar>
 8001b38:	f104 0401 	add.w	r4, r4, #1
 8001b3c:	42ac      	cmp	r4, r5
 8001b3e:	d1f7      	bne.n	8001b30 <PutUnsignedInt+0x3c>
 8001b40:	f109 33ff 	add.w	r3, r9, #4294967295
 8001b44:	18ff      	adds	r7, r7, r3
 8001b46:	4699      	mov	r9, r3
 8001b48:	4908      	ldr	r1, [pc, #32]	; (8001b6c <PutUnsignedInt+0x78>)
 8001b4a:	fba1 3108 	umull	r3, r1, r1, r8
 8001b4e:	ea4f 01d1 	mov.w	r1, r1, lsr #3
 8001b52:	eb01 0181 	add.w	r1, r1, r1, lsl #2
 8001b56:	eba8 0141 	sub.w	r1, r8, r1, lsl #1
 8001b5a:	f101 0130 	add.w	r1, r1, #48	; 0x30
 8001b5e:	4638      	mov	r0, r7
 8001b60:	b2c9      	uxtb	r1, r1
 8001b62:	f7ff ffb3 	bl	8001acc <PutChar>
 8001b66:	4448      	add	r0, r9
 8001b68:	e8bd 83f8 	ldmia.w	sp!, {r3, r4, r5, r6, r7, r8, r9, pc}
 8001b6c:	cccccccd 	.word	0xcccccccd

08001b70 <PutSignedInt>:
 8001b70:	e92d 4ff8 	stmdb	sp!, {r3, r4, r5, r6, r7, r8, r9, sl, fp, lr}
 8001b74:	4607      	mov	r7, r0
 8001b76:	460e      	mov	r6, r1
 8001b78:	f1b3 0a00 	subs.w	sl, r3, #0
 8001b7c:	ea83 78e3 	eor.w	r8, r3, r3, asr #31
 8001b80:	eba8 78e3 	sub.w	r8, r8, r3, asr #31
 8001b84:	f102 39ff 	add.w	r9, r2, #4294967295
 8001b88:	f1b8 0f09 	cmp.w	r8, #9
 8001b8c:	d918      	bls.n	8001bc0 <PutSignedInt+0x50>
 8001b8e:	2b00      	cmp	r3, #0
 8001b90:	da0b      	bge.n	8001baa <PutSignedInt+0x3a>
 8001b92:	4b25      	ldr	r3, [pc, #148]	; (8001c28 <PutSignedInt+0xb8>)
 8001b94:	fba3 2308 	umull	r2, r3, r3, r8
 8001b98:	ea4f 03d3 	mov.w	r3, r3, lsr #3
 8001b9c:	464a      	mov	r2, r9
 8001b9e:	f1c3 0300 	rsb	r3, r3, #0
 8001ba2:	f7ff ffe5 	bl	8001b70 <PutSignedInt>
 8001ba6:	4681      	mov	r9, r0
 8001ba8:	e008      	b.n	8001bbc <PutSignedInt+0x4c>
 8001baa:	4b1f      	ldr	r3, [pc, #124]	; (8001c28 <PutSignedInt+0xb8>)
 8001bac:	fba3 2308 	umull	r2, r3, r3, r8
 8001bb0:	464a      	mov	r2, r9
 8001bb2:	ea4f 03d3 	mov.w	r3, r3, lsr #3
 8001bb6:	f7ff ffdb 	bl	8001b70 <PutSignedInt>
 8001bba:	4681      	mov	r9, r0
 8001bbc:	444f      	add	r7, r9
 8001bbe:	e021      	b.n	8001c04 <PutSignedInt+0x94>
 8001bc0:	2b00      	cmp	r3, #0
 8001bc2:	bfb8      	it	lt
 8001bc4:	f109 39ff 	addlt.w	r9, r9, #4294967295
 8001bc8:	f1b9 0f00 	cmp.w	r9, #0
 8001bcc:	dd0d      	ble.n	8001bea <PutSignedInt+0x7a>
 8001bce:	46cb      	mov	fp, r9
 8001bd0:	eb00 0509 	add.w	r5, r0, r9
 8001bd4:	4604      	mov	r4, r0
 8001bd6:	4620      	mov	r0, r4
 8001bd8:	4631      	mov	r1, r6
 8001bda:	f7ff ff77 	bl	8001acc <PutChar>
 8001bde:	f104 0401 	add.w	r4, r4, #1
 8001be2:	42ac      	cmp	r4, r5
 8001be4:	d1f7      	bne.n	8001bd6 <PutSignedInt+0x66>
 8001be6:	445f      	add	r7, fp
 8001be8:	e001      	b.n	8001bee <PutSignedInt+0x7e>
 8001bea:	f04f 0900 	mov.w	r9, #0
 8001bee:	f1ba 0f00 	cmp.w	sl, #0
 8001bf2:	da07      	bge.n	8001c04 <PutSignedInt+0x94>
 8001bf4:	4638      	mov	r0, r7
 8001bf6:	f04f 012d 	mov.w	r1, #45	; 0x2d
 8001bfa:	f7ff ff67 	bl	8001acc <PutChar>
 8001bfe:	4481      	add	r9, r0
 8001c00:	f107 0701 	add.w	r7, r7, #1
 8001c04:	4908      	ldr	r1, [pc, #32]	; (8001c28 <PutSignedInt+0xb8>)
 8001c06:	fba1 3108 	umull	r3, r1, r1, r8
 8001c0a:	ea4f 01d1 	mov.w	r1, r1, lsr #3
 8001c0e:	eb01 0181 	add.w	r1, r1, r1, lsl #2
 8001c12:	eba8 0141 	sub.w	r1, r8, r1, lsl #1
 8001c16:	f101 0130 	add.w	r1, r1, #48	; 0x30
 8001c1a:	4638      	mov	r0, r7
 8001c1c:	b2c9      	uxtb	r1, r1
 8001c1e:	f7ff ff55 	bl	8001acc <PutChar>
 8001c22:	4448      	add	r0, r9
 8001c24:	e8bd 8ff8 	ldmia.w	sp!, {r3, r4, r5, r6, r7, r8, r9, sl, fp, pc}
 8001c28:	cccccccd 	.word	0xcccccccd

08001c2c <PutHexa>:
 8001c2c:	e92d 47f0 	stmdb	sp!, {r4, r5, r6, r7, r8, r9, sl, lr}
 8001c30:	b082      	sub	sp, #8
 8001c32:	4607      	mov	r7, r0
 8001c34:	460e      	mov	r6, r1
 8001c36:	4690      	mov	r8, r2
 8001c38:	469a      	mov	sl, r3
 8001c3a:	f8dd 9028 	ldr.w	r9, [sp, #40]	; 0x28
 8001c3e:	f102 32ff 	add.w	r2, r2, #4294967295
 8001c42:	ea5f 1319 	movs.w	r3, r9, lsr #4
 8001c46:	d104      	bne.n	8001c52 <PutHexa+0x26>
 8001c48:	2a00      	cmp	r2, #0
 8001c4a:	dc09      	bgt.n	8001c60 <PutHexa+0x34>
 8001c4c:	f04f 0800 	mov.w	r8, #0
 8001c50:	e016      	b.n	8001c80 <PutHexa+0x54>
 8001c52:	9300      	str	r3, [sp, #0]
 8001c54:	4653      	mov	r3, sl
 8001c56:	f7ff ffe9 	bl	8001c2c <PutHexa>
 8001c5a:	4680      	mov	r8, r0
 8001c5c:	183f      	adds	r7, r7, r0
 8001c5e:	e00f      	b.n	8001c80 <PutHexa+0x54>
 8001c60:	f100 35ff 	add.w	r5, r0, #4294967295
 8001c64:	4445      	add	r5, r8
 8001c66:	4604      	mov	r4, r0
 8001c68:	4620      	mov	r0, r4
 8001c6a:	4631      	mov	r1, r6
 8001c6c:	f7ff ff2e 	bl	8001acc <PutChar>
 8001c70:	f104 0401 	add.w	r4, r4, #1
 8001c74:	42ac      	cmp	r4, r5
 8001c76:	d1f7      	bne.n	8001c68 <PutHexa+0x3c>
 8001c78:	f108 33ff 	add.w	r3, r8, #4294967295
 8001c7c:	18ff      	adds	r7, r7, r3
 8001c7e:	4698      	mov	r8, r3
 8001c80:	f009 030f 	and.w	r3, r9, #15
 8001c84:	2b09      	cmp	r3, #9
 8001c86:	d805      	bhi.n	8001c94 <PutHexa+0x68>
 8001c88:	4638      	mov	r0, r7
 8001c8a:	f103 0130 	add.w	r1, r3, #48	; 0x30
 8001c8e:	f7ff ff1d 	bl	8001acc <PutChar>
 8001c92:	e011      	b.n	8001cb8 <PutHexa+0x8c>
 8001c94:	f1ba 0f00 	cmp.w	sl, #0
 8001c98:	d007      	beq.n	8001caa <PutHexa+0x7e>
 8001c9a:	f009 010f 	and.w	r1, r9, #15
 8001c9e:	4638      	mov	r0, r7
 8001ca0:	f101 0137 	add.w	r1, r1, #55	; 0x37
 8001ca4:	f7ff ff12 	bl	8001acc <PutChar>
 8001ca8:	e006      	b.n	8001cb8 <PutHexa+0x8c>
 8001caa:	f009 010f 	and.w	r1, r9, #15
 8001cae:	4638      	mov	r0, r7
 8001cb0:	f101 0157 	add.w	r1, r1, #87	; 0x57
 8001cb4:	f7ff ff0a 	bl	8001acc <PutChar>
 8001cb8:	f108 0001 	add.w	r0, r8, #1
 8001cbc:	b002      	add	sp, #8
 8001cbe:	e8bd 87f0 	ldmia.w	sp!, {r4, r5, r6, r7, r8, r9, sl, pc}
 8001cc2:	bf00      	nop

08001cc4 <vsnprintf>:
 8001cc4:	e92d 4ff0 	stmdb	sp!, {r4, r5, r6, r7, r8, r9, sl, fp, lr}
 8001cc8:	b085      	sub	sp, #20
 8001cca:	460e      	mov	r6, r1
 8001ccc:	4605      	mov	r5, r0
 8001cce:	b110      	cbz	r0, 8001cd6 <vsnprintf+0x12>
 8001cd0:	f04f 0100 	mov.w	r1, #0
 8001cd4:	7001      	strb	r1, [r0, #0]
 8001cd6:	f04f 0400 	mov.w	r4, #0
 8001cda:	f04f 0920 	mov.w	r9, #32
 8001cde:	f04f 0a30 	mov.w	sl, #48	; 0x30
 8001ce2:	f04f 0825 	mov.w	r8, #37	; 0x25
 8001ce6:	e096      	b.n	8001e16 <vsnprintf+0x152>
 8001ce8:	2925      	cmp	r1, #37	; 0x25
 8001cea:	d006      	beq.n	8001cfa <vsnprintf+0x36>
 8001cec:	f805 1b01 	strb.w	r1, [r5], #1
 8001cf0:	f102 0201 	add.w	r2, r2, #1
 8001cf4:	f104 0401 	add.w	r4, r4, #1
 8001cf8:	e08d      	b.n	8001e16 <vsnprintf+0x152>
 8001cfa:	f102 0701 	add.w	r7, r2, #1
 8001cfe:	7851      	ldrb	r1, [r2, #1]
 8001d00:	2925      	cmp	r1, #37	; 0x25
 8001d02:	d106      	bne.n	8001d12 <vsnprintf+0x4e>
 8001d04:	f805 8b01 	strb.w	r8, [r5], #1
 8001d08:	f102 0202 	add.w	r2, r2, #2
 8001d0c:	f104 0401 	add.w	r4, r4, #1
 8001d10:	e081      	b.n	8001e16 <vsnprintf+0x152>
 8001d12:	2930      	cmp	r1, #48	; 0x30
 8001d14:	bf06      	itte	eq
 8001d16:	3701      	addeq	r7, #1
 8001d18:	46d3      	moveq	fp, sl
 8001d1a:	46cb      	movne	fp, r9
 8001d1c:	7839      	ldrb	r1, [r7, #0]
 8001d1e:	f1a1 0230 	sub.w	r2, r1, #48	; 0x30
 8001d22:	b2d2      	uxtb	r2, r2
 8001d24:	2a09      	cmp	r2, #9
 8001d26:	d816      	bhi.n	8001d56 <vsnprintf+0x92>
 8001d28:	f107 0001 	add.w	r0, r7, #1
 8001d2c:	f04f 0200 	mov.w	r2, #0
 8001d30:	eb02 0282 	add.w	r2, r2, r2, lsl #2
 8001d34:	f1a1 0130 	sub.w	r1, r1, #48	; 0x30
 8001d38:	eb01 0242 	add.w	r2, r1, r2, lsl #1
 8001d3c:	f002 02ff 	and.w	r2, r2, #255	; 0xff
 8001d40:	4607      	mov	r7, r0
 8001d42:	f810 1b01 	ldrb.w	r1, [r0], #1
 8001d46:	f1a1 0c30 	sub.w	ip, r1, #48	; 0x30
 8001d4a:	fa5f fc8c 	uxtb.w	ip, ip
 8001d4e:	f1bc 0f09 	cmp.w	ip, #9
 8001d52:	d9ed      	bls.n	8001d30 <vsnprintf+0x6c>
 8001d54:	e001      	b.n	8001d5a <vsnprintf+0x96>
 8001d56:	f04f 0200 	mov.w	r2, #0
 8001d5a:	1910      	adds	r0, r2, r4
 8001d5c:	4286      	cmp	r6, r0
 8001d5e:	bf3c      	itt	cc
 8001d60:	ebc4 0206 	rsbcc	r2, r4, r6
 8001d64:	b2d2      	uxtbcc	r2, r2
 8001d66:	f1a1 0158 	sub.w	r1, r1, #88	; 0x58
 8001d6a:	2920      	cmp	r1, #32
 8001d6c:	d866      	bhi.n	8001e3c <vsnprintf+0x178>
 8001d6e:	e8df f001 	tbb	[pc, r1]
 8001d72:	6532      	.short	0x6532
 8001d74:	65656565 	.word	0x65656565
 8001d78:	65656565 	.word	0x65656565
 8001d7c:	65114765 	.word	0x65114765
 8001d80:	11656565 	.word	0x11656565
 8001d84:	65656565 	.word	0x65656565
 8001d88:	65656565 	.word	0x65656565
 8001d8c:	1b653f65 	.word	0x1b653f65
 8001d90:	6565      	.short	0x6565
 8001d92:	25          	.byte	0x25
 8001d93:	00          	.byte	0x00
 8001d94:	f103 0104 	add.w	r1, r3, #4
 8001d98:	9103      	str	r1, [sp, #12]
 8001d9a:	4628      	mov	r0, r5
 8001d9c:	4659      	mov	r1, fp
 8001d9e:	681b      	ldr	r3, [r3, #0]
 8001da0:	f7ff fee6 	bl	8001b70 <PutSignedInt>
 8001da4:	9b03      	ldr	r3, [sp, #12]
 8001da6:	e032      	b.n	8001e0e <vsnprintf+0x14a>
 8001da8:	f103 0004 	add.w	r0, r3, #4
 8001dac:	9003      	str	r0, [sp, #12]
 8001dae:	4628      	mov	r0, r5
 8001db0:	4659      	mov	r1, fp
 8001db2:	681b      	ldr	r3, [r3, #0]
 8001db4:	f7ff fe9e 	bl	8001af4 <PutUnsignedInt>
 8001db8:	9b03      	ldr	r3, [sp, #12]
 8001dba:	e028      	b.n	8001e0e <vsnprintf+0x14a>
 8001dbc:	f103 0104 	add.w	r1, r3, #4
 8001dc0:	9103      	str	r1, [sp, #12]
 8001dc2:	681b      	ldr	r3, [r3, #0]
 8001dc4:	9300      	str	r3, [sp, #0]
 8001dc6:	4628      	mov	r0, r5
 8001dc8:	4659      	mov	r1, fp
 8001dca:	f04f 0300 	mov.w	r3, #0
 8001dce:	f7ff ff2d 	bl	8001c2c <PutHexa>
 8001dd2:	9b03      	ldr	r3, [sp, #12]
 8001dd4:	e01b      	b.n	8001e0e <vsnprintf+0x14a>
 8001dd6:	f103 0004 	add.w	r0, r3, #4
 8001dda:	9003      	str	r0, [sp, #12]
 8001ddc:	681b      	ldr	r3, [r3, #0]
 8001dde:	9300      	str	r3, [sp, #0]
 8001de0:	4628      	mov	r0, r5
 8001de2:	4659      	mov	r1, fp
 8001de4:	f04f 0301 	mov.w	r3, #1
 8001de8:	f7ff ff20 	bl	8001c2c <PutHexa>
 8001dec:	9b03      	ldr	r3, [sp, #12]
 8001dee:	e00e      	b.n	8001e0e <vsnprintf+0x14a>
 8001df0:	f103 0b04 	add.w	fp, r3, #4
 8001df4:	4628      	mov	r0, r5
 8001df6:	6819      	ldr	r1, [r3, #0]
 8001df8:	f7ff fe6c 	bl	8001ad4 <PutString>
 8001dfc:	465b      	mov	r3, fp
 8001dfe:	e006      	b.n	8001e0e <vsnprintf+0x14a>
 8001e00:	f103 0b04 	add.w	fp, r3, #4
 8001e04:	4628      	mov	r0, r5
 8001e06:	7819      	ldrb	r1, [r3, #0]
 8001e08:	f7ff fe60 	bl	8001acc <PutChar>
 8001e0c:	465b      	mov	r3, fp
 8001e0e:	f107 0201 	add.w	r2, r7, #1
 8001e12:	182d      	adds	r5, r5, r0
 8001e14:	1824      	adds	r4, r4, r0
 8001e16:	7811      	ldrb	r1, [r2, #0]
 8001e18:	b119      	cbz	r1, 8001e22 <vsnprintf+0x15e>
 8001e1a:	42b4      	cmp	r4, r6
 8001e1c:	f4ff af64 	bcc.w	8001ce8 <vsnprintf+0x24>
 8001e20:	e005      	b.n	8001e2e <vsnprintf+0x16a>
 8001e22:	42a6      	cmp	r6, r4
 8001e24:	d903      	bls.n	8001e2e <vsnprintf+0x16a>
 8001e26:	f04f 0300 	mov.w	r3, #0
 8001e2a:	702b      	strb	r3, [r5, #0]
 8001e2c:	e008      	b.n	8001e40 <vsnprintf+0x17c>
 8001e2e:	f04f 0300 	mov.w	r3, #0
 8001e32:	f805 3c01 	strb.w	r3, [r5, #-1]
 8001e36:	f104 34ff 	add.w	r4, r4, #4294967295
 8001e3a:	e001      	b.n	8001e40 <vsnprintf+0x17c>
 8001e3c:	f04f 34ff 	mov.w	r4, #4294967295
 8001e40:	4620      	mov	r0, r4
 8001e42:	b005      	add	sp, #20
 8001e44:	e8bd 8ff0 	ldmia.w	sp!, {r4, r5, r6, r7, r8, r9, sl, fp, pc}

08001e48 <snprintf>:
 8001e48:	b40c      	push	{r2, r3}
 8001e4a:	b500      	push	{lr}
 8001e4c:	b083      	sub	sp, #12
 8001e4e:	ab04      	add	r3, sp, #16
 8001e50:	f853 2b04 	ldr.w	r2, [r3], #4
 8001e54:	9301      	str	r3, [sp, #4]
 8001e56:	f7ff ff35 	bl	8001cc4 <vsnprintf>
 8001e5a:	b003      	add	sp, #12
 8001e5c:	f85d eb04 	ldr.w	lr, [sp], #4
 8001e60:	b002      	add	sp, #8
 8001e62:	4770      	bx	lr

08001e64 <vsprintf>:
 8001e64:	b510      	push	{r4, lr}
 8001e66:	460c      	mov	r4, r1
 8001e68:	4613      	mov	r3, r2
 8001e6a:	f04f 0164 	mov.w	r1, #100	; 0x64
 8001e6e:	4622      	mov	r2, r4
 8001e70:	f7ff ff28 	bl	8001cc4 <vsnprintf>
 8001e74:	bd10      	pop	{r4, pc}
 8001e76:	bf00      	nop

08001e78 <fputc>:
 8001e78:	b510      	push	{r4, lr}
 8001e7a:	4604      	mov	r4, r0
 8001e7c:	4b07      	ldr	r3, [pc, #28]	; (8001e9c <fputc+0x24>)
 8001e7e:	681b      	ldr	r3, [r3, #0]
 8001e80:	689a      	ldr	r2, [r3, #8]
 8001e82:	428a      	cmp	r2, r1
 8001e84:	d002      	beq.n	8001e8c <fputc+0x14>
 8001e86:	68db      	ldr	r3, [r3, #12]
 8001e88:	428b      	cmp	r3, r1
 8001e8a:	d103      	bne.n	8001e94 <fputc+0x1c>
 8001e8c:	b2e0      	uxtb	r0, r4
 8001e8e:	f7ff fe0b 	bl	8001aa8 <PrintChar>
 8001e92:	e001      	b.n	8001e98 <fputc+0x20>
 8001e94:	f04f 34ff 	mov.w	r4, #4294967295
 8001e98:	4620      	mov	r0, r4
 8001e9a:	bd10      	pop	{r4, pc}
 8001e9c:	20000034 	.word	0x20000034

08001ea0 <fputs>:
 8001ea0:	b570      	push	{r4, r5, r6, lr}
 8001ea2:	4605      	mov	r5, r0
 8001ea4:	460e      	mov	r6, r1
 8001ea6:	7800      	ldrb	r0, [r0, #0]
 8001ea8:	b170      	cbz	r0, 8001ec8 <fputs+0x28>
 8001eaa:	f04f 0400 	mov.w	r4, #0
 8001eae:	4631      	mov	r1, r6
 8001eb0:	f7ff ffe2 	bl	8001e78 <fputc>
 8001eb4:	f1b0 3fff 	cmp.w	r0, #4294967295
 8001eb8:	d009      	beq.n	8001ece <fputs+0x2e>
 8001eba:	f104 0401 	add.w	r4, r4, #1
 8001ebe:	f815 0f01 	ldrb.w	r0, [r5, #1]!
 8001ec2:	2800      	cmp	r0, #0
 8001ec4:	d1f3      	bne.n	8001eae <fputs+0xe>
 8001ec6:	e004      	b.n	8001ed2 <fputs+0x32>
 8001ec8:	f04f 0400 	mov.w	r4, #0
 8001ecc:	e001      	b.n	8001ed2 <fputs+0x32>
 8001ece:	f04f 34ff 	mov.w	r4, #4294967295
 8001ed2:	4620      	mov	r0, r4
 8001ed4:	bd70      	pop	{r4, r5, r6, pc}
 8001ed6:	bf00      	nop

08001ed8 <vfprintf>:
 8001ed8:	b5f0      	push	{r4, r5, r6, r7, lr}
 8001eda:	b0a3      	sub	sp, #140	; 0x8c
 8001edc:	4604      	mov	r4, r0
 8001ede:	468e      	mov	lr, r1
 8001ee0:	4617      	mov	r7, r2
 8001ee2:	4e0e      	ldr	r6, [pc, #56]	; (8001f1c <vfprintf+0x44>)
 8001ee4:	466d      	mov	r5, sp
 8001ee6:	ce0f      	ldmia	r6!, {r0, r1, r2, r3}
 8001ee8:	c50f      	stmia	r5!, {r0, r1, r2, r3}
 8001eea:	ce0f      	ldmia	r6!, {r0, r1, r2, r3}
 8001eec:	c50f      	stmia	r5!, {r0, r1, r2, r3}
 8001eee:	6833      	ldr	r3, [r6, #0]
 8001ef0:	602b      	str	r3, [r5, #0]
 8001ef2:	a809      	add	r0, sp, #36	; 0x24
 8001ef4:	4671      	mov	r1, lr
 8001ef6:	463a      	mov	r2, r7
 8001ef8:	f7ff ffb4 	bl	8001e64 <vsprintf>
 8001efc:	2863      	cmp	r0, #99	; 0x63
 8001efe:	dd06      	ble.n	8001f0e <vfprintf+0x36>
 8001f00:	4b07      	ldr	r3, [pc, #28]	; (8001f20 <vfprintf+0x48>)
 8001f02:	681b      	ldr	r3, [r3, #0]
 8001f04:	4668      	mov	r0, sp
 8001f06:	68d9      	ldr	r1, [r3, #12]
 8001f08:	f7ff ffca 	bl	8001ea0 <fputs>
 8001f0c:	e7fe      	b.n	8001f0c <vfprintf+0x34>
 8001f0e:	a809      	add	r0, sp, #36	; 0x24
 8001f10:	4621      	mov	r1, r4
 8001f12:	f7ff ffc5 	bl	8001ea0 <fputs>
 8001f16:	b023      	add	sp, #140	; 0x8c
 8001f18:	bdf0      	pop	{r4, r5, r6, r7, pc}
 8001f1a:	bf00      	nop
 8001f1c:	080035a4 	.word	0x080035a4
 8001f20:	20000034 	.word	0x20000034

08001f24 <vprintf>:
 8001f24:	b508      	push	{r3, lr}
 8001f26:	4603      	mov	r3, r0
 8001f28:	460a      	mov	r2, r1
 8001f2a:	4903      	ldr	r1, [pc, #12]	; (8001f38 <vprintf+0x14>)
 8001f2c:	6809      	ldr	r1, [r1, #0]
 8001f2e:	6888      	ldr	r0, [r1, #8]
 8001f30:	4619      	mov	r1, r3
 8001f32:	f7ff ffd1 	bl	8001ed8 <vfprintf>
 8001f36:	bd08      	pop	{r3, pc}
 8001f38:	20000034 	.word	0x20000034

08001f3c <printf>:
 8001f3c:	b40f      	push	{r0, r1, r2, r3}
 8001f3e:	b500      	push	{lr}
 8001f40:	b083      	sub	sp, #12
 8001f42:	a904      	add	r1, sp, #16
 8001f44:	f851 0b04 	ldr.w	r0, [r1], #4
 8001f48:	9101      	str	r1, [sp, #4]
 8001f4a:	f7ff ffeb 	bl	8001f24 <vprintf>
 8001f4e:	b003      	add	sp, #12
 8001f50:	f85d eb04 	ldr.w	lr, [sp], #4
 8001f54:	b004      	add	sp, #16
 8001f56:	4770      	bx	lr

08001f58 <RCC_GetClocksFreq>:
 8001f58:	b410      	push	{r4}
 8001f5a:	4b27      	ldr	r3, [pc, #156]	; (8001ff8 <RCC_GetClocksFreq+0xa0>)
 8001f5c:	685b      	ldr	r3, [r3, #4]
 8001f5e:	f003 030c 	and.w	r3, r3, #12
 8001f62:	2b04      	cmp	r3, #4
 8001f64:	d005      	beq.n	8001f72 <RCC_GetClocksFreq+0x1a>
 8001f66:	2b08      	cmp	r3, #8
 8001f68:	d006      	beq.n	8001f78 <RCC_GetClocksFreq+0x20>
 8001f6a:	bb0b      	cbnz	r3, 8001fb0 <RCC_GetClocksFreq+0x58>
 8001f6c:	4b23      	ldr	r3, [pc, #140]	; (8001ffc <RCC_GetClocksFreq+0xa4>)
 8001f6e:	6003      	str	r3, [r0, #0]
 8001f70:	e020      	b.n	8001fb4 <RCC_GetClocksFreq+0x5c>
 8001f72:	4b22      	ldr	r3, [pc, #136]	; (8001ffc <RCC_GetClocksFreq+0xa4>)
 8001f74:	6003      	str	r3, [r0, #0]
 8001f76:	e01d      	b.n	8001fb4 <RCC_GetClocksFreq+0x5c>
 8001f78:	4b1f      	ldr	r3, [pc, #124]	; (8001ff8 <RCC_GetClocksFreq+0xa0>)
 8001f7a:	6859      	ldr	r1, [r3, #4]
 8001f7c:	685a      	ldr	r2, [r3, #4]
 8001f7e:	f3c1 4383 	ubfx	r3, r1, #18, #4
 8001f82:	f103 0302 	add.w	r3, r3, #2
 8001f86:	f412 3f80 	tst.w	r2, #65536	; 0x10000
 8001f8a:	d104      	bne.n	8001f96 <RCC_GetClocksFreq+0x3e>
 8001f8c:	4a1c      	ldr	r2, [pc, #112]	; (8002000 <RCC_GetClocksFreq+0xa8>)
 8001f8e:	fb02 f303 	mul.w	r3, r2, r3
 8001f92:	6003      	str	r3, [r0, #0]
 8001f94:	e00e      	b.n	8001fb4 <RCC_GetClocksFreq+0x5c>
 8001f96:	4a18      	ldr	r2, [pc, #96]	; (8001ff8 <RCC_GetClocksFreq+0xa0>)
 8001f98:	6ad2      	ldr	r2, [r2, #44]	; 0x2c
 8001f9a:	f002 020f 	and.w	r2, r2, #15
 8001f9e:	f102 0201 	add.w	r2, r2, #1
 8001fa2:	4916      	ldr	r1, [pc, #88]	; (8001ffc <RCC_GetClocksFreq+0xa4>)
 8001fa4:	fbb1 f2f2 	udiv	r2, r1, r2
 8001fa8:	fb03 f302 	mul.w	r3, r3, r2
 8001fac:	6003      	str	r3, [r0, #0]
 8001fae:	e001      	b.n	8001fb4 <RCC_GetClocksFreq+0x5c>
 8001fb0:	4b12      	ldr	r3, [pc, #72]	; (8001ffc <RCC_GetClocksFreq+0xa4>)
 8001fb2:	6003      	str	r3, [r0, #0]
 8001fb4:	4a10      	ldr	r2, [pc, #64]	; (8001ff8 <RCC_GetClocksFreq+0xa0>)
 8001fb6:	6851      	ldr	r1, [r2, #4]
 8001fb8:	f3c1 1103 	ubfx	r1, r1, #4, #4
 8001fbc:	4b11      	ldr	r3, [pc, #68]	; (8002004 <RCC_GetClocksFreq+0xac>)
 8001fbe:	5c59      	ldrb	r1, [r3, r1]
 8001fc0:	6804      	ldr	r4, [r0, #0]
 8001fc2:	fa24 f101 	lsr.w	r1, r4, r1
 8001fc6:	6041      	str	r1, [r0, #4]
 8001fc8:	6854      	ldr	r4, [r2, #4]
 8001fca:	f3c4 2402 	ubfx	r4, r4, #8, #3
 8001fce:	5d1c      	ldrb	r4, [r3, r4]
 8001fd0:	fa21 f404 	lsr.w	r4, r1, r4
 8001fd4:	6084      	str	r4, [r0, #8]
 8001fd6:	6854      	ldr	r4, [r2, #4]
 8001fd8:	f3c4 24c2 	ubfx	r4, r4, #11, #3
 8001fdc:	5d1c      	ldrb	r4, [r3, r4]
 8001fde:	fa21 f104 	lsr.w	r1, r1, r4
 8001fe2:	60c1      	str	r1, [r0, #12]
 8001fe4:	6852      	ldr	r2, [r2, #4]
 8001fe6:	f3c2 3281 	ubfx	r2, r2, #14, #2
 8001fea:	189b      	adds	r3, r3, r2
 8001fec:	7c1b      	ldrb	r3, [r3, #16]
 8001fee:	fbb1 f1f3 	udiv	r1, r1, r3
 8001ff2:	6101      	str	r1, [r0, #16]
 8001ff4:	bc10      	pop	{r4}
 8001ff6:	4770      	bx	lr
 8001ff8:	40021000 	.word	0x40021000
 8001ffc:	007a1200 	.word	0x007a1200
 8002000:	003d0900 	.word	0x003d0900
 8002004:	20000128 	.word	0x20000128

08002008 <RCC_APB2PeriphClockCmd>:
 8002008:	b121      	cbz	r1, 8002014 <RCC_APB2PeriphClockCmd+0xc>
 800200a:	4b05      	ldr	r3, [pc, #20]	; (8002020 <RCC_APB2PeriphClockCmd+0x18>)
 800200c:	699a      	ldr	r2, [r3, #24]
 800200e:	4310      	orrs	r0, r2
 8002010:	6198      	str	r0, [r3, #24]
 8002012:	4770      	bx	lr
 8002014:	4b02      	ldr	r3, [pc, #8]	; (8002020 <RCC_APB2PeriphClockCmd+0x18>)
 8002016:	699a      	ldr	r2, [r3, #24]
 8002018:	ea22 0000 	bic.w	r0, r2, r0
 800201c:	6198      	str	r0, [r3, #24]
 800201e:	4770      	bx	lr
 8002020:	40021000 	.word	0x40021000

08002024 <RCC_APB1PeriphClockCmd>:
 8002024:	b121      	cbz	r1, 8002030 <RCC_APB1PeriphClockCmd+0xc>
 8002026:	4b05      	ldr	r3, [pc, #20]	; (800203c <RCC_APB1PeriphClockCmd+0x18>)
 8002028:	69da      	ldr	r2, [r3, #28]
 800202a:	4310      	orrs	r0, r2
 800202c:	61d8      	str	r0, [r3, #28]
 800202e:	4770      	bx	lr
 8002030:	4b02      	ldr	r3, [pc, #8]	; (800203c <RCC_APB1PeriphClockCmd+0x18>)
 8002032:	69da      	ldr	r2, [r3, #28]
 8002034:	ea22 0000 	bic.w	r0, r2, r0
 8002038:	61d8      	str	r0, [r3, #28]
 800203a:	4770      	bx	lr
 800203c:	40021000 	.word	0x40021000

08002040 <EXTI_Init>:
 8002040:	b410      	push	{r4}
 8002042:	7983      	ldrb	r3, [r0, #6]
 8002044:	2b00      	cmp	r3, #0
 8002046:	d037      	beq.n	80020b8 <EXTI_Init+0x78>
 8002048:	4b21      	ldr	r3, [pc, #132]	; (80020d0 <EXTI_Init+0x90>)
 800204a:	681a      	ldr	r2, [r3, #0]
 800204c:	6801      	ldr	r1, [r0, #0]
 800204e:	ea22 0201 	bic.w	r2, r2, r1
 8002052:	601a      	str	r2, [r3, #0]
 8002054:	685a      	ldr	r2, [r3, #4]
 8002056:	6801      	ldr	r1, [r0, #0]
 8002058:	ea22 0201 	bic.w	r2, r2, r1
 800205c:	605a      	str	r2, [r3, #4]
 800205e:	7902      	ldrb	r2, [r0, #4]
 8002060:	f102 4280 	add.w	r2, r2, #1073741824	; 0x40000000
 8002064:	f502 3282 	add.w	r2, r2, #66560	; 0x10400
 8002068:	6814      	ldr	r4, [r2, #0]
 800206a:	6801      	ldr	r1, [r0, #0]
 800206c:	ea44 0101 	orr.w	r1, r4, r1
 8002070:	6011      	str	r1, [r2, #0]
 8002072:	689a      	ldr	r2, [r3, #8]
 8002074:	6801      	ldr	r1, [r0, #0]
 8002076:	ea22 0201 	bic.w	r2, r2, r1
 800207a:	609a      	str	r2, [r3, #8]
 800207c:	68da      	ldr	r2, [r3, #12]
 800207e:	6801      	ldr	r1, [r0, #0]
 8002080:	ea22 0201 	bic.w	r2, r2, r1
 8002084:	60da      	str	r2, [r3, #12]
 8002086:	7943      	ldrb	r3, [r0, #5]
 8002088:	2b10      	cmp	r3, #16
 800208a:	d10b      	bne.n	80020a4 <EXTI_Init+0x64>
 800208c:	4b10      	ldr	r3, [pc, #64]	; (80020d0 <EXTI_Init+0x90>)
 800208e:	6899      	ldr	r1, [r3, #8]
 8002090:	6802      	ldr	r2, [r0, #0]
 8002092:	ea41 0202 	orr.w	r2, r1, r2
 8002096:	609a      	str	r2, [r3, #8]
 8002098:	68d9      	ldr	r1, [r3, #12]
 800209a:	6802      	ldr	r2, [r0, #0]
 800209c:	ea41 0202 	orr.w	r2, r1, r2
 80020a0:	60da      	str	r2, [r3, #12]
 80020a2:	e013      	b.n	80020cc <EXTI_Init+0x8c>
 80020a4:	f103 4380 	add.w	r3, r3, #1073741824	; 0x40000000
 80020a8:	f503 3382 	add.w	r3, r3, #66560	; 0x10400
 80020ac:	6819      	ldr	r1, [r3, #0]
 80020ae:	6802      	ldr	r2, [r0, #0]
 80020b0:	ea41 0202 	orr.w	r2, r1, r2
 80020b4:	601a      	str	r2, [r3, #0]
 80020b6:	e009      	b.n	80020cc <EXTI_Init+0x8c>
 80020b8:	7903      	ldrb	r3, [r0, #4]
 80020ba:	f103 4380 	add.w	r3, r3, #1073741824	; 0x40000000
 80020be:	f503 3382 	add.w	r3, r3, #66560	; 0x10400
 80020c2:	681a      	ldr	r2, [r3, #0]
 80020c4:	6801      	ldr	r1, [r0, #0]
 80020c6:	ea22 0201 	bic.w	r2, r2, r1
 80020ca:	601a      	str	r2, [r3, #0]
 80020cc:	bc10      	pop	{r4}
 80020ce:	4770      	bx	lr
 80020d0:	40010400 	.word	0x40010400

080020d4 <EXTI_ClearITPendingBit>:
 80020d4:	4b01      	ldr	r3, [pc, #4]	; (80020dc <EXTI_ClearITPendingBit+0x8>)
 80020d6:	6158      	str	r0, [r3, #20]
 80020d8:	4770      	bx	lr
 80020da:	bf00      	nop
 80020dc:	40010400 	.word	0x40010400

080020e0 <USART_Init>:
 80020e0:	b530      	push	{r4, r5, lr}
 80020e2:	b087      	sub	sp, #28
 80020e4:	4604      	mov	r4, r0
 80020e6:	460d      	mov	r5, r1
 80020e8:	8a03      	ldrh	r3, [r0, #16]
 80020ea:	f423 5340 	bic.w	r3, r3, #12288	; 0x3000
 80020ee:	ea4f 4303 	mov.w	r3, r3, lsl #16
 80020f2:	ea4f 4313 	mov.w	r3, r3, lsr #16
 80020f6:	88ca      	ldrh	r2, [r1, #6]
 80020f8:	4313      	orrs	r3, r2
 80020fa:	8203      	strh	r3, [r0, #16]
 80020fc:	8983      	ldrh	r3, [r0, #12]
 80020fe:	f423 53b0 	bic.w	r3, r3, #5632	; 0x1600
 8002102:	f023 030c 	bic.w	r3, r3, #12
 8002106:	ea4f 4303 	mov.w	r3, r3, lsl #16
 800210a:	ea4f 4313 	mov.w	r3, r3, lsr #16
 800210e:	8909      	ldrh	r1, [r1, #8]
 8002110:	88aa      	ldrh	r2, [r5, #4]
 8002112:	ea41 0202 	orr.w	r2, r1, r2
 8002116:	8969      	ldrh	r1, [r5, #10]
 8002118:	430a      	orrs	r2, r1
 800211a:	b292      	uxth	r2, r2
 800211c:	ea42 0303 	orr.w	r3, r2, r3
 8002120:	8183      	strh	r3, [r0, #12]
 8002122:	8a83      	ldrh	r3, [r0, #20]
 8002124:	f423 7340 	bic.w	r3, r3, #768	; 0x300
 8002128:	ea4f 4303 	mov.w	r3, r3, lsl #16
 800212c:	ea4f 4313 	mov.w	r3, r3, lsr #16
 8002130:	89aa      	ldrh	r2, [r5, #12]
 8002132:	4313      	orrs	r3, r2
 8002134:	8283      	strh	r3, [r0, #20]
 8002136:	a801      	add	r0, sp, #4
 8002138:	f7ff ff0e 	bl	8001f58 <RCC_GetClocksFreq>
 800213c:	4b21      	ldr	r3, [pc, #132]	; (80021c4 <USART_Init+0xe4>)
 800213e:	429c      	cmp	r4, r3
 8002140:	bf0c      	ite	eq
 8002142:	9a04      	ldreq	r2, [sp, #16]
 8002144:	9a03      	ldrne	r2, [sp, #12]
 8002146:	89a3      	ldrh	r3, [r4, #12]
 8002148:	b21b      	sxth	r3, r3
 800214a:	2b00      	cmp	r3, #0
 800214c:	da09      	bge.n	8002162 <USART_Init+0x82>
 800214e:	eb02 0282 	add.w	r2, r2, r2, lsl #2
 8002152:	eb02 0282 	add.w	r2, r2, r2, lsl #2
 8002156:	682b      	ldr	r3, [r5, #0]
 8002158:	ea4f 0343 	mov.w	r3, r3, lsl #1
 800215c:	fbb2 f2f3 	udiv	r2, r2, r3
 8002160:	e008      	b.n	8002174 <USART_Init+0x94>
 8002162:	eb02 0282 	add.w	r2, r2, r2, lsl #2
 8002166:	eb02 0282 	add.w	r2, r2, r2, lsl #2
 800216a:	6829      	ldr	r1, [r5, #0]
 800216c:	ea4f 0181 	mov.w	r1, r1, lsl #2
 8002170:	fbb2 f2f1 	udiv	r2, r2, r1
 8002174:	4b14      	ldr	r3, [pc, #80]	; (80021c8 <USART_Init+0xe8>)
 8002176:	fba3 1302 	umull	r1, r3, r3, r2
 800217a:	ea4f 1353 	mov.w	r3, r3, lsr #5
 800217e:	ea4f 1003 	mov.w	r0, r3, lsl #4
 8002182:	f04f 0164 	mov.w	r1, #100	; 0x64
 8002186:	fb03 2311 	mls	r3, r3, r1, r2
 800218a:	89a1      	ldrh	r1, [r4, #12]
 800218c:	b209      	sxth	r1, r1
 800218e:	2900      	cmp	r1, #0
 8002190:	da0a      	bge.n	80021a8 <USART_Init+0xc8>
 8002192:	ea4f 03c3 	mov.w	r3, r3, lsl #3
 8002196:	f103 0332 	add.w	r3, r3, #50	; 0x32
 800219a:	4d0b      	ldr	r5, [pc, #44]	; (80021c8 <USART_Init+0xe8>)
 800219c:	fba5 2303 	umull	r2, r3, r5, r3
 80021a0:	f3c3 1342 	ubfx	r3, r3, #5, #3
 80021a4:	4303      	orrs	r3, r0
 80021a6:	e009      	b.n	80021bc <USART_Init+0xdc>
 80021a8:	ea4f 1303 	mov.w	r3, r3, lsl #4
 80021ac:	f103 0332 	add.w	r3, r3, #50	; 0x32
 80021b0:	4d05      	ldr	r5, [pc, #20]	; (80021c8 <USART_Init+0xe8>)
 80021b2:	fba5 1303 	umull	r1, r3, r5, r3
 80021b6:	f3c3 1343 	ubfx	r3, r3, #5, #4
 80021ba:	4303      	orrs	r3, r0
 80021bc:	b29b      	uxth	r3, r3
 80021be:	8123      	strh	r3, [r4, #8]
 80021c0:	b007      	add	sp, #28
 80021c2:	bd30      	pop	{r4, r5, pc}
 80021c4:	40013800 	.word	0x40013800
 80021c8:	51eb851f 	.word	0x51eb851f

080021cc <USART_Cmd>:
 80021cc:	b129      	cbz	r1, 80021da <USART_Cmd+0xe>
 80021ce:	8983      	ldrh	r3, [r0, #12]
 80021d0:	b29b      	uxth	r3, r3
 80021d2:	f443 5300 	orr.w	r3, r3, #8192	; 0x2000
 80021d6:	8183      	strh	r3, [r0, #12]
 80021d8:	4770      	bx	lr
 80021da:	8983      	ldrh	r3, [r0, #12]
 80021dc:	f423 5300 	bic.w	r3, r3, #8192	; 0x2000
 80021e0:	ea4f 4303 	mov.w	r3, r3, lsl #16
 80021e4:	ea4f 4313 	mov.w	r3, r3, lsr #16
 80021e8:	8183      	strh	r3, [r0, #12]
 80021ea:	4770      	bx	lr

080021ec <USART_SendData>:
 80021ec:	ea4f 51c1 	mov.w	r1, r1, lsl #23
 80021f0:	ea4f 51d1 	mov.w	r1, r1, lsr #23
 80021f4:	8081      	strh	r1, [r0, #4]
 80021f6:	4770      	bx	lr

080021f8 <USART_ReceiveData>:
 80021f8:	8880      	ldrh	r0, [r0, #4]
 80021fa:	ea4f 50c0 	mov.w	r0, r0, lsl #23
 80021fe:	ea4f 50d0 	mov.w	r0, r0, lsr #23
 8002202:	4770      	bx	lr

08002204 <USART_GetFlagStatus>:
 8002204:	8803      	ldrh	r3, [r0, #0]
 8002206:	4219      	tst	r1, r3
 8002208:	bf0c      	ite	eq
 800220a:	2000      	moveq	r0, #0
 800220c:	2001      	movne	r0, #1
 800220e:	4770      	bx	lr

08002210 <atoi>:
 8002210:	2100      	movs	r1, #0
 8002212:	220a      	movs	r2, #10
 8002214:	f000 bdb4 	b.w	8002d80 <strtol>

08002218 <_atoi_r>:
 8002218:	2200      	movs	r2, #0
 800221a:	230a      	movs	r3, #10
 800221c:	f000 bcfe 	b.w	8002c1c <_strtol_r>

08002220 <memcpy>:
 8002220:	2a03      	cmp	r2, #3
 8002222:	e92d 01f0 	stmdb	sp!, {r4, r5, r6, r7, r8}
 8002226:	d809      	bhi.n	800223c <memcpy+0x1c>
 8002228:	b12a      	cbz	r2, 8002236 <memcpy+0x16>
 800222a:	2300      	movs	r3, #0
 800222c:	5ccc      	ldrb	r4, [r1, r3]
 800222e:	54c4      	strb	r4, [r0, r3]
 8002230:	3301      	adds	r3, #1
 8002232:	4293      	cmp	r3, r2
 8002234:	d1fa      	bne.n	800222c <memcpy+0xc>
 8002236:	e8bd 01f0 	ldmia.w	sp!, {r4, r5, r6, r7, r8}
 800223a:	4770      	bx	lr
 800223c:	460b      	mov	r3, r1
 800223e:	1882      	adds	r2, r0, r2
 8002240:	4601      	mov	r1, r0
 8002242:	e003      	b.n	800224c <memcpy+0x2c>
 8002244:	7824      	ldrb	r4, [r4, #0]
 8002246:	3301      	adds	r3, #1
 8002248:	f801 4b01 	strb.w	r4, [r1], #1
 800224c:	f011 0f03 	tst.w	r1, #3
 8002250:	461c      	mov	r4, r3
 8002252:	d1f7      	bne.n	8002244 <memcpy+0x24>
 8002254:	f013 0503 	ands.w	r5, r3, #3
 8002258:	d05d      	beq.n	8002316 <memcpy+0xf6>
 800225a:	426e      	negs	r6, r5
 800225c:	f1c5 0c04 	rsb	ip, r5, #4
 8002260:	00ed      	lsls	r5, r5, #3
 8002262:	599b      	ldr	r3, [r3, r6]
 8002264:	ea4f 0ccc 	mov.w	ip, ip, lsl #3
 8002268:	e008      	b.n	800227c <memcpy+0x5c>
 800226a:	3404      	adds	r4, #4
 800226c:	59a7      	ldr	r7, [r4, r6]
 800226e:	463b      	mov	r3, r7
 8002270:	fa07 f70c 	lsl.w	r7, r7, ip
 8002274:	ea48 0707 	orr.w	r7, r8, r7
 8002278:	f841 7b04 	str.w	r7, [r1], #4
 800227c:	1a57      	subs	r7, r2, r1
 800227e:	fa23 f805 	lsr.w	r8, r3, r5
 8002282:	2f03      	cmp	r7, #3
 8002284:	dcf1      	bgt.n	800226a <memcpy+0x4a>
 8002286:	e003      	b.n	8002290 <memcpy+0x70>
 8002288:	f814 3b01 	ldrb.w	r3, [r4], #1
 800228c:	f801 3b01 	strb.w	r3, [r1], #1
 8002290:	428a      	cmp	r2, r1
 8002292:	d8f9      	bhi.n	8002288 <memcpy+0x68>
 8002294:	e7cf      	b.n	8002236 <memcpy+0x16>
 8002296:	f853 4c40 	ldr.w	r4, [r3, #-64]
 800229a:	f841 4c40 	str.w	r4, [r1, #-64]
 800229e:	f853 4c3c 	ldr.w	r4, [r3, #-60]
 80022a2:	f841 4c3c 	str.w	r4, [r1, #-60]
 80022a6:	f853 4c38 	ldr.w	r4, [r3, #-56]
 80022aa:	f841 4c38 	str.w	r4, [r1, #-56]
 80022ae:	f853 4c34 	ldr.w	r4, [r3, #-52]
 80022b2:	f841 4c34 	str.w	r4, [r1, #-52]
 80022b6:	f853 4c30 	ldr.w	r4, [r3, #-48]
 80022ba:	f841 4c30 	str.w	r4, [r1, #-48]
 80022be:	f853 4c2c 	ldr.w	r4, [r3, #-44]
 80022c2:	f841 4c2c 	str.w	r4, [r1, #-44]
 80022c6:	f853 4c28 	ldr.w	r4, [r3, #-40]
 80022ca:	f841 4c28 	str.w	r4, [r1, #-40]
 80022ce:	f853 4c24 	ldr.w	r4, [r3, #-36]
 80022d2:	f841 4c24 	str.w	r4, [r1, #-36]
 80022d6:	f853 4c20 	ldr.w	r4, [r3, #-32]
 80022da:	f841 4c20 	str.w	r4, [r1, #-32]
 80022de:	f853 4c1c 	ldr.w	r4, [r3, #-28]
 80022e2:	f841 4c1c 	str.w	r4, [r1, #-28]
 80022e6:	f853 4c18 	ldr.w	r4, [r3, #-24]
 80022ea:	f841 4c18 	str.w	r4, [r1, #-24]
 80022ee:	f853 4c14 	ldr.w	r4, [r3, #-20]
 80022f2:	f841 4c14 	str.w	r4, [r1, #-20]
 80022f6:	f853 4c10 	ldr.w	r4, [r3, #-16]
 80022fa:	f841 4c10 	str.w	r4, [r1, #-16]
 80022fe:	f853 4c0c 	ldr.w	r4, [r3, #-12]
 8002302:	f841 4c0c 	str.w	r4, [r1, #-12]
 8002306:	f853 4c08 	ldr.w	r4, [r3, #-8]
 800230a:	f841 4c08 	str.w	r4, [r1, #-8]
 800230e:	f853 4c04 	ldr.w	r4, [r3, #-4]
 8002312:	f841 4c04 	str.w	r4, [r1, #-4]
 8002316:	1a56      	subs	r6, r2, r1
 8002318:	461d      	mov	r5, r3
 800231a:	460c      	mov	r4, r1
 800231c:	3340      	adds	r3, #64	; 0x40
 800231e:	3140      	adds	r1, #64	; 0x40
 8002320:	2e3f      	cmp	r6, #63	; 0x3f
 8002322:	dcb8      	bgt.n	8002296 <memcpy+0x76>
 8002324:	462b      	mov	r3, r5
 8002326:	e00f      	b.n	8002348 <memcpy+0x128>
 8002328:	f853 1c10 	ldr.w	r1, [r3, #-16]
 800232c:	f844 1c10 	str.w	r1, [r4, #-16]
 8002330:	f853 1c0c 	ldr.w	r1, [r3, #-12]
 8002334:	f844 1c0c 	str.w	r1, [r4, #-12]
 8002338:	f853 1c08 	ldr.w	r1, [r3, #-8]
 800233c:	f844 1c08 	str.w	r1, [r4, #-8]
 8002340:	f853 1c04 	ldr.w	r1, [r3, #-4]
 8002344:	f844 1c04 	str.w	r1, [r4, #-4]
 8002348:	1b16      	subs	r6, r2, r4
 800234a:	4621      	mov	r1, r4
 800234c:	461d      	mov	r5, r3
 800234e:	3410      	adds	r4, #16
 8002350:	3310      	adds	r3, #16
 8002352:	2e0f      	cmp	r6, #15
 8002354:	dce8      	bgt.n	8002328 <memcpy+0x108>
 8002356:	462b      	mov	r3, r5
 8002358:	e002      	b.n	8002360 <memcpy+0x140>
 800235a:	6824      	ldr	r4, [r4, #0]
 800235c:	f841 4b04 	str.w	r4, [r1], #4
 8002360:	1a55      	subs	r5, r2, r1
 8002362:	461c      	mov	r4, r3
 8002364:	2d03      	cmp	r5, #3
 8002366:	f103 0304 	add.w	r3, r3, #4
 800236a:	dcf6      	bgt.n	800235a <memcpy+0x13a>
 800236c:	e790      	b.n	8002290 <memcpy+0x70>
 800236e:	bf00      	nop

08002370 <memmove>:
 8002370:	4288      	cmp	r0, r1
 8002372:	4603      	mov	r3, r0
 8002374:	b4f0      	push	{r4, r5, r6, r7}
 8002376:	460c      	mov	r4, r1
 8002378:	d90e      	bls.n	8002398 <memmove+0x28>
 800237a:	188d      	adds	r5, r1, r2
 800237c:	42a8      	cmp	r0, r5
 800237e:	d20b      	bcs.n	8002398 <memmove+0x28>
 8002380:	b142      	cbz	r2, 8002394 <memmove+0x24>
 8002382:	1883      	adds	r3, r0, r2
 8002384:	4629      	mov	r1, r5
 8002386:	1a9a      	subs	r2, r3, r2
 8002388:	f811 4d01 	ldrb.w	r4, [r1, #-1]!
 800238c:	f803 4d01 	strb.w	r4, [r3, #-1]!
 8002390:	4293      	cmp	r3, r2
 8002392:	d1f9      	bne.n	8002388 <memmove+0x18>
 8002394:	bcf0      	pop	{r4, r5, r6, r7}
 8002396:	4770      	bx	lr
 8002398:	2a0f      	cmp	r2, #15
 800239a:	d938      	bls.n	800240e <memmove+0x9e>
 800239c:	ea41 0500 	orr.w	r5, r1, r0
 80023a0:	f015 0f03 	tst.w	r5, #3
 80023a4:	d135      	bne.n	8002412 <memmove+0xa2>
 80023a6:	f1a2 0610 	sub.w	r6, r2, #16
 80023aa:	f101 0510 	add.w	r5, r1, #16
 80023ae:	460b      	mov	r3, r1
 80023b0:	4602      	mov	r2, r0
 80023b2:	0937      	lsrs	r7, r6, #4
 80023b4:	eb05 1507 	add.w	r5, r5, r7, lsl #4
 80023b8:	681c      	ldr	r4, [r3, #0]
 80023ba:	6014      	str	r4, [r2, #0]
 80023bc:	685c      	ldr	r4, [r3, #4]
 80023be:	6054      	str	r4, [r2, #4]
 80023c0:	689c      	ldr	r4, [r3, #8]
 80023c2:	6094      	str	r4, [r2, #8]
 80023c4:	68dc      	ldr	r4, [r3, #12]
 80023c6:	3310      	adds	r3, #16
 80023c8:	60d4      	str	r4, [r2, #12]
 80023ca:	3210      	adds	r2, #16
 80023cc:	429d      	cmp	r5, r3
 80023ce:	d1f3      	bne.n	80023b8 <memmove+0x48>
 80023d0:	1c7c      	adds	r4, r7, #1
 80023d2:	f006 020f 	and.w	r2, r6, #15
 80023d6:	0124      	lsls	r4, r4, #4
 80023d8:	2a03      	cmp	r2, #3
 80023da:	eb00 0304 	add.w	r3, r0, r4
 80023de:	4421      	add	r1, r4
 80023e0:	d914      	bls.n	800240c <memmove+0x9c>
 80023e2:	3a04      	subs	r2, #4
 80023e4:	460c      	mov	r4, r1
 80023e6:	461d      	mov	r5, r3
 80023e8:	ea4f 0c92 	mov.w	ip, r2, lsr #2
 80023ec:	eb01 078c 	add.w	r7, r1, ip, lsl #2
 80023f0:	3704      	adds	r7, #4
 80023f2:	f854 6b04 	ldr.w	r6, [r4], #4
 80023f6:	42bc      	cmp	r4, r7
 80023f8:	f845 6b04 	str.w	r6, [r5], #4
 80023fc:	d1f9      	bne.n	80023f2 <memmove+0x82>
 80023fe:	f10c 0401 	add.w	r4, ip, #1
 8002402:	f002 0203 	and.w	r2, r2, #3
 8002406:	00a4      	lsls	r4, r4, #2
 8002408:	191b      	adds	r3, r3, r4
 800240a:	1909      	adds	r1, r1, r4
 800240c:	460c      	mov	r4, r1
 800240e:	2a00      	cmp	r2, #0
 8002410:	d0c0      	beq.n	8002394 <memmove+0x24>
 8002412:	4621      	mov	r1, r4
 8002414:	18a2      	adds	r2, r4, r2
 8002416:	f811 4b01 	ldrb.w	r4, [r1], #1
 800241a:	4291      	cmp	r1, r2
 800241c:	f803 4b01 	strb.w	r4, [r3], #1
 8002420:	d1f9      	bne.n	8002416 <memmove+0xa6>
 8002422:	e7b7      	b.n	8002394 <memmove+0x24>

08002424 <memset>:
 8002424:	2a03      	cmp	r2, #3
 8002426:	b2c9      	uxtb	r1, r1
 8002428:	b470      	push	{r4, r5, r6}
 800242a:	d808      	bhi.n	800243e <memset+0x1a>
 800242c:	b12a      	cbz	r2, 800243a <memset+0x16>
 800242e:	4603      	mov	r3, r0
 8002430:	1812      	adds	r2, r2, r0
 8002432:	f803 1b01 	strb.w	r1, [r3], #1
 8002436:	4293      	cmp	r3, r2
 8002438:	d1fb      	bne.n	8002432 <memset+0xe>
 800243a:	bc70      	pop	{r4, r5, r6}
 800243c:	4770      	bx	lr
 800243e:	1882      	adds	r2, r0, r2
 8002440:	4604      	mov	r4, r0
 8002442:	e001      	b.n	8002448 <memset+0x24>
 8002444:	f804 1b01 	strb.w	r1, [r4], #1
 8002448:	f014 0f03 	tst.w	r4, #3
 800244c:	d1fa      	bne.n	8002444 <memset+0x20>
 800244e:	f04f 3301 	mov.w	r3, #16843009	; 0x1010101
 8002452:	fb03 f301 	mul.w	r3, r3, r1
 8002456:	e01f      	b.n	8002498 <memset+0x74>
 8002458:	f844 3c40 	str.w	r3, [r4, #-64]
 800245c:	f844 3c3c 	str.w	r3, [r4, #-60]
 8002460:	f844 3c38 	str.w	r3, [r4, #-56]
 8002464:	f844 3c34 	str.w	r3, [r4, #-52]
 8002468:	f844 3c30 	str.w	r3, [r4, #-48]
 800246c:	f844 3c2c 	str.w	r3, [r4, #-44]
 8002470:	f844 3c28 	str.w	r3, [r4, #-40]
 8002474:	f844 3c24 	str.w	r3, [r4, #-36]
 8002478:	f844 3c20 	str.w	r3, [r4, #-32]
 800247c:	f844 3c1c 	str.w	r3, [r4, #-28]
 8002480:	f844 3c18 	str.w	r3, [r4, #-24]
 8002484:	f844 3c14 	str.w	r3, [r4, #-20]
 8002488:	f844 3c10 	str.w	r3, [r4, #-16]
 800248c:	f844 3c0c 	str.w	r3, [r4, #-12]
 8002490:	f844 3c08 	str.w	r3, [r4, #-8]
 8002494:	f844 3c04 	str.w	r3, [r4, #-4]
 8002498:	1b16      	subs	r6, r2, r4
 800249a:	4625      	mov	r5, r4
 800249c:	3440      	adds	r4, #64	; 0x40
 800249e:	2e3f      	cmp	r6, #63	; 0x3f
 80024a0:	dcda      	bgt.n	8002458 <memset+0x34>
 80024a2:	462c      	mov	r4, r5
 80024a4:	e007      	b.n	80024b6 <memset+0x92>
 80024a6:	f844 3c10 	str.w	r3, [r4, #-16]
 80024aa:	f844 3c0c 	str.w	r3, [r4, #-12]
 80024ae:	f844 3c08 	str.w	r3, [r4, #-8]
 80024b2:	f844 3c04 	str.w	r3, [r4, #-4]
 80024b6:	1b16      	subs	r6, r2, r4
 80024b8:	4625      	mov	r5, r4
 80024ba:	3410      	adds	r4, #16
 80024bc:	2e0f      	cmp	r6, #15
 80024be:	dcf2      	bgt.n	80024a6 <memset+0x82>
 80024c0:	e001      	b.n	80024c6 <memset+0xa2>
 80024c2:	f845 3b04 	str.w	r3, [r5], #4
 80024c6:	1b54      	subs	r4, r2, r5
 80024c8:	2c03      	cmp	r4, #3
 80024ca:	dcfa      	bgt.n	80024c2 <memset+0x9e>
 80024cc:	e001      	b.n	80024d2 <memset+0xae>
 80024ce:	f805 1b01 	strb.w	r1, [r5], #1
 80024d2:	4295      	cmp	r5, r2
 80024d4:	d3fb      	bcc.n	80024ce <memset+0xaa>
 80024d6:	e7b0      	b.n	800243a <memset+0x16>

080024d8 <strcmp>:
 80024d8:	ea80 0201 	eor.w	r2, r0, r1
 80024dc:	f012 0f03 	tst.w	r2, #3
 80024e0:	d13a      	bne.n	8002558 <strcmp_unaligned>
 80024e2:	f010 0203 	ands.w	r2, r0, #3
 80024e6:	f020 0003 	bic.w	r0, r0, #3
 80024ea:	f021 0103 	bic.w	r1, r1, #3
 80024ee:	f850 cb04 	ldr.w	ip, [r0], #4
 80024f2:	bf08      	it	eq
 80024f4:	f851 3b04 	ldreq.w	r3, [r1], #4
 80024f8:	d00d      	beq.n	8002516 <strcmp+0x3e>
 80024fa:	f082 0203 	eor.w	r2, r2, #3
 80024fe:	ea4f 02c2 	mov.w	r2, r2, lsl #3
 8002502:	f06f 437f 	mvn.w	r3, #4278190080	; 0xff000000
 8002506:	fa23 f202 	lsr.w	r2, r3, r2
 800250a:	f851 3b04 	ldr.w	r3, [r1], #4
 800250e:	ea4c 0c02 	orr.w	ip, ip, r2
 8002512:	ea43 0302 	orr.w	r3, r3, r2
 8002516:	bf00      	nop
 8002518:	f1ac 3201 	sub.w	r2, ip, #16843009	; 0x1010101
 800251c:	459c      	cmp	ip, r3
 800251e:	bf01      	itttt	eq
 8002520:	ea22 020c 	biceq.w	r2, r2, ip
 8002524:	f012 3f80 	tsteq.w	r2, #2155905152	; 0x80808080
 8002528:	f850 cb04 	ldreq.w	ip, [r0], #4
 800252c:	f851 3b04 	ldreq.w	r3, [r1], #4
 8002530:	d0f2      	beq.n	8002518 <strcmp+0x40>
 8002532:	ea4f 600c 	mov.w	r0, ip, lsl #24
 8002536:	ea4f 2c1c 	mov.w	ip, ip, lsr #8
 800253a:	2801      	cmp	r0, #1
 800253c:	bf28      	it	cs
 800253e:	ebb0 6f03 	cmpcs.w	r0, r3, lsl #24
 8002542:	bf08      	it	eq
 8002544:	0a1b      	lsreq	r3, r3, #8
 8002546:	d0f4      	beq.n	8002532 <strcmp+0x5a>
 8002548:	f003 03ff 	and.w	r3, r3, #255	; 0xff
 800254c:	ea4f 6010 	mov.w	r0, r0, lsr #24
 8002550:	eba0 0003 	sub.w	r0, r0, r3
 8002554:	4770      	bx	lr
 8002556:	bf00      	nop

08002558 <strcmp_unaligned>:
 8002558:	f010 0f03 	tst.w	r0, #3
 800255c:	d00a      	beq.n	8002574 <strcmp_unaligned+0x1c>
 800255e:	f810 2b01 	ldrb.w	r2, [r0], #1
 8002562:	f811 3b01 	ldrb.w	r3, [r1], #1
 8002566:	2a01      	cmp	r2, #1
 8002568:	bf28      	it	cs
 800256a:	429a      	cmpcs	r2, r3
 800256c:	d0f4      	beq.n	8002558 <strcmp_unaligned>
 800256e:	eba2 0003 	sub.w	r0, r2, r3
 8002572:	4770      	bx	lr
 8002574:	f84d 5d04 	str.w	r5, [sp, #-4]!
 8002578:	f84d 4d04 	str.w	r4, [sp, #-4]!
 800257c:	f04f 0201 	mov.w	r2, #1
 8002580:	ea42 2202 	orr.w	r2, r2, r2, lsl #8
 8002584:	ea42 4202 	orr.w	r2, r2, r2, lsl #16
 8002588:	f001 0c03 	and.w	ip, r1, #3
 800258c:	f021 0103 	bic.w	r1, r1, #3
 8002590:	f850 4b04 	ldr.w	r4, [r0], #4
 8002594:	f851 5b04 	ldr.w	r5, [r1], #4
 8002598:	f1bc 0f02 	cmp.w	ip, #2
 800259c:	d026      	beq.n	80025ec <strcmp_unaligned+0x94>
 800259e:	d84b      	bhi.n	8002638 <strcmp_unaligned+0xe0>
 80025a0:	f024 4c7f 	bic.w	ip, r4, #4278190080	; 0xff000000
 80025a4:	ebbc 2f15 	cmp.w	ip, r5, lsr #8
 80025a8:	eba4 0302 	sub.w	r3, r4, r2
 80025ac:	ea23 0304 	bic.w	r3, r3, r4
 80025b0:	d10d      	bne.n	80025ce <strcmp_unaligned+0x76>
 80025b2:	ea13 13c2 	ands.w	r3, r3, r2, lsl #7
 80025b6:	bf08      	it	eq
 80025b8:	f851 5b04 	ldreq.w	r5, [r1], #4
 80025bc:	d10a      	bne.n	80025d4 <strcmp_unaligned+0x7c>
 80025be:	ea8c 0c04 	eor.w	ip, ip, r4
 80025c2:	ebbc 6f05 	cmp.w	ip, r5, lsl #24
 80025c6:	d10c      	bne.n	80025e2 <strcmp_unaligned+0x8a>
 80025c8:	f850 4b04 	ldr.w	r4, [r0], #4
 80025cc:	e7e8      	b.n	80025a0 <strcmp_unaligned+0x48>
 80025ce:	ea4f 2515 	mov.w	r5, r5, lsr #8
 80025d2:	e05c      	b.n	800268e <strcmp_unaligned+0x136>
 80025d4:	f033 437f 	bics.w	r3, r3, #4278190080	; 0xff000000
 80025d8:	d152      	bne.n	8002680 <strcmp_unaligned+0x128>
 80025da:	780d      	ldrb	r5, [r1, #0]
 80025dc:	ea4f 6c14 	mov.w	ip, r4, lsr #24
 80025e0:	e055      	b.n	800268e <strcmp_unaligned+0x136>
 80025e2:	ea4f 6c14 	mov.w	ip, r4, lsr #24
 80025e6:	f005 05ff 	and.w	r5, r5, #255	; 0xff
 80025ea:	e050      	b.n	800268e <strcmp_unaligned+0x136>
 80025ec:	ea4f 4c04 	mov.w	ip, r4, lsl #16
 80025f0:	eba4 0302 	sub.w	r3, r4, r2
 80025f4:	ea4f 4c1c 	mov.w	ip, ip, lsr #16
 80025f8:	ea23 0304 	bic.w	r3, r3, r4
 80025fc:	ebbc 4f15 	cmp.w	ip, r5, lsr #16
 8002600:	d117      	bne.n	8002632 <strcmp_unaligned+0xda>
 8002602:	ea13 13c2 	ands.w	r3, r3, r2, lsl #7
 8002606:	bf08      	it	eq
 8002608:	f851 5b04 	ldreq.w	r5, [r1], #4
 800260c:	d107      	bne.n	800261e <strcmp_unaligned+0xc6>
 800260e:	ea8c 0c04 	eor.w	ip, ip, r4
 8002612:	ebbc 4f05 	cmp.w	ip, r5, lsl #16
 8002616:	d108      	bne.n	800262a <strcmp_unaligned+0xd2>
 8002618:	f850 4b04 	ldr.w	r4, [r0], #4
 800261c:	e7e6      	b.n	80025ec <strcmp_unaligned+0x94>
 800261e:	041b      	lsls	r3, r3, #16
 8002620:	d12e      	bne.n	8002680 <strcmp_unaligned+0x128>
 8002622:	880d      	ldrh	r5, [r1, #0]
 8002624:	ea4f 4c14 	mov.w	ip, r4, lsr #16
 8002628:	e031      	b.n	800268e <strcmp_unaligned+0x136>
 800262a:	ea4f 4505 	mov.w	r5, r5, lsl #16
 800262e:	ea4f 4c14 	mov.w	ip, r4, lsr #16
 8002632:	ea4f 4515 	mov.w	r5, r5, lsr #16
 8002636:	e02a      	b.n	800268e <strcmp_unaligned+0x136>
 8002638:	f004 0cff 	and.w	ip, r4, #255	; 0xff
 800263c:	ebbc 6f15 	cmp.w	ip, r5, lsr #24
 8002640:	eba4 0302 	sub.w	r3, r4, r2
 8002644:	ea23 0304 	bic.w	r3, r3, r4
 8002648:	d10d      	bne.n	8002666 <strcmp_unaligned+0x10e>
 800264a:	ea13 13c2 	ands.w	r3, r3, r2, lsl #7
 800264e:	bf08      	it	eq
 8002650:	f851 5b04 	ldreq.w	r5, [r1], #4
 8002654:	d10a      	bne.n	800266c <strcmp_unaligned+0x114>
 8002656:	ea8c 0c04 	eor.w	ip, ip, r4
 800265a:	ebbc 2f05 	cmp.w	ip, r5, lsl #8
 800265e:	d10a      	bne.n	8002676 <strcmp_unaligned+0x11e>
 8002660:	f850 4b04 	ldr.w	r4, [r0], #4
 8002664:	e7e8      	b.n	8002638 <strcmp_unaligned+0xe0>
 8002666:	ea4f 6515 	mov.w	r5, r5, lsr #24
 800266a:	e010      	b.n	800268e <strcmp_unaligned+0x136>
 800266c:	f014 0fff 	tst.w	r4, #255	; 0xff
 8002670:	d006      	beq.n	8002680 <strcmp_unaligned+0x128>
 8002672:	f851 5b04 	ldr.w	r5, [r1], #4
 8002676:	ea4f 2c14 	mov.w	ip, r4, lsr #8
 800267a:	f025 457f 	bic.w	r5, r5, #4278190080	; 0xff000000
 800267e:	e006      	b.n	800268e <strcmp_unaligned+0x136>
 8002680:	f04f 0000 	mov.w	r0, #0
 8002684:	f85d 4b04 	ldr.w	r4, [sp], #4
 8002688:	f85d 5b04 	ldr.w	r5, [sp], #4
 800268c:	4770      	bx	lr
 800268e:	f00c 02ff 	and.w	r2, ip, #255	; 0xff
 8002692:	f005 00ff 	and.w	r0, r5, #255	; 0xff
 8002696:	2801      	cmp	r0, #1
 8002698:	bf28      	it	cs
 800269a:	4290      	cmpcs	r0, r2
 800269c:	bf04      	itt	eq
 800269e:	ea4f 2c1c 	moveq.w	ip, ip, lsr #8
 80026a2:	0a2d      	lsreq	r5, r5, #8
 80026a4:	d0f3      	beq.n	800268e <strcmp_unaligned+0x136>
 80026a6:	eba2 0000 	sub.w	r0, r2, r0
 80026aa:	f85d 4b04 	ldr.w	r4, [sp], #4
 80026ae:	f85d 5b04 	ldr.w	r5, [sp], #4
 80026b2:	4770      	bx	lr

080026b4 <strlen>:
 80026b4:	f020 0103 	bic.w	r1, r0, #3
 80026b8:	f010 0003 	ands.w	r0, r0, #3
 80026bc:	f1c0 0000 	rsb	r0, r0, #0
 80026c0:	f851 3b04 	ldr.w	r3, [r1], #4
 80026c4:	f100 0c04 	add.w	ip, r0, #4
 80026c8:	ea4f 0ccc 	mov.w	ip, ip, lsl #3
 80026cc:	f06f 0200 	mvn.w	r2, #0
 80026d0:	bf1c      	itt	ne
 80026d2:	fa22 f20c 	lsrne.w	r2, r2, ip
 80026d6:	4313      	orrne	r3, r2
 80026d8:	f04f 0c01 	mov.w	ip, #1
 80026dc:	ea4c 2c0c 	orr.w	ip, ip, ip, lsl #8
 80026e0:	ea4c 4c0c 	orr.w	ip, ip, ip, lsl #16
 80026e4:	eba3 020c 	sub.w	r2, r3, ip
 80026e8:	ea22 0203 	bic.w	r2, r2, r3
 80026ec:	ea12 12cc 	ands.w	r2, r2, ip, lsl #7
 80026f0:	bf04      	itt	eq
 80026f2:	f851 3b04 	ldreq.w	r3, [r1], #4
 80026f6:	3004      	addeq	r0, #4
 80026f8:	d0f4      	beq.n	80026e4 <strlen+0x30>
 80026fa:	f013 0fff 	tst.w	r3, #255	; 0xff
 80026fe:	bf1f      	itttt	ne
 8002700:	3001      	addne	r0, #1
 8002702:	f413 4f7f 	tstne.w	r3, #65280	; 0xff00
 8002706:	3001      	addne	r0, #1
 8002708:	f413 0f7f 	tstne.w	r3, #16711680	; 0xff0000
 800270c:	bf18      	it	ne
 800270e:	3001      	addne	r0, #1
 8002710:	4770      	bx	lr
 8002712:	bf00      	nop

08002714 <critical_factorization>:
 8002714:	2301      	movs	r3, #1
 8002716:	e92d 07f0 	stmdb	sp!, {r4, r5, r6, r7, r8, r9, sl}
 800271a:	461d      	mov	r5, r3
 800271c:	2600      	movs	r6, #0
 800271e:	f04f 37ff 	mov.w	r7, #4294967295
 8002722:	19ac      	adds	r4, r5, r6
 8002724:	eb00 0c07 	add.w	ip, r0, r7
 8002728:	428c      	cmp	r4, r1
 800272a:	d20d      	bcs.n	8002748 <critical_factorization+0x34>
 800272c:	f81c c005 	ldrb.w	ip, [ip, r5]
 8002730:	f810 8004 	ldrb.w	r8, [r0, r4]
 8002734:	45e0      	cmp	r8, ip
 8002736:	d22e      	bcs.n	8002796 <critical_factorization+0x82>
 8002738:	2501      	movs	r5, #1
 800273a:	4626      	mov	r6, r4
 800273c:	1be3      	subs	r3, r4, r7
 800273e:	19ac      	adds	r4, r5, r6
 8002740:	428c      	cmp	r4, r1
 8002742:	eb00 0c07 	add.w	ip, r0, r7
 8002746:	d3f1      	bcc.n	800272c <critical_factorization+0x18>
 8002748:	f04f 0901 	mov.w	r9, #1
 800274c:	2600      	movs	r6, #0
 800274e:	464d      	mov	r5, r9
 8002750:	f04f 3cff 	mov.w	ip, #4294967295
 8002754:	6013      	str	r3, [r2, #0]
 8002756:	19ac      	adds	r4, r5, r6
 8002758:	eb00 080c 	add.w	r8, r0, ip
 800275c:	42a1      	cmp	r1, r4
 800275e:	d90e      	bls.n	800277e <critical_factorization+0x6a>
 8002760:	f818 8005 	ldrb.w	r8, [r8, r5]
 8002764:	f810 a004 	ldrb.w	sl, [r0, r4]
 8002768:	45c2      	cmp	sl, r8
 800276a:	d91a      	bls.n	80027a2 <critical_factorization+0x8e>
 800276c:	2501      	movs	r5, #1
 800276e:	4626      	mov	r6, r4
 8002770:	ebcc 0904 	rsb	r9, ip, r4
 8002774:	19ac      	adds	r4, r5, r6
 8002776:	42a1      	cmp	r1, r4
 8002778:	eb00 080c 	add.w	r8, r0, ip
 800277c:	d8f0      	bhi.n	8002760 <critical_factorization+0x4c>
 800277e:	f10c 0001 	add.w	r0, ip, #1
 8002782:	3701      	adds	r7, #1
 8002784:	42b8      	cmp	r0, r7
 8002786:	bf3c      	itt	cc
 8002788:	4699      	movcc	r9, r3
 800278a:	4638      	movcc	r0, r7
 800278c:	f8c2 9000 	str.w	r9, [r2]
 8002790:	e8bd 07f0 	ldmia.w	sp!, {r4, r5, r6, r7, r8, r9, sl}
 8002794:	4770      	bx	lr
 8002796:	d00b      	beq.n	80027b0 <critical_factorization+0x9c>
 8002798:	2301      	movs	r3, #1
 800279a:	4637      	mov	r7, r6
 800279c:	461d      	mov	r5, r3
 800279e:	18f6      	adds	r6, r6, r3
 80027a0:	e7bf      	b.n	8002722 <critical_factorization+0xe>
 80027a2:	d009      	beq.n	80027b8 <critical_factorization+0xa4>
 80027a4:	f04f 0901 	mov.w	r9, #1
 80027a8:	46b4      	mov	ip, r6
 80027aa:	464d      	mov	r5, r9
 80027ac:	444e      	add	r6, r9
 80027ae:	e7d2      	b.n	8002756 <critical_factorization+0x42>
 80027b0:	429d      	cmp	r5, r3
 80027b2:	d005      	beq.n	80027c0 <critical_factorization+0xac>
 80027b4:	3501      	adds	r5, #1
 80027b6:	e7b4      	b.n	8002722 <critical_factorization+0xe>
 80027b8:	454d      	cmp	r5, r9
 80027ba:	d005      	beq.n	80027c8 <critical_factorization+0xb4>
 80027bc:	3501      	adds	r5, #1
 80027be:	e7ca      	b.n	8002756 <critical_factorization+0x42>
 80027c0:	462b      	mov	r3, r5
 80027c2:	4626      	mov	r6, r4
 80027c4:	2501      	movs	r5, #1
 80027c6:	e7ac      	b.n	8002722 <critical_factorization+0xe>
 80027c8:	46a9      	mov	r9, r5
 80027ca:	4626      	mov	r6, r4
 80027cc:	2501      	movs	r5, #1
 80027ce:	e7c2      	b.n	8002756 <critical_factorization+0x42>

080027d0 <two_way_long_needle>:
 80027d0:	e92d 4ff0 	stmdb	sp!, {r4, r5, r6, r7, r8, r9, sl, fp, lr}
 80027d4:	f5ad 6d82 	sub.w	sp, sp, #1040	; 0x410
 80027d8:	b081      	sub	sp, #4
 80027da:	4614      	mov	r4, r2
 80027dc:	4607      	mov	r7, r0
 80027de:	4610      	mov	r0, r2
 80027e0:	f50d 6280 	add.w	r2, sp, #1024	; 0x400
 80027e4:	468b      	mov	fp, r1
 80027e6:	320c      	adds	r2, #12
 80027e8:	4619      	mov	r1, r3
 80027ea:	461d      	mov	r5, r3
 80027ec:	f7ff ff92 	bl	8002714 <critical_factorization>
 80027f0:	ae03      	add	r6, sp, #12
 80027f2:	a904      	add	r1, sp, #16
 80027f4:	f501 727e 	add.w	r2, r1, #1016	; 0x3f8
 80027f8:	1f33      	subs	r3, r6, #4
 80027fa:	9000      	str	r0, [sp, #0]
 80027fc:	f843 5f04 	str.w	r5, [r3, #4]!
 8002800:	4293      	cmp	r3, r2
 8002802:	d1fb      	bne.n	80027fc <two_way_long_needle+0x2c>
 8002804:	b14d      	cbz	r5, 800281a <two_way_long_needle+0x4a>
 8002806:	1e68      	subs	r0, r5, #1
 8002808:	2300      	movs	r3, #0
 800280a:	5ce2      	ldrb	r2, [r4, r3]
 800280c:	1ac1      	subs	r1, r0, r3
 800280e:	3301      	adds	r3, #1
 8002810:	ae03      	add	r6, sp, #12
 8002812:	42ab      	cmp	r3, r5
 8002814:	f846 1022 	str.w	r1, [r6, r2, lsl #2]
 8002818:	d1f7      	bne.n	800280a <two_way_long_needle+0x3a>
 800281a:	f8dd 140c 	ldr.w	r1, [sp, #1036]	; 0x40c
 800281e:	4620      	mov	r0, r4
 8002820:	9a00      	ldr	r2, [sp, #0]
 8002822:	1861      	adds	r1, r4, r1
 8002824:	f000 fafe 	bl	8002e24 <memcmp>
 8002828:	2800      	cmp	r0, #0
 800282a:	d177      	bne.n	800291c <two_way_long_needle+0x14c>
 800282c:	9900      	ldr	r1, [sp, #0]
 800282e:	4681      	mov	r9, r0
 8002830:	f105 38ff 	add.w	r8, r5, #4294967295
 8002834:	4606      	mov	r6, r0
 8002836:	f1c1 0201 	rsb	r2, r1, #1
 800283a:	9201      	str	r2, [sp, #4]
 800283c:	465a      	mov	r2, fp
 800283e:	46ab      	mov	fp, r5
 8002840:	eb09 050b 	add.w	r5, r9, fp
 8002844:	f101 3aff 	add.w	sl, r1, #4294967295
 8002848:	18b8      	adds	r0, r7, r2
 800284a:	2100      	movs	r1, #0
 800284c:	1aaa      	subs	r2, r5, r2
 800284e:	f000 faa3 	bl	8002d98 <memchr>
 8002852:	2800      	cmp	r0, #0
 8002854:	d14f      	bne.n	80028f6 <two_way_long_needle+0x126>
 8002856:	2d00      	cmp	r5, #0
 8002858:	f000 80c0 	beq.w	80029dc <two_way_long_needle+0x20c>
 800285c:	197b      	adds	r3, r7, r5
 800285e:	a903      	add	r1, sp, #12
 8002860:	f813 3c01 	ldrb.w	r3, [r3, #-1]
 8002864:	f851 3023 	ldr.w	r3, [r1, r3, lsl #2]
 8002868:	2b00      	cmp	r3, #0
 800286a:	d14c      	bne.n	8002906 <two_way_long_needle+0x136>
 800286c:	9b00      	ldr	r3, [sp, #0]
 800286e:	429e      	cmp	r6, r3
 8002870:	bf28      	it	cs
 8002872:	4633      	movcs	r3, r6
 8002874:	4598      	cmp	r8, r3
 8002876:	d90f      	bls.n	8002898 <two_way_long_needle+0xc8>
 8002878:	eb03 0109 	add.w	r1, r3, r9
 800287c:	5ce0      	ldrb	r0, [r4, r3]
 800287e:	187a      	adds	r2, r7, r1
 8002880:	5c79      	ldrb	r1, [r7, r1]
 8002882:	4288      	cmp	r0, r1
 8002884:	d005      	beq.n	8002892 <two_way_long_needle+0xc2>
 8002886:	e038      	b.n	80028fa <two_way_long_needle+0x12a>
 8002888:	f812 1f01 	ldrb.w	r1, [r2, #1]!
 800288c:	5ce0      	ldrb	r0, [r4, r3]
 800288e:	4288      	cmp	r0, r1
 8002890:	d133      	bne.n	80028fa <two_way_long_needle+0x12a>
 8002892:	3301      	adds	r3, #1
 8002894:	4598      	cmp	r8, r3
 8002896:	d8f7      	bhi.n	8002888 <two_way_long_needle+0xb8>
 8002898:	9a00      	ldr	r2, [sp, #0]
 800289a:	4296      	cmp	r6, r2
 800289c:	f080 80a4 	bcs.w	80029e8 <two_way_long_needle+0x218>
 80028a0:	eb07 0209 	add.w	r2, r7, r9
 80028a4:	f814 100a 	ldrb.w	r1, [r4, sl]
 80028a8:	4653      	mov	r3, sl
 80028aa:	f812 200a 	ldrb.w	r2, [r2, sl]
 80028ae:	4291      	cmp	r1, r2
 80028b0:	bf04      	itt	eq
 80028b2:	eb0a 0109 	addeq.w	r1, sl, r9
 80028b6:	1879      	addeq	r1, r7, r1
 80028b8:	d007      	beq.n	80028ca <two_way_long_needle+0xfa>
 80028ba:	e095      	b.n	80029e8 <two_way_long_needle+0x218>
 80028bc:	f814 c002 	ldrb.w	ip, [r4, r2]
 80028c0:	f811 0d01 	ldrb.w	r0, [r1, #-1]!
 80028c4:	4584      	cmp	ip, r0
 80028c6:	d103      	bne.n	80028d0 <two_way_long_needle+0x100>
 80028c8:	4613      	mov	r3, r2
 80028ca:	1e5a      	subs	r2, r3, #1
 80028cc:	42b3      	cmp	r3, r6
 80028ce:	d1f5      	bne.n	80028bc <two_way_long_needle+0xec>
 80028d0:	3601      	adds	r6, #1
 80028d2:	429e      	cmp	r6, r3
 80028d4:	f200 808d 	bhi.w	80029f2 <two_way_long_needle+0x222>
 80028d8:	f8dd 640c 	ldr.w	r6, [sp, #1036]	; 0x40c
 80028dc:	462a      	mov	r2, r5
 80028de:	44b1      	add	r9, r6
 80028e0:	ebc6 060b 	rsb	r6, r6, fp
 80028e4:	eb09 050b 	add.w	r5, r9, fp
 80028e8:	18b8      	adds	r0, r7, r2
 80028ea:	2100      	movs	r1, #0
 80028ec:	1aaa      	subs	r2, r5, r2
 80028ee:	f000 fa53 	bl	8002d98 <memchr>
 80028f2:	2800      	cmp	r0, #0
 80028f4:	d0af      	beq.n	8002856 <two_way_long_needle+0x86>
 80028f6:	2000      	movs	r0, #0
 80028f8:	e071      	b.n	80029de <two_way_long_needle+0x20e>
 80028fa:	9a01      	ldr	r2, [sp, #4]
 80028fc:	2600      	movs	r6, #0
 80028fe:	4491      	add	r9, r2
 8002900:	4499      	add	r9, r3
 8002902:	462a      	mov	r2, r5
 8002904:	e7ee      	b.n	80028e4 <two_way_long_needle+0x114>
 8002906:	2e00      	cmp	r6, #0
 8002908:	d0fa      	beq.n	8002900 <two_way_long_needle+0x130>
 800290a:	f8dd 240c 	ldr.w	r2, [sp, #1036]	; 0x40c
 800290e:	4293      	cmp	r3, r2
 8002910:	bf3c      	itt	cc
 8002912:	ebc2 030b 	rsbcc	r3, r2, fp
 8002916:	4606      	movcc	r6, r0
 8002918:	4499      	add	r9, r3
 800291a:	e7f2      	b.n	8002902 <two_way_long_needle+0x132>
 800291c:	9e00      	ldr	r6, [sp, #0]
 800291e:	f04f 0800 	mov.w	r8, #0
 8002922:	9900      	ldr	r1, [sp, #0]
 8002924:	1bab      	subs	r3, r5, r6
 8002926:	42b3      	cmp	r3, r6
 8002928:	bf38      	it	cc
 800292a:	4633      	movcc	r3, r6
 800292c:	f1c1 0201 	rsb	r2, r1, #1
 8002930:	1e6e      	subs	r6, r5, #1
 8002932:	9201      	str	r2, [sp, #4]
 8002934:	f101 3aff 	add.w	sl, r1, #4294967295
 8002938:	465a      	mov	r2, fp
 800293a:	4689      	mov	r9, r1
 800293c:	46ab      	mov	fp, r5
 800293e:	3301      	adds	r3, #1
 8002940:	f8cd 340c 	str.w	r3, [sp, #1036]	; 0x40c
 8002944:	eb08 050b 	add.w	r5, r8, fp
 8002948:	18b8      	adds	r0, r7, r2
 800294a:	2100      	movs	r1, #0
 800294c:	1aaa      	subs	r2, r5, r2
 800294e:	f000 fa23 	bl	8002d98 <memchr>
 8002952:	2800      	cmp	r0, #0
 8002954:	d1cf      	bne.n	80028f6 <two_way_long_needle+0x126>
 8002956:	2d00      	cmp	r5, #0
 8002958:	d040      	beq.n	80029dc <two_way_long_needle+0x20c>
 800295a:	197b      	adds	r3, r7, r5
 800295c:	a903      	add	r1, sp, #12
 800295e:	f813 3c01 	ldrb.w	r3, [r3, #-1]
 8002962:	f851 3023 	ldr.w	r3, [r1, r3, lsl #2]
 8002966:	2b00      	cmp	r3, #0
 8002968:	d130      	bne.n	80029cc <two_way_long_needle+0x1fc>
 800296a:	45b1      	cmp	r9, r6
 800296c:	d213      	bcs.n	8002996 <two_way_long_needle+0x1c6>
 800296e:	eb08 0309 	add.w	r3, r8, r9
 8002972:	f814 1009 	ldrb.w	r1, [r4, r9]
 8002976:	18fa      	adds	r2, r7, r3
 8002978:	5cfb      	ldrb	r3, [r7, r3]
 800297a:	4299      	cmp	r1, r3
 800297c:	bf18      	it	ne
 800297e:	464b      	movne	r3, r9
 8002980:	d127      	bne.n	80029d2 <two_way_long_needle+0x202>
 8002982:	464b      	mov	r3, r9
 8002984:	e004      	b.n	8002990 <two_way_long_needle+0x1c0>
 8002986:	f812 1f01 	ldrb.w	r1, [r2, #1]!
 800298a:	5ce0      	ldrb	r0, [r4, r3]
 800298c:	4288      	cmp	r0, r1
 800298e:	d120      	bne.n	80029d2 <two_way_long_needle+0x202>
 8002990:	3301      	adds	r3, #1
 8002992:	42b3      	cmp	r3, r6
 8002994:	d3f7      	bcc.n	8002986 <two_way_long_needle+0x1b6>
 8002996:	f1ba 3fff 	cmp.w	sl, #4294967295
 800299a:	4653      	mov	r3, sl
 800299c:	d02c      	beq.n	80029f8 <two_way_long_needle+0x228>
 800299e:	eb07 0c08 	add.w	ip, r7, r8
 80029a2:	f814 100a 	ldrb.w	r1, [r4, sl]
 80029a6:	f81c 200a 	ldrb.w	r2, [ip, sl]
 80029aa:	4291      	cmp	r1, r2
 80029ac:	d10c      	bne.n	80029c8 <two_way_long_needle+0x1f8>
 80029ae:	eb0a 0208 	add.w	r2, sl, r8
 80029b2:	18ba      	adds	r2, r7, r2
 80029b4:	e004      	b.n	80029c0 <two_way_long_needle+0x1f0>
 80029b6:	5ce0      	ldrb	r0, [r4, r3]
 80029b8:	f812 1d01 	ldrb.w	r1, [r2, #-1]!
 80029bc:	4288      	cmp	r0, r1
 80029be:	d103      	bne.n	80029c8 <two_way_long_needle+0x1f8>
 80029c0:	3b01      	subs	r3, #1
 80029c2:	d2f8      	bcs.n	80029b6 <two_way_long_needle+0x1e6>
 80029c4:	4660      	mov	r0, ip
 80029c6:	e00a      	b.n	80029de <two_way_long_needle+0x20e>
 80029c8:	f8dd 340c 	ldr.w	r3, [sp, #1036]	; 0x40c
 80029cc:	4498      	add	r8, r3
 80029ce:	462a      	mov	r2, r5
 80029d0:	e7b8      	b.n	8002944 <two_way_long_needle+0x174>
 80029d2:	9901      	ldr	r1, [sp, #4]
 80029d4:	462a      	mov	r2, r5
 80029d6:	4488      	add	r8, r1
 80029d8:	4498      	add	r8, r3
 80029da:	e7b3      	b.n	8002944 <two_way_long_needle+0x174>
 80029dc:	4628      	mov	r0, r5
 80029de:	b005      	add	sp, #20
 80029e0:	f50d 6d80 	add.w	sp, sp, #1024	; 0x400
 80029e4:	e8bd 8ff0 	ldmia.w	sp!, {r4, r5, r6, r7, r8, r9, sl, fp, pc}
 80029e8:	9b00      	ldr	r3, [sp, #0]
 80029ea:	3601      	adds	r6, #1
 80029ec:	429e      	cmp	r6, r3
 80029ee:	f67f af73 	bls.w	80028d8 <two_way_long_needle+0x108>
 80029f2:	eb07 0009 	add.w	r0, r7, r9
 80029f6:	e7f2      	b.n	80029de <two_way_long_needle+0x20e>
 80029f8:	eb07 0c08 	add.w	ip, r7, r8
 80029fc:	4660      	mov	r0, ip
 80029fe:	e7ee      	b.n	80029de <two_way_long_needle+0x20e>

08002a00 <strstr>:
 8002a00:	e92d 4ff0 	stmdb	sp!, {r4, r5, r6, r7, r8, r9, sl, fp, lr}
 8002a04:	4683      	mov	fp, r0
 8002a06:	7803      	ldrb	r3, [r0, #0]
 8002a08:	b085      	sub	sp, #20
 8002a0a:	460c      	mov	r4, r1
 8002a0c:	2b00      	cmp	r3, #0
 8002a0e:	f000 80f9 	beq.w	8002c04 <strstr+0x204>
 8002a12:	780a      	ldrb	r2, [r1, #0]
 8002a14:	b1a2      	cbz	r2, 8002a40 <strstr+0x40>
 8002a16:	4606      	mov	r6, r0
 8002a18:	3101      	adds	r1, #1
 8002a1a:	2001      	movs	r0, #1
 8002a1c:	e002      	b.n	8002a24 <strstr+0x24>
 8002a1e:	f811 2b01 	ldrb.w	r2, [r1], #1
 8002a22:	b18a      	cbz	r2, 8002a48 <strstr+0x48>
 8002a24:	4293      	cmp	r3, r2
 8002a26:	bf14      	ite	ne
 8002a28:	2000      	movne	r0, #0
 8002a2a:	f000 0001 	andeq.w	r0, r0, #1
 8002a2e:	f816 3f01 	ldrb.w	r3, [r6, #1]!
 8002a32:	460d      	mov	r5, r1
 8002a34:	2b00      	cmp	r3, #0
 8002a36:	d1f2      	bne.n	8002a1e <strstr+0x1e>
 8002a38:	782b      	ldrb	r3, [r5, #0]
 8002a3a:	b12b      	cbz	r3, 8002a48 <strstr+0x48>
 8002a3c:	f04f 0b00 	mov.w	fp, #0
 8002a40:	4658      	mov	r0, fp
 8002a42:	b005      	add	sp, #20
 8002a44:	e8bd 8ff0 	ldmia.w	sp!, {r4, r5, r6, r7, r8, r9, sl, fp, pc}
 8002a48:	2800      	cmp	r0, #0
 8002a4a:	d1f9      	bne.n	8002a40 <strstr+0x40>
 8002a4c:	f10b 0001 	add.w	r0, fp, #1
 8002a50:	7821      	ldrb	r1, [r4, #0]
 8002a52:	f000 fa19 	bl	8002e88 <strchr>
 8002a56:	1b2d      	subs	r5, r5, r4
 8002a58:	f1a5 0201 	sub.w	r2, r5, #1
 8002a5c:	4253      	negs	r3, r2
 8002a5e:	eb43 0302 	adc.w	r3, r3, r2
 8002a62:	2800      	cmp	r0, #0
 8002a64:	bf08      	it	eq
 8002a66:	f043 0301 	orreq.w	r3, r3, #1
 8002a6a:	4607      	mov	r7, r0
 8002a6c:	b983      	cbnz	r3, 8002a90 <strstr+0x90>
 8002a6e:	eb0b 0805 	add.w	r8, fp, r5
 8002a72:	4540      	cmp	r0, r8
 8002a74:	bf94      	ite	ls
 8002a76:	ebc0 0808 	rsbls	r8, r0, r8
 8002a7a:	f04f 0801 	movhi.w	r8, #1
 8002a7e:	2d1f      	cmp	r5, #31
 8002a80:	d908      	bls.n	8002a94 <strstr+0x94>
 8002a82:	4641      	mov	r1, r8
 8002a84:	4622      	mov	r2, r4
 8002a86:	462b      	mov	r3, r5
 8002a88:	f7ff fea2 	bl	80027d0 <two_way_long_needle>
 8002a8c:	4683      	mov	fp, r0
 8002a8e:	e7d7      	b.n	8002a40 <strstr+0x40>
 8002a90:	4683      	mov	fp, r0
 8002a92:	e7d5      	b.n	8002a40 <strstr+0x40>
 8002a94:	4629      	mov	r1, r5
 8002a96:	aa03      	add	r2, sp, #12
 8002a98:	4620      	mov	r0, r4
 8002a9a:	f7ff fe3b 	bl	8002714 <critical_factorization>
 8002a9e:	9903      	ldr	r1, [sp, #12]
 8002aa0:	1861      	adds	r1, r4, r1
 8002aa2:	4681      	mov	r9, r0
 8002aa4:	4620      	mov	r0, r4
 8002aa6:	464a      	mov	r2, r9
 8002aa8:	f000 f9bc 	bl	8002e24 <memcmp>
 8002aac:	2800      	cmp	r0, #0
 8002aae:	d14f      	bne.n	8002b50 <strstr+0x150>
 8002ab0:	f109 33ff 	add.w	r3, r9, #4294967295
 8002ab4:	f1c9 0201 	rsb	r2, r9, #1
 8002ab8:	4606      	mov	r6, r0
 8002aba:	9201      	str	r2, [sp, #4]
 8002abc:	4682      	mov	sl, r0
 8002abe:	4642      	mov	r2, r8
 8002ac0:	46c8      	mov	r8, r9
 8002ac2:	4699      	mov	r9, r3
 8002ac4:	eb0a 0b05 	add.w	fp, sl, r5
 8002ac8:	18b8      	adds	r0, r7, r2
 8002aca:	2100      	movs	r1, #0
 8002acc:	ebc2 020b 	rsb	r2, r2, fp
 8002ad0:	f000 f962 	bl	8002d98 <memchr>
 8002ad4:	2800      	cmp	r0, #0
 8002ad6:	d1b1      	bne.n	8002a3c <strstr+0x3c>
 8002ad8:	f1bb 0f00 	cmp.w	fp, #0
 8002adc:	d0b0      	beq.n	8002a40 <strstr+0x40>
 8002ade:	4546      	cmp	r6, r8
 8002ae0:	bf2c      	ite	cs
 8002ae2:	4633      	movcs	r3, r6
 8002ae4:	4643      	movcc	r3, r8
 8002ae6:	429d      	cmp	r5, r3
 8002ae8:	d90f      	bls.n	8002b0a <strstr+0x10a>
 8002aea:	eb03 010a 	add.w	r1, r3, sl
 8002aee:	5ce0      	ldrb	r0, [r4, r3]
 8002af0:	187a      	adds	r2, r7, r1
 8002af2:	5c79      	ldrb	r1, [r7, r1]
 8002af4:	4288      	cmp	r0, r1
 8002af6:	d005      	beq.n	8002b04 <strstr+0x104>
 8002af8:	e075      	b.n	8002be6 <strstr+0x1e6>
 8002afa:	f812 1f01 	ldrb.w	r1, [r2, #1]!
 8002afe:	5ce0      	ldrb	r0, [r4, r3]
 8002b00:	4288      	cmp	r0, r1
 8002b02:	d170      	bne.n	8002be6 <strstr+0x1e6>
 8002b04:	3301      	adds	r3, #1
 8002b06:	429d      	cmp	r5, r3
 8002b08:	d1f7      	bne.n	8002afa <strstr+0xfa>
 8002b0a:	45b0      	cmp	r8, r6
 8002b0c:	d97d      	bls.n	8002c0a <strstr+0x20a>
 8002b0e:	eb07 020a 	add.w	r2, r7, sl
 8002b12:	f814 1009 	ldrb.w	r1, [r4, r9]
 8002b16:	464b      	mov	r3, r9
 8002b18:	f812 2009 	ldrb.w	r2, [r2, r9]
 8002b1c:	4291      	cmp	r1, r2
 8002b1e:	bf02      	ittt	eq
 8002b20:	eb09 010a 	addeq.w	r1, r9, sl
 8002b24:	46ac      	moveq	ip, r5
 8002b26:	1879      	addeq	r1, r7, r1
 8002b28:	d006      	beq.n	8002b38 <strstr+0x138>
 8002b2a:	e06e      	b.n	8002c0a <strstr+0x20a>
 8002b2c:	5ca5      	ldrb	r5, [r4, r2]
 8002b2e:	f811 0d01 	ldrb.w	r0, [r1, #-1]!
 8002b32:	4285      	cmp	r5, r0
 8002b34:	d103      	bne.n	8002b3e <strstr+0x13e>
 8002b36:	4613      	mov	r3, r2
 8002b38:	1e5a      	subs	r2, r3, #1
 8002b3a:	42b3      	cmp	r3, r6
 8002b3c:	d1f6      	bne.n	8002b2c <strstr+0x12c>
 8002b3e:	4665      	mov	r5, ip
 8002b40:	3601      	adds	r6, #1
 8002b42:	429e      	cmp	r6, r3
 8002b44:	d867      	bhi.n	8002c16 <strstr+0x216>
 8002b46:	9e03      	ldr	r6, [sp, #12]
 8002b48:	465a      	mov	r2, fp
 8002b4a:	44b2      	add	sl, r6
 8002b4c:	1bae      	subs	r6, r5, r6
 8002b4e:	e7b9      	b.n	8002ac4 <strstr+0xc4>
 8002b50:	f1c9 0101 	rsb	r1, r9, #1
 8002b54:	ebc9 0305 	rsb	r3, r9, r5
 8002b58:	4642      	mov	r2, r8
 8002b5a:	2600      	movs	r6, #0
 8002b5c:	f109 3aff 	add.w	sl, r9, #4294967295
 8002b60:	4688      	mov	r8, r1
 8002b62:	454b      	cmp	r3, r9
 8002b64:	bf38      	it	cc
 8002b66:	464b      	movcc	r3, r9
 8002b68:	3301      	adds	r3, #1
 8002b6a:	9303      	str	r3, [sp, #12]
 8002b6c:	eb06 0b05 	add.w	fp, r6, r5
 8002b70:	18b8      	adds	r0, r7, r2
 8002b72:	2100      	movs	r1, #0
 8002b74:	ebc2 020b 	rsb	r2, r2, fp
 8002b78:	f000 f90e 	bl	8002d98 <memchr>
 8002b7c:	2800      	cmp	r0, #0
 8002b7e:	f47f af5d 	bne.w	8002a3c <strstr+0x3c>
 8002b82:	f1bb 0f00 	cmp.w	fp, #0
 8002b86:	f43f af5b 	beq.w	8002a40 <strstr+0x40>
 8002b8a:	454d      	cmp	r5, r9
 8002b8c:	d912      	bls.n	8002bb4 <strstr+0x1b4>
 8002b8e:	eb06 0309 	add.w	r3, r6, r9
 8002b92:	f814 1009 	ldrb.w	r1, [r4, r9]
 8002b96:	18fa      	adds	r2, r7, r3
 8002b98:	5cfb      	ldrb	r3, [r7, r3]
 8002b9a:	4299      	cmp	r1, r3
 8002b9c:	bf08      	it	eq
 8002b9e:	464b      	moveq	r3, r9
 8002ba0:	d005      	beq.n	8002bae <strstr+0x1ae>
 8002ba2:	e026      	b.n	8002bf2 <strstr+0x1f2>
 8002ba4:	f812 1f01 	ldrb.w	r1, [r2, #1]!
 8002ba8:	5ce0      	ldrb	r0, [r4, r3]
 8002baa:	4288      	cmp	r0, r1
 8002bac:	d122      	bne.n	8002bf4 <strstr+0x1f4>
 8002bae:	3301      	adds	r3, #1
 8002bb0:	429d      	cmp	r5, r3
 8002bb2:	d1f7      	bne.n	8002ba4 <strstr+0x1a4>
 8002bb4:	f1ba 3fff 	cmp.w	sl, #4294967295
 8002bb8:	4653      	mov	r3, sl
 8002bba:	d028      	beq.n	8002c0e <strstr+0x20e>
 8002bbc:	eb07 0c06 	add.w	ip, r7, r6
 8002bc0:	f814 100a 	ldrb.w	r1, [r4, sl]
 8002bc4:	f81c 200a 	ldrb.w	r2, [ip, sl]
 8002bc8:	4291      	cmp	r1, r2
 8002bca:	d117      	bne.n	8002bfc <strstr+0x1fc>
 8002bcc:	eb0a 0206 	add.w	r2, sl, r6
 8002bd0:	18ba      	adds	r2, r7, r2
 8002bd2:	e004      	b.n	8002bde <strstr+0x1de>
 8002bd4:	5ce0      	ldrb	r0, [r4, r3]
 8002bd6:	f812 1d01 	ldrb.w	r1, [r2, #-1]!
 8002bda:	4288      	cmp	r0, r1
 8002bdc:	d10e      	bne.n	8002bfc <strstr+0x1fc>
 8002bde:	3b01      	subs	r3, #1
 8002be0:	d2f8      	bcs.n	8002bd4 <strstr+0x1d4>
 8002be2:	46e3      	mov	fp, ip
 8002be4:	e72c      	b.n	8002a40 <strstr+0x40>
 8002be6:	9a01      	ldr	r2, [sp, #4]
 8002be8:	2600      	movs	r6, #0
 8002bea:	4492      	add	sl, r2
 8002bec:	465a      	mov	r2, fp
 8002bee:	449a      	add	sl, r3
 8002bf0:	e768      	b.n	8002ac4 <strstr+0xc4>
 8002bf2:	464b      	mov	r3, r9
 8002bf4:	4446      	add	r6, r8
 8002bf6:	465a      	mov	r2, fp
 8002bf8:	18f6      	adds	r6, r6, r3
 8002bfa:	e7b7      	b.n	8002b6c <strstr+0x16c>
 8002bfc:	9b03      	ldr	r3, [sp, #12]
 8002bfe:	465a      	mov	r2, fp
 8002c00:	18f6      	adds	r6, r6, r3
 8002c02:	e7b3      	b.n	8002b6c <strstr+0x16c>
 8002c04:	460d      	mov	r5, r1
 8002c06:	2001      	movs	r0, #1
 8002c08:	e716      	b.n	8002a38 <strstr+0x38>
 8002c0a:	4643      	mov	r3, r8
 8002c0c:	e798      	b.n	8002b40 <strstr+0x140>
 8002c0e:	eb07 0c06 	add.w	ip, r7, r6
 8002c12:	46e3      	mov	fp, ip
 8002c14:	e714      	b.n	8002a40 <strstr+0x40>
 8002c16:	eb07 0b0a 	add.w	fp, r7, sl
 8002c1a:	e711      	b.n	8002a40 <strstr+0x40>

08002c1c <_strtol_r>:
 8002c1c:	e92d 4ff0 	stmdb	sp!, {r4, r5, r6, r7, r8, r9, sl, fp, lr}
 8002c20:	f240 143c 	movw	r4, #316	; 0x13c
 8002c24:	f2c2 0400 	movt	r4, #8192	; 0x2000
 8002c28:	b085      	sub	sp, #20
 8002c2a:	461f      	mov	r7, r3
 8002c2c:	468c      	mov	ip, r1
 8002c2e:	6826      	ldr	r6, [r4, #0]
 8002c30:	460b      	mov	r3, r1
 8002c32:	9003      	str	r0, [sp, #12]
 8002c34:	9202      	str	r2, [sp, #8]
 8002c36:	f813 4b01 	ldrb.w	r4, [r3], #1
 8002c3a:	1932      	adds	r2, r6, r4
 8002c3c:	461d      	mov	r5, r3
 8002c3e:	f892 b001 	ldrb.w	fp, [r2, #1]
 8002c42:	f01b 0b08 	ands.w	fp, fp, #8
 8002c46:	d1f6      	bne.n	8002c36 <_strtol_r+0x1a>
 8002c48:	2c2d      	cmp	r4, #45	; 0x2d
 8002c4a:	d073      	beq.n	8002d34 <_strtol_r+0x118>
 8002c4c:	2c2b      	cmp	r4, #43	; 0x2b
 8002c4e:	bf08      	it	eq
 8002c50:	f815 4b01 	ldrbeq.w	r4, [r5], #1
 8002c54:	f1d7 0301 	rsbs	r3, r7, #1
 8002c58:	bf38      	it	cc
 8002c5a:	2300      	movcc	r3, #0
 8002c5c:	2f10      	cmp	r7, #16
 8002c5e:	bf14      	ite	ne
 8002c60:	461a      	movne	r2, r3
 8002c62:	f043 0201 	orreq.w	r2, r3, #1
 8002c66:	b132      	cbz	r2, 8002c76 <_strtol_r+0x5a>
 8002c68:	2c30      	cmp	r4, #48	; 0x30
 8002c6a:	d073      	beq.n	8002d54 <_strtol_r+0x138>
 8002c6c:	b11b      	cbz	r3, 8002c76 <_strtol_r+0x5a>
 8002c6e:	2c30      	cmp	r4, #48	; 0x30
 8002c70:	f000 8083 	beq.w	8002d7a <_strtol_r+0x15e>
 8002c74:	270a      	movs	r7, #10
 8002c76:	46b9      	mov	r9, r7
 8002c78:	f1bb 0f00 	cmp.w	fp, #0
 8002c7c:	4649      	mov	r1, r9
 8002c7e:	bf0c      	ite	eq
 8002c80:	f06f 4a00 	mvneq.w	sl, #2147483648	; 0x80000000
 8002c84:	f04f 4a00 	movne.w	sl, #2147483648	; 0x80000000
 8002c88:	f8cd c004 	str.w	ip, [sp, #4]
 8002c8c:	4650      	mov	r0, sl
 8002c8e:	f000 fab1 	bl	80031f4 <__aeabi_uidivmod>
 8002c92:	4650      	mov	r0, sl
 8002c94:	4688      	mov	r8, r1
 8002c96:	4649      	mov	r1, r9
 8002c98:	f000 f97e 	bl	8002f98 <__aeabi_uidiv>
 8002c9c:	1933      	adds	r3, r6, r4
 8002c9e:	2200      	movs	r2, #0
 8002ca0:	f8dd c004 	ldr.w	ip, [sp, #4]
 8002ca4:	785b      	ldrb	r3, [r3, #1]
 8002ca6:	4611      	mov	r1, r2
 8002ca8:	f013 0f04 	tst.w	r3, #4
 8002cac:	d01e      	beq.n	8002cec <_strtol_r+0xd0>
 8002cae:	3c30      	subs	r4, #48	; 0x30
 8002cb0:	42a7      	cmp	r7, r4
 8002cb2:	dd25      	ble.n	8002d00 <_strtol_r+0xe4>
 8002cb4:	4281      	cmp	r1, r0
 8002cb6:	bf94      	ite	ls
 8002cb8:	2300      	movls	r3, #0
 8002cba:	2301      	movhi	r3, #1
 8002cbc:	ea53 72d2 	orrs.w	r2, r3, r2, lsr #31
 8002cc0:	d12e      	bne.n	8002d20 <_strtol_r+0x104>
 8002cc2:	1a0a      	subs	r2, r1, r0
 8002cc4:	4253      	negs	r3, r2
 8002cc6:	eb43 0302 	adc.w	r3, r3, r2
 8002cca:	4544      	cmp	r4, r8
 8002ccc:	bfd4      	ite	le
 8002cce:	2300      	movle	r3, #0
 8002cd0:	f003 0301 	andgt.w	r3, r3, #1
 8002cd4:	2b00      	cmp	r3, #0
 8002cd6:	d123      	bne.n	8002d20 <_strtol_r+0x104>
 8002cd8:	fb09 4101 	mla	r1, r9, r1, r4
 8002cdc:	f815 4b01 	ldrb.w	r4, [r5], #1
 8002ce0:	2201      	movs	r2, #1
 8002ce2:	1933      	adds	r3, r6, r4
 8002ce4:	785b      	ldrb	r3, [r3, #1]
 8002ce6:	f013 0f04 	tst.w	r3, #4
 8002cea:	d1e0      	bne.n	8002cae <_strtol_r+0x92>
 8002cec:	f013 0303 	ands.w	r3, r3, #3
 8002cf0:	d006      	beq.n	8002d00 <_strtol_r+0xe4>
 8002cf2:	2b01      	cmp	r3, #1
 8002cf4:	bf14      	ite	ne
 8002cf6:	2357      	movne	r3, #87	; 0x57
 8002cf8:	2337      	moveq	r3, #55	; 0x37
 8002cfa:	1ae4      	subs	r4, r4, r3
 8002cfc:	42a7      	cmp	r7, r4
 8002cfe:	dcd9      	bgt.n	8002cb4 <_strtol_r+0x98>
 8002d00:	f1b2 3fff 	cmp.w	r2, #4294967295
 8002d04:	d01b      	beq.n	8002d3e <_strtol_r+0x122>
 8002d06:	4608      	mov	r0, r1
 8002d08:	f1bb 0f00 	cmp.w	fp, #0
 8002d0c:	d110      	bne.n	8002d30 <_strtol_r+0x114>
 8002d0e:	9b02      	ldr	r3, [sp, #8]
 8002d10:	b11b      	cbz	r3, 8002d1a <_strtol_r+0xfe>
 8002d12:	b952      	cbnz	r2, 8002d2a <_strtol_r+0x10e>
 8002d14:	9902      	ldr	r1, [sp, #8]
 8002d16:	f8c1 c000 	str.w	ip, [r1]
 8002d1a:	b005      	add	sp, #20
 8002d1c:	e8bd 8ff0 	ldmia.w	sp!, {r4, r5, r6, r7, r8, r9, sl, fp, pc}
 8002d20:	f04f 32ff 	mov.w	r2, #4294967295
 8002d24:	f815 4b01 	ldrb.w	r4, [r5], #1
 8002d28:	e7db      	b.n	8002ce2 <_strtol_r+0xc6>
 8002d2a:	f105 3cff 	add.w	ip, r5, #4294967295
 8002d2e:	e7f1      	b.n	8002d14 <_strtol_r+0xf8>
 8002d30:	4248      	negs	r0, r1
 8002d32:	e7ec      	b.n	8002d0e <_strtol_r+0xf2>
 8002d34:	f815 4b01 	ldrb.w	r4, [r5], #1
 8002d38:	f04f 0b01 	mov.w	fp, #1
 8002d3c:	e78a      	b.n	8002c54 <_strtol_r+0x38>
 8002d3e:	9903      	ldr	r1, [sp, #12]
 8002d40:	f1bb 0f00 	cmp.w	fp, #0
 8002d44:	bf0c      	ite	eq
 8002d46:	f06f 4000 	mvneq.w	r0, #2147483648	; 0x80000000
 8002d4a:	f04f 4000 	movne.w	r0, #2147483648	; 0x80000000
 8002d4e:	2322      	movs	r3, #34	; 0x22
 8002d50:	600b      	str	r3, [r1, #0]
 8002d52:	e7dc      	b.n	8002d0e <_strtol_r+0xf2>
 8002d54:	782a      	ldrb	r2, [r5, #0]
 8002d56:	f1a2 0078 	sub.w	r0, r2, #120	; 0x78
 8002d5a:	4241      	negs	r1, r0
 8002d5c:	eb41 0100 	adc.w	r1, r1, r0
 8002d60:	2a58      	cmp	r2, #88	; 0x58
 8002d62:	bf14      	ite	ne
 8002d64:	460a      	movne	r2, r1
 8002d66:	f041 0201 	orreq.w	r2, r1, #1
 8002d6a:	2a00      	cmp	r2, #0
 8002d6c:	f43f af7e 	beq.w	8002c6c <_strtol_r+0x50>
 8002d70:	2710      	movs	r7, #16
 8002d72:	786c      	ldrb	r4, [r5, #1]
 8002d74:	46b9      	mov	r9, r7
 8002d76:	3502      	adds	r5, #2
 8002d78:	e77e      	b.n	8002c78 <_strtol_r+0x5c>
 8002d7a:	2708      	movs	r7, #8
 8002d7c:	46b9      	mov	r9, r7
 8002d7e:	e77b      	b.n	8002c78 <_strtol_r+0x5c>

08002d80 <strtol>:
 8002d80:	b430      	push	{r4, r5}
 8002d82:	f240 0434 	movw	r4, #52	; 0x34
 8002d86:	f2c2 0400 	movt	r4, #8192	; 0x2000
 8002d8a:	460d      	mov	r5, r1
 8002d8c:	4613      	mov	r3, r2
 8002d8e:	4601      	mov	r1, r0
 8002d90:	462a      	mov	r2, r5
 8002d92:	6820      	ldr	r0, [r4, #0]
 8002d94:	bc30      	pop	{r4, r5}
 8002d96:	e741      	b.n	8002c1c <_strtol_r>

08002d98 <memchr>:
 8002d98:	f010 0f03 	tst.w	r0, #3
 8002d9c:	4603      	mov	r3, r0
 8002d9e:	b470      	push	{r4, r5, r6}
 8002da0:	b2c9      	uxtb	r1, r1
 8002da2:	d011      	beq.n	8002dc8 <memchr+0x30>
 8002da4:	2a00      	cmp	r2, #0
 8002da6:	d022      	beq.n	8002dee <memchr+0x56>
 8002da8:	7803      	ldrb	r3, [r0, #0]
 8002daa:	428b      	cmp	r3, r1
 8002dac:	d01d      	beq.n	8002dea <memchr+0x52>
 8002dae:	3a01      	subs	r2, #1
 8002db0:	3001      	adds	r0, #1
 8002db2:	e005      	b.n	8002dc0 <memchr+0x28>
 8002db4:	b1da      	cbz	r2, 8002dee <memchr+0x56>
 8002db6:	f810 4b01 	ldrb.w	r4, [r0], #1
 8002dba:	3a01      	subs	r2, #1
 8002dbc:	428c      	cmp	r4, r1
 8002dbe:	d018      	beq.n	8002df2 <memchr+0x5a>
 8002dc0:	f010 0f03 	tst.w	r0, #3
 8002dc4:	4603      	mov	r3, r0
 8002dc6:	d1f5      	bne.n	8002db4 <memchr+0x1c>
 8002dc8:	2a03      	cmp	r2, #3
 8002dca:	d814      	bhi.n	8002df6 <memchr+0x5e>
 8002dcc:	b17a      	cbz	r2, 8002dee <memchr+0x56>
 8002dce:	7818      	ldrb	r0, [r3, #0]
 8002dd0:	4288      	cmp	r0, r1
 8002dd2:	d00e      	beq.n	8002df2 <memchr+0x5a>
 8002dd4:	1e54      	subs	r4, r2, #1
 8002dd6:	1c5d      	adds	r5, r3, #1
 8002dd8:	e003      	b.n	8002de2 <memchr+0x4a>
 8002dda:	f815 6b01 	ldrb.w	r6, [r5], #1
 8002dde:	428e      	cmp	r6, r1
 8002de0:	d003      	beq.n	8002dea <memchr+0x52>
 8002de2:	3c01      	subs	r4, #1
 8002de4:	4628      	mov	r0, r5
 8002de6:	d2f8      	bcs.n	8002dda <memchr+0x42>
 8002de8:	2000      	movs	r0, #0
 8002dea:	bc70      	pop	{r4, r5, r6}
 8002dec:	4770      	bx	lr
 8002dee:	4610      	mov	r0, r2
 8002df0:	e7fb      	b.n	8002dea <memchr+0x52>
 8002df2:	4618      	mov	r0, r3
 8002df4:	e7f9      	b.n	8002dea <memchr+0x52>
 8002df6:	ea41 2601 	orr.w	r6, r1, r1, lsl #8
 8002dfa:	ea46 4606 	orr.w	r6, r6, r6, lsl #16
 8002dfe:	4618      	mov	r0, r3
 8002e00:	f853 4b04 	ldr.w	r4, [r3], #4
 8002e04:	ea86 0404 	eor.w	r4, r6, r4
 8002e08:	f1a4 3501 	sub.w	r5, r4, #16843009	; 0x1010101
 8002e0c:	ea25 0404 	bic.w	r4, r5, r4
 8002e10:	f014 3f80 	tst.w	r4, #2155905152	; 0x80808080
 8002e14:	d103      	bne.n	8002e1e <memchr+0x86>
 8002e16:	3a04      	subs	r2, #4
 8002e18:	4618      	mov	r0, r3
 8002e1a:	2a03      	cmp	r2, #3
 8002e1c:	d8ef      	bhi.n	8002dfe <memchr+0x66>
 8002e1e:	4603      	mov	r3, r0
 8002e20:	e7d4      	b.n	8002dcc <memchr+0x34>
 8002e22:	bf00      	nop

08002e24 <memcmp>:
 8002e24:	2a03      	cmp	r2, #3
 8002e26:	b470      	push	{r4, r5, r6}
 8002e28:	4604      	mov	r4, r0
 8002e2a:	460d      	mov	r5, r1
 8002e2c:	d926      	bls.n	8002e7c <memcmp+0x58>
 8002e2e:	ea41 0300 	orr.w	r3, r1, r0
 8002e32:	f013 0f03 	tst.w	r3, #3
 8002e36:	d013      	beq.n	8002e60 <memcmp+0x3c>
 8002e38:	7820      	ldrb	r0, [r4, #0]
 8002e3a:	782b      	ldrb	r3, [r5, #0]
 8002e3c:	4298      	cmp	r0, r3
 8002e3e:	bf08      	it	eq
 8002e40:	4629      	moveq	r1, r5
 8002e42:	d006      	beq.n	8002e52 <memcmp+0x2e>
 8002e44:	e01e      	b.n	8002e84 <memcmp+0x60>
 8002e46:	f814 0f01 	ldrb.w	r0, [r4, #1]!
 8002e4a:	f811 3f01 	ldrb.w	r3, [r1, #1]!
 8002e4e:	4298      	cmp	r0, r3
 8002e50:	d118      	bne.n	8002e84 <memcmp+0x60>
 8002e52:	2a01      	cmp	r2, #1
 8002e54:	f102 32ff 	add.w	r2, r2, #4294967295
 8002e58:	d1f5      	bne.n	8002e46 <memcmp+0x22>
 8002e5a:	2000      	movs	r0, #0
 8002e5c:	bc70      	pop	{r4, r5, r6}
 8002e5e:	4770      	bx	lr
 8002e60:	460b      	mov	r3, r1
 8002e62:	4604      	mov	r4, r0
 8002e64:	f851 5b04 	ldr.w	r5, [r1], #4
 8002e68:	f850 6b04 	ldr.w	r6, [r0], #4
 8002e6c:	42ae      	cmp	r6, r5
 8002e6e:	d104      	bne.n	8002e7a <memcmp+0x56>
 8002e70:	3a04      	subs	r2, #4
 8002e72:	4604      	mov	r4, r0
 8002e74:	2a03      	cmp	r2, #3
 8002e76:	460b      	mov	r3, r1
 8002e78:	d8f2      	bhi.n	8002e60 <memcmp+0x3c>
 8002e7a:	461d      	mov	r5, r3
 8002e7c:	4610      	mov	r0, r2
 8002e7e:	2a00      	cmp	r2, #0
 8002e80:	d1da      	bne.n	8002e38 <memcmp+0x14>
 8002e82:	e7eb      	b.n	8002e5c <memcmp+0x38>
 8002e84:	1ac0      	subs	r0, r0, r3
 8002e86:	e7e9      	b.n	8002e5c <memcmp+0x38>

08002e88 <strchr>:
 8002e88:	b2c9      	uxtb	r1, r1
 8002e8a:	b4f0      	push	{r4, r5, r6, r7}
 8002e8c:	2900      	cmp	r1, #0
 8002e8e:	d050      	beq.n	8002f32 <strchr+0xaa>
 8002e90:	f010 0f03 	tst.w	r0, #3
 8002e94:	d010      	beq.n	8002eb8 <strchr+0x30>
 8002e96:	7803      	ldrb	r3, [r0, #0]
 8002e98:	2b00      	cmp	r3, #0
 8002e9a:	d079      	beq.n	8002f90 <strchr+0x108>
 8002e9c:	4299      	cmp	r1, r3
 8002e9e:	d046      	beq.n	8002f2e <strchr+0xa6>
 8002ea0:	1c43      	adds	r3, r0, #1
 8002ea2:	e005      	b.n	8002eb0 <strchr+0x28>
 8002ea4:	f813 2b01 	ldrb.w	r2, [r3], #1
 8002ea8:	2a00      	cmp	r2, #0
 8002eaa:	d03f      	beq.n	8002f2c <strchr+0xa4>
 8002eac:	4291      	cmp	r1, r2
 8002eae:	d03e      	beq.n	8002f2e <strchr+0xa6>
 8002eb0:	f013 0f03 	tst.w	r3, #3
 8002eb4:	4618      	mov	r0, r3
 8002eb6:	d1f5      	bne.n	8002ea4 <strchr+0x1c>
 8002eb8:	6803      	ldr	r3, [r0, #0]
 8002eba:	ea41 2701 	orr.w	r7, r1, r1, lsl #8
 8002ebe:	4606      	mov	r6, r0
 8002ec0:	f1a3 3201 	sub.w	r2, r3, #16843009	; 0x1010101
 8002ec4:	ea47 4707 	orr.w	r7, r7, r7, lsl #16
 8002ec8:	ea22 0203 	bic.w	r2, r2, r3
 8002ecc:	f012 3f80 	tst.w	r2, #2155905152	; 0x80808080
 8002ed0:	d11d      	bne.n	8002f0e <strchr+0x86>
 8002ed2:	ea87 0303 	eor.w	r3, r7, r3
 8002ed6:	f1a3 3201 	sub.w	r2, r3, #16843009	; 0x1010101
 8002eda:	ea22 0303 	bic.w	r3, r2, r3
 8002ede:	f013 3f80 	tst.w	r3, #2155905152	; 0x80808080
 8002ee2:	d114      	bne.n	8002f0e <strchr+0x86>
 8002ee4:	3004      	adds	r0, #4
 8002ee6:	e002      	b.n	8002eee <strchr+0x66>
 8002ee8:	f012 3f80 	tst.w	r2, #2155905152	; 0x80808080
 8002eec:	d10f      	bne.n	8002f0e <strchr+0x86>
 8002eee:	4606      	mov	r6, r0
 8002ef0:	f850 3b04 	ldr.w	r3, [r0], #4
 8002ef4:	f1a3 3501 	sub.w	r5, r3, #16843009	; 0x1010101
 8002ef8:	ea87 0203 	eor.w	r2, r7, r3
 8002efc:	ea25 0303 	bic.w	r3, r5, r3
 8002f00:	f1a2 3401 	sub.w	r4, r2, #16843009	; 0x1010101
 8002f04:	f013 3f80 	tst.w	r3, #2155905152	; 0x80808080
 8002f08:	ea24 0202 	bic.w	r2, r4, r2
 8002f0c:	d0ec      	beq.n	8002ee8 <strchr+0x60>
 8002f0e:	7833      	ldrb	r3, [r6, #0]
 8002f10:	4630      	mov	r0, r6
 8002f12:	2b00      	cmp	r3, #0
 8002f14:	d03c      	beq.n	8002f90 <strchr+0x108>
 8002f16:	4299      	cmp	r1, r3
 8002f18:	d009      	beq.n	8002f2e <strchr+0xa6>
 8002f1a:	1c73      	adds	r3, r6, #1
 8002f1c:	e001      	b.n	8002f22 <strchr+0x9a>
 8002f1e:	4291      	cmp	r1, r2
 8002f20:	d005      	beq.n	8002f2e <strchr+0xa6>
 8002f22:	4618      	mov	r0, r3
 8002f24:	f813 2b01 	ldrb.w	r2, [r3], #1
 8002f28:	2a00      	cmp	r2, #0
 8002f2a:	d1f8      	bne.n	8002f1e <strchr+0x96>
 8002f2c:	4610      	mov	r0, r2
 8002f2e:	bcf0      	pop	{r4, r5, r6, r7}
 8002f30:	4770      	bx	lr
 8002f32:	f010 0f03 	tst.w	r0, #3
 8002f36:	d00c      	beq.n	8002f52 <strchr+0xca>
 8002f38:	7803      	ldrb	r3, [r0, #0]
 8002f3a:	2b00      	cmp	r3, #0
 8002f3c:	d0f7      	beq.n	8002f2e <strchr+0xa6>
 8002f3e:	1c43      	adds	r3, r0, #1
 8002f40:	e003      	b.n	8002f4a <strchr+0xc2>
 8002f42:	f813 2b01 	ldrb.w	r2, [r3], #1
 8002f46:	2a00      	cmp	r2, #0
 8002f48:	d0f1      	beq.n	8002f2e <strchr+0xa6>
 8002f4a:	f013 0f03 	tst.w	r3, #3
 8002f4e:	4618      	mov	r0, r3
 8002f50:	d1f7      	bne.n	8002f42 <strchr+0xba>
 8002f52:	6802      	ldr	r2, [r0, #0]
 8002f54:	4603      	mov	r3, r0
 8002f56:	f1a2 3101 	sub.w	r1, r2, #16843009	; 0x1010101
 8002f5a:	ea21 0202 	bic.w	r2, r1, r2
 8002f5e:	f012 3f80 	tst.w	r2, #2155905152	; 0x80808080
 8002f62:	d10a      	bne.n	8002f7a <strchr+0xf2>
 8002f64:	3004      	adds	r0, #4
 8002f66:	4603      	mov	r3, r0
 8002f68:	f850 2b04 	ldr.w	r2, [r0], #4
 8002f6c:	f1a2 3101 	sub.w	r1, r2, #16843009	; 0x1010101
 8002f70:	ea21 0202 	bic.w	r2, r1, r2
 8002f74:	f012 3f80 	tst.w	r2, #2155905152	; 0x80808080
 8002f78:	d0f5      	beq.n	8002f66 <strchr+0xde>
 8002f7a:	781a      	ldrb	r2, [r3, #0]
 8002f7c:	4618      	mov	r0, r3
 8002f7e:	2a00      	cmp	r2, #0
 8002f80:	d0d5      	beq.n	8002f2e <strchr+0xa6>
 8002f82:	3301      	adds	r3, #1
 8002f84:	4618      	mov	r0, r3
 8002f86:	f813 2b01 	ldrb.w	r2, [r3], #1
 8002f8a:	2a00      	cmp	r2, #0
 8002f8c:	d1fa      	bne.n	8002f84 <strchr+0xfc>
 8002f8e:	e7ce      	b.n	8002f2e <strchr+0xa6>
 8002f90:	4618      	mov	r0, r3
 8002f92:	e7cc      	b.n	8002f2e <strchr+0xa6>
 8002f94:	0000      	movs	r0, r0
	...

08002f98 <__aeabi_uidiv>:
 8002f98:	1e4a      	subs	r2, r1, #1
 8002f9a:	bf08      	it	eq
 8002f9c:	4770      	bxeq	lr
 8002f9e:	f0c0 8124 	bcc.w	80031ea <__aeabi_uidiv+0x252>
 8002fa2:	4288      	cmp	r0, r1
 8002fa4:	f240 8116 	bls.w	80031d4 <__aeabi_uidiv+0x23c>
 8002fa8:	4211      	tst	r1, r2
 8002faa:	f000 8117 	beq.w	80031dc <__aeabi_uidiv+0x244>
 8002fae:	fab0 f380 	clz	r3, r0
 8002fb2:	fab1 f281 	clz	r2, r1
 8002fb6:	eba2 0303 	sub.w	r3, r2, r3
 8002fba:	f1c3 031f 	rsb	r3, r3, #31
 8002fbe:	a204      	add	r2, pc, #16	; (adr r2, 8002fd0 <__aeabi_uidiv+0x38>)
 8002fc0:	eb02 1303 	add.w	r3, r2, r3, lsl #4
 8002fc4:	f04f 0200 	mov.w	r2, #0
 8002fc8:	469f      	mov	pc, r3
 8002fca:	bf00      	nop
 8002fcc:	f3af 8000 	nop.w
 8002fd0:	ebb0 7fc1 	cmp.w	r0, r1, lsl #31
 8002fd4:	bf00      	nop
 8002fd6:	eb42 0202 	adc.w	r2, r2, r2
 8002fda:	bf28      	it	cs
 8002fdc:	eba0 70c1 	subcs.w	r0, r0, r1, lsl #31
 8002fe0:	ebb0 7f81 	cmp.w	r0, r1, lsl #30
 8002fe4:	bf00      	nop
 8002fe6:	eb42 0202 	adc.w	r2, r2, r2
 8002fea:	bf28      	it	cs
 8002fec:	eba0 7081 	subcs.w	r0, r0, r1, lsl #30
 8002ff0:	ebb0 7f41 	cmp.w	r0, r1, lsl #29
 8002ff4:	bf00      	nop
 8002ff6:	eb42 0202 	adc.w	r2, r2, r2
 8002ffa:	bf28      	it	cs
 8002ffc:	eba0 7041 	subcs.w	r0, r0, r1, lsl #29
 8003000:	ebb0 7f01 	cmp.w	r0, r1, lsl #28
 8003004:	bf00      	nop
 8003006:	eb42 0202 	adc.w	r2, r2, r2
 800300a:	bf28      	it	cs
 800300c:	eba0 7001 	subcs.w	r0, r0, r1, lsl #28
 8003010:	ebb0 6fc1 	cmp.w	r0, r1, lsl #27
 8003014:	bf00      	nop
 8003016:	eb42 0202 	adc.w	r2, r2, r2
 800301a:	bf28      	it	cs
 800301c:	eba0 60c1 	subcs.w	r0, r0, r1, lsl #27
 8003020:	ebb0 6f81 	cmp.w	r0, r1, lsl #26
 8003024:	bf00      	nop
 8003026:	eb42 0202 	adc.w	r2, r2, r2
 800302a:	bf28      	it	cs
 800302c:	eba0 6081 	subcs.w	r0, r0, r1, lsl #26
 8003030:	ebb0 6f41 	cmp.w	r0, r1, lsl #25
 8003034:	bf00      	nop
 8003036:	eb42 0202 	adc.w	r2, r2, r2
 800303a:	bf28      	it	cs
 800303c:	eba0 6041 	subcs.w	r0, r0, r1, lsl #25
 8003040:	ebb0 6f01 	cmp.w	r0, r1, lsl #24
 8003044:	bf00      	nop
 8003046:	eb42 0202 	adc.w	r2, r2, r2
 800304a:	bf28      	it	cs
 800304c:	eba0 6001 	subcs.w	r0, r0, r1, lsl #24
 8003050:	ebb0 5fc1 	cmp.w	r0, r1, lsl #23
 8003054:	bf00      	nop
 8003056:	eb42 0202 	adc.w	r2, r2, r2
 800305a:	bf28      	it	cs
 800305c:	eba0 50c1 	subcs.w	r0, r0, r1, lsl #23
 8003060:	ebb0 5f81 	cmp.w	r0, r1, lsl #22
 8003064:	bf00      	nop
 8003066:	eb42 0202 	adc.w	r2, r2, r2
 800306a:	bf28      	it	cs
 800306c:	eba0 5081 	subcs.w	r0, r0, r1, lsl #22
 8003070:	ebb0 5f41 	cmp.w	r0, r1, lsl #21
 8003074:	bf00      	nop
 8003076:	eb42 0202 	adc.w	r2, r2, r2
 800307a:	bf28      	it	cs
 800307c:	eba0 5041 	subcs.w	r0, r0, r1, lsl #21
 8003080:	ebb0 5f01 	cmp.w	r0, r1, lsl #20
 8003084:	bf00      	nop
 8003086:	eb42 0202 	adc.w	r2, r2, r2
 800308a:	bf28      	it	cs
 800308c:	eba0 5001 	subcs.w	r0, r0, r1, lsl #20
 8003090:	ebb0 4fc1 	cmp.w	r0, r1, lsl #19
 8003094:	bf00      	nop
 8003096:	eb42 0202 	adc.w	r2, r2, r2
 800309a:	bf28      	it	cs
 800309c:	eba0 40c1 	subcs.w	r0, r0, r1, lsl #19
 80030a0:	ebb0 4f81 	cmp.w	r0, r1, lsl #18
 80030a4:	bf00      	nop
 80030a6:	eb42 0202 	adc.w	r2, r2, r2
 80030aa:	bf28      	it	cs
 80030ac:	eba0 4081 	subcs.w	r0, r0, r1, lsl #18
 80030b0:	ebb0 4f41 	cmp.w	r0, r1, lsl #17
 80030b4:	bf00      	nop
 80030b6:	eb42 0202 	adc.w	r2, r2, r2
 80030ba:	bf28      	it	cs
 80030bc:	eba0 4041 	subcs.w	r0, r0, r1, lsl #17
 80030c0:	ebb0 4f01 	cmp.w	r0, r1, lsl #16
 80030c4:	bf00      	nop
 80030c6:	eb42 0202 	adc.w	r2, r2, r2
 80030ca:	bf28      	it	cs
 80030cc:	eba0 4001 	subcs.w	r0, r0, r1, lsl #16
 80030d0:	ebb0 3fc1 	cmp.w	r0, r1, lsl #15
 80030d4:	bf00      	nop
 80030d6:	eb42 0202 	adc.w	r2, r2, r2
 80030da:	bf28      	it	cs
 80030dc:	eba0 30c1 	subcs.w	r0, r0, r1, lsl #15
 80030e0:	ebb0 3f81 	cmp.w	r0, r1, lsl #14
 80030e4:	bf00      	nop
 80030e6:	eb42 0202 	adc.w	r2, r2, r2
 80030ea:	bf28      	it	cs
 80030ec:	eba0 3081 	subcs.w	r0, r0, r1, lsl #14
 80030f0:	ebb0 3f41 	cmp.w	r0, r1, lsl #13
 80030f4:	bf00      	nop
 80030f6:	eb42 0202 	adc.w	r2, r2, r2
 80030fa:	bf28      	it	cs
 80030fc:	eba0 3041 	subcs.w	r0, r0, r1, lsl #13
 8003100:	ebb0 3f01 	cmp.w	r0, r1, lsl #12
 8003104:	bf00      	nop
 8003106:	eb42 0202 	adc.w	r2, r2, r2
 800310a:	bf28      	it	cs
 800310c:	eba0 3001 	subcs.w	r0, r0, r1, lsl #12
 8003110:	ebb0 2fc1 	cmp.w	r0, r1, lsl #11
 8003114:	bf00      	nop
 8003116:	eb42 0202 	adc.w	r2, r2, r2
 800311a:	bf28      	it	cs
 800311c:	eba0 20c1 	subcs.w	r0, r0, r1, lsl #11
 8003120:	ebb0 2f81 	cmp.w	r0, r1, lsl #10
 8003124:	bf00      	nop
 8003126:	eb42 0202 	adc.w	r2, r2, r2
 800312a:	bf28      	it	cs
 800312c:	eba0 2081 	subcs.w	r0, r0, r1, lsl #10
 8003130:	ebb0 2f41 	cmp.w	r0, r1, lsl #9
 8003134:	bf00      	nop
 8003136:	eb42 0202 	adc.w	r2, r2, r2
 800313a:	bf28      	it	cs
 800313c:	eba0 2041 	subcs.w	r0, r0, r1, lsl #9
 8003140:	ebb0 2f01 	cmp.w	r0, r1, lsl #8
 8003144:	bf00      	nop
 8003146:	eb42 0202 	adc.w	r2, r2, r2
 800314a:	bf28      	it	cs
 800314c:	eba0 2001 	subcs.w	r0, r0, r1, lsl #8
 8003150:	ebb0 1fc1 	cmp.w	r0, r1, lsl #7
 8003154:	bf00      	nop
 8003156:	eb42 0202 	adc.w	r2, r2, r2
 800315a:	bf28      	it	cs
 800315c:	eba0 10c1 	subcs.w	r0, r0, r1, lsl #7
 8003160:	ebb0 1f81 	cmp.w	r0, r1, lsl #6
 8003164:	bf00      	nop
 8003166:	eb42 0202 	adc.w	r2, r2, r2
 800316a:	bf28      	it	cs
 800316c:	eba0 1081 	subcs.w	r0, r0, r1, lsl #6
 8003170:	ebb0 1f41 	cmp.w	r0, r1, lsl #5
 8003174:	bf00      	nop
 8003176:	eb42 0202 	adc.w	r2, r2, r2
 800317a:	bf28      	it	cs
 800317c:	eba0 1041 	subcs.w	r0, r0, r1, lsl #5
 8003180:	ebb0 1f01 	cmp.w	r0, r1, lsl #4
 8003184:	bf00      	nop
 8003186:	eb42 0202 	adc.w	r2, r2, r2
 800318a:	bf28      	it	cs
 800318c:	eba0 1001 	subcs.w	r0, r0, r1, lsl #4
 8003190:	ebb0 0fc1 	cmp.w	r0, r1, lsl #3
 8003194:	bf00      	nop
 8003196:	eb42 0202 	adc.w	r2, r2, r2
 800319a:	bf28      	it	cs
 800319c:	eba0 00c1 	subcs.w	r0, r0, r1, lsl #3
 80031a0:	ebb0 0f81 	cmp.w	r0, r1, lsl #2
 80031a4:	bf00      	nop
 80031a6:	eb42 0202 	adc.w	r2, r2, r2
 80031aa:	bf28      	it	cs
 80031ac:	eba0 0081 	subcs.w	r0, r0, r1, lsl #2
 80031b0:	ebb0 0f41 	cmp.w	r0, r1, lsl #1
 80031b4:	bf00      	nop
 80031b6:	eb42 0202 	adc.w	r2, r2, r2
 80031ba:	bf28      	it	cs
 80031bc:	eba0 0041 	subcs.w	r0, r0, r1, lsl #1
 80031c0:	ebb0 0f01 	cmp.w	r0, r1
 80031c4:	bf00      	nop
 80031c6:	eb42 0202 	adc.w	r2, r2, r2
 80031ca:	bf28      	it	cs
 80031cc:	eba0 0001 	subcs.w	r0, r0, r1
 80031d0:	4610      	mov	r0, r2
 80031d2:	4770      	bx	lr
 80031d4:	bf0c      	ite	eq
 80031d6:	2001      	moveq	r0, #1
 80031d8:	2000      	movne	r0, #0
 80031da:	4770      	bx	lr
 80031dc:	fab1 f281 	clz	r2, r1
 80031e0:	f1c2 021f 	rsb	r2, r2, #31
 80031e4:	fa20 f002 	lsr.w	r0, r0, r2
 80031e8:	4770      	bx	lr
 80031ea:	b108      	cbz	r0, 80031f0 <__aeabi_uidiv+0x258>
 80031ec:	f04f 30ff 	mov.w	r0, #4294967295
 80031f0:	f000 b80e 	b.w	8003210 <__aeabi_idiv0>

080031f4 <__aeabi_uidivmod>:
 80031f4:	2900      	cmp	r1, #0
 80031f6:	d0f8      	beq.n	80031ea <__aeabi_uidiv+0x252>
 80031f8:	e92d 4003 	stmdb	sp!, {r0, r1, lr}
 80031fc:	f7ff fecc 	bl	8002f98 <__aeabi_uidiv>
 8003200:	e8bd 4006 	ldmia.w	sp!, {r1, r2, lr}
 8003204:	fb02 f300 	mul.w	r3, r2, r0
 8003208:	eba1 0103 	sub.w	r1, r1, r3
 800320c:	4770      	bx	lr
 800320e:	bf00      	nop

08003210 <__aeabi_idiv0>:
 8003210:	4770      	bx	lr
 8003212:	bf00      	nop
 8003214:	64255b1b 	.word	0x64255b1b
 8003218:	255b1b44 	.word	0x255b1b44
 800321c:	00004364 	.word	0x00004364
 8003220:	64255b1b 	.word	0x64255b1b
 8003224:	00000043 	.word	0x00000043
 8003228:	64255b1b 	.word	0x64255b1b
 800322c:	00000044 	.word	0x00000044
 8003230:	004b5b1b 	.word	0x004b5b1b
 8003234:	20445b1b 	.word	0x20445b1b
 8003238:	00445b1b 	.word	0x00445b1b
 800323c:	4f525245 	.word	0x4f525245
 8003240:	6f743a52 	.word	0x6f743a52
 8003244:	736e656b 	.word	0x736e656b
 8003248:	6f6f7420 	.word	0x6f6f7420
 800324c:	63756d20 	.word	0x63756d20
 8003250:	000d0a68 	.word	0x000d0a68
 8003254:	00000020 	.word	0x00000020
 8003258:	32335b1b 	.word	0x32335b1b
 800325c:	6952496d 	.word	0x6952496d
 8003260:	1b3e206e 	.word	0x1b3e206e
 8003264:	206d305b 	.word	0x206d305b
 8003268:	00000000 	.word	0x00000000

0800326c <StandartFrequency>:
 800326c:	00007530 00007d00 000084d0 00008ca0     0u...}..........
 800327c:	00009470 00009c40 0000a410 0000abe0     p...@...........
 800328c:	0000b3b0 0000bb80 0000c350 0000cb20     ........P... ...
 800329c:	0000d2f0 0000dac0 0000e290 0000ea60     ............`...

080032ac <MaxChannelNumber>:
 80032ac:	00000003                                ....

080032b0 <TimeMask>:
 80032b0:	7fffffff                                ....

080032b4 <ValueMask>:
 80032b4:	80000000 656c6c49 206c6167 6f435249     ....Illegal IRCo
 80032c4:	70206564 746e696f 0d0a7265 00000000     de pointer......
 80032d4:	203a4449 30257830 0d0a5838 00000000     ID: 0x%08X......
 80032e4:	71657246 636e6575 25203a79 20643530     Frequency: %05d 
 80032f4:	0d0a7a48 00000000 67616c46 30203a73     Hz......Flags: 0
 8003304:	34302578 000d0a58 6e756f43 25203a74     x%04X...Count: %
 8003314:	000d0a75 65746e49 6c617672 6f632073     u...Intervals co
 8003324:	20746e75 2074756f 72206669 65676e61     unt out if range
 8003334:	00000d0a 3330255b 25205d75 20583130     ....[%03u] %01X 
 8003344:	5b203e2d 75383025 5d737520 00000d0a     -> [%08u us]....
 8003354:	0a3e3d3d 000d0a0d 20657355 20424154     ==>.....Use TAB 
 8003364:	2079656b 20726f66 706d6f63 6974656c     key for completi
 8003374:	0d0a6e6f 6d6d6f43 3a646e61 00000d0a     on..Command:....
 8003384:	61637309 096e206e 6373202d 696e6e61     .scan n.- scanni
 8003394:	6920676e 6f632072 61206564 7320646e     ng ir code and s
 80033a4:	20657274 64206f74 67756265 6f747320     tre to debug sto
 80033b4:	65676172 74697720 756e2068 7265626d     rage with number
 80033c4:	0d0a6e20 00000000 6e757209 6f635b20      n.......run [co
 80033d4:	205d6564 6168635b 6c656e6e 202d095d     de] [channel].- 
 80033e4:	646e6573 6f747320 20646572 646f635b     send stored [cod
 80033f4:	74205d65 635b206f 6e6e6168 0a5d6c65     e] to [channel].
 8003404:	0000000d 74657309 65726620 6e657571     .....set frequen
 8003414:	2d097963 74657320 72616320 20726569     cy.- set carier 
 8003424:	71657266 636e6575 000d0a79 69727009     frequency....pri
 8003434:	5b09746e 65646f63 202d205d 6e697270     nt.[code] - prin
 8003444:	65642074 20677562 7074756f 5b207475     t debug output [
 8003454:	65646f63 000d0a5d 656c6309 2d207261     code]....clear -
 8003464:	656c6320 64207261 6c707369 0d0a7961      clear display..
 8003474:	00000000 706c6568 00000000 7263696d     ....help....micr
 8003484:	206c726f 00000076 00322e31 62696c20     orl v...1.2. lib
 8003494:	79726172 4d545320 76203233 00000000     rary STM32 v....
 80034a4:	00302e31 61656c63 00000072 4a325b1b     1.0.clear....[2J
 80034b4:	00000000 00485b1b 6e616373 00000000     .....[H.scan....
 80034c4:	65646f43 74756f20 20666f20 676e6172     Code out of rang
 80034d4:	000d0a65 6e616353 676e696e 2e2e2e20     e...Scanning ...
 80034e4:	00000d0a 65646f43 6d756e20 20726562     ....Code number 
 80034f4:	20746f6e 6e756f66 000d0a64 6e697270     not found...prin
 8003504:	00000074 65646f43 6d756e20 20726562     t...Code number 
 8003514:	2074756f 7220666f 65676e61 00000d0a     out of range....
 8003524:	00746573 71657246 636e6575 756f2079     set.Frequency ou
 8003534:	666f2074 6e617220 0d0a6567 00000000     t of range......
 8003544:	46746553 75716572 79636e65 64255b20     SetFrequency [%d
 8003554:	000d0a5d 71657246 636e6575 61762079     ]...Frequency va
 8003564:	2065756c 20746f6e 6e756f66 000d0a64     lue not found...
 8003574:	6d6d6f63 3a646e61 00002720 6f4e2027     command: '..' No
 8003584:	6f662074 2e646e75 00000d0a 6320435e     t found.....^C c
 8003594:	68637461 0a216465 0000000d 006e7572     atched!.....run.
 80035a4:	69647473 3a632e6f 636e6920 73616572     stdio.c: increas
 80035b4:	414d2065 54535f58 474e4952 5a49535f     e MAX_STRING_SIZ
 80035c4:	000d0a45                                E...

080035c8 <_ctype_>:
 80035c8:	20202000 20202020 28282020 20282828     .         ((((( 
 80035d8:	20202020 20202020 20202020 20202020                     
 80035e8:	10108820 10101010 10101010 10101010      ...............
 80035f8:	04040410 04040404 10040404 10101010     ................
 8003608:	41411010 41414141 01010101 01010101     ..AAAAAA........
 8003618:	01010101 01010101 01010101 10101010     ................
 8003628:	42421010 42424242 02020202 02020202     ..BBBBBB........
 8003638:	02020202 02020202 02020202 10101010     ................
 8003648:	00000020 00000000 00000000 00000000      ...............
	...
